 newton_d

 Timestamp is 515eeba1 (Fri Apr 05 18:20:01 2013)

 Preferred load address is 10000000

 Start         Length     Name                   Class
 0001:00000000 0012d460H .text                   CODE
 0001:0012d460 0000160eH .text$yc                CODE
 0001:0012ea70 00001012H .text$yd                CODE
 0002:00000000 00000104H .CRT$XCA                DATA
 0002:00000104 00000164H .CRT$XCU                DATA
 0002:00000268 00000104H .CRT$XCZ                DATA
 0002:0000036c 00000104H .CRT$XIA                DATA
 0002:00000470 00000104H .CRT$XIAA               DATA
 0002:00000574 00000104H .CRT$XIC                DATA
 0002:00000678 00000104H .CRT$XIZ                DATA
 0002:00000780 0002e674H .rdata                  DATA
 0002:0002edf4 000001d2H .rdata$debug            DATA
 0002:0002efd0 00000109H .rdata$sxdata           DATA
 0002:0002f0dc 00000104H .rtc$IAA                DATA
 0002:0002f1e0 00000104H .rtc$IZZ                DATA
 0002:0002f2e4 00000104H .rtc$TAA                DATA
 0002:0002f3e8 00000104H .rtc$TZZ                DATA
 0002:0002f4f0 0000019eH .xdata$x                DATA
 0002:0002f690 00003f9dH .edata                  DATA
 0003:00000000 00000970H .data                   DATA
 0003:00000970 000029a0H .bss                    DATA
 0004:00000000 00000028H .idata$2                DATA
 0004:00000028 00000014H .idata$3                DATA
 0004:0000003c 000001bcH .idata$4                DATA
 0004:000001f8 000001bcH .idata$5                DATA
 0004:000003b4 0000065fH .idata$6                DATA

  Address         Publics by Value              Rva+Base       Lib:Object

 0000:00000000       __except_list              00000000     <absolute>
 0000:00000002       ___safe_se_handler_count   00000002     <absolute>
 0000:00009876       __fltused                  00009876     <absolute>
 0000:00009876       __ldused                   00009876     <absolute>
 0000:00000000       ___ImageBase               10000000     <linker-defined>
 0001:000019a0       ?TraceFuntionName@@YAXPBD@Z 100029a0 f   Newton.obj
 0001:000019c0       _DllMain@12                100029c0 f   Newton.obj
 0001:000019d0       _NewtonGetMemoryUsed       100029d0 f   Newton.obj
 0001:000019e0       _NewtonSetMemorySystem     100029e0 f   Newton.obj
 0001:00001a30       _NewtonCreate              10002a30 f   Newton.obj
 0001:00001b00       _NewtonDestroy             10002b00 f   Newton.obj
 0001:00001b70       _NewtonInvalidateCache     10002b70 f   Newton.obj
 0001:00001b90       _NewtonSetPlatformArchitecture 10002b90 f   Newton.obj
 0001:00001bb0       _NewtonGetPlatformArchitecture 10002bb0 f   Newton.obj
 0001:00001bd0       _NewtonWorldCriticalSectionLock 10002bd0 f   Newton.obj
 0001:00001bf0       _NewtonWorldCriticalSectionUnlock 10002bf0 f   Newton.obj
 0001:00001c10       _NewtonSetThreadsCount     10002c10 f   Newton.obj
 0001:00001c30       _NewtonGetThreadsCount     10002c30 f   Newton.obj
 0001:00001c50       _NewtonGetMaxThreadsCount  10002c50 f   Newton.obj
 0001:00001c70       _NewtonSetMultiThreadSolverOnSingleIsland 10002c70 f   Newton.obj
 0001:00001c90       _NewtonGetMultiThreadSolverOnSingleIsland 10002c90 f   Newton.obj
 0001:00001cb0       _NewtonSetSolverModel      10002cb0 f   Newton.obj
 0001:00001cd0       _NewtonSetFrictionModel    10002cd0 f   Newton.obj
 0001:00001cf0       _NewtonSetPerformanceClock 10002cf0 f   Newton.obj
 0001:00001d10       _NewtonReadPerformanceTicks 10002d10 f   Newton.obj
 0001:00001d30       _NewtonReadThreadPerformanceTicks 10002d30 f   Newton.obj
 0001:00001d50       _NewtonUpdate              10002d50 f   Newton.obj
 0001:00001df0       _NewtonCollisionUpdate     10002df0 f   Newton.obj
 0001:00001e10       _NewtonSetMinimumFrameRate 10002e10 f   Newton.obj
 0001:00001e60       _NewtonDestroyAllBodies    10002e60 f   Newton.obj
 0001:00001ed0       _NewtonSetWorldSize        10002ed0 f   Newton.obj
 0001:00001f60       _NewtonSetIslandUpdateEvent 10002f60 f   Newton.obj
 0001:00001f80       _NewtonSetCollisionDestructor 10002f80 f   Newton.obj
 0001:00001fa0       _NewtonSetDestroyBodyByExeciveForce 10002fa0 f   Newton.obj
 0001:00001fc0       _NewtonSetBodyLeaveWorldEvent 10002fc0 f   Newton.obj
 0001:00001fe0       _NewtonWorldGetFirstBody   10002fe0 f   Newton.obj
 0001:00002070       _NewtonWorldGetNextBody    10003070 f   Newton.obj
 0001:000020b0       _NewtonWorldForEachJointDo 100030b0 f   Newton.obj
 0001:00002190       _NewtonWorldForEachBodyInAABBDo 10003190 f   Newton.obj
 0001:00002230       _NewtonWorldGetVersion     10003230 f   Newton.obj
 0001:00002240       _NewtonWorldFloatSize      10003240 f   Newton.obj
 0001:00002250       _NewtonWorldSetUserData    10003250 f   Newton.obj
 0001:00002270       _NewtonWorldGetUserData    10003270 f   Newton.obj
 0001:00002290       _NewtonWorldSetDestructorCallBack 10003290 f   Newton.obj
 0001:000022b0       _NewtonWorldGetDestructorCallBack 100032b0 f   Newton.obj
 0001:000022d0       _NewtonWorldGetBodyCount   100032d0 f   Newton.obj
 0001:000022f0       _NewtonWorldGetConstraintCount 100032f0 f   Newton.obj
 0001:00002310       _NewtonWorldRayCast        10003310 f   Newton.obj
 0001:000023c0       _NewtonWorldConvexCast     100033c0 f   Newton.obj
 0001:00002440       _NewtonIslandGetBody       10003440 f   Newton.obj
 0001:00002460       _NewtonIslandGetBodyAABB   10003460 f   Newton.obj
 0001:000024a0       _NewtonMaterialGetDefaultGroupID 100034a0 f   Newton.obj
 0001:000024c0       _NewtonMaterialCreateGroupID 100034c0 f   Newton.obj
 0001:000024e0       _NewtonMaterialDestroyAllGroupID 100034e0 f   Newton.obj
 0001:00002500       _NewtonMaterialSetDefaultCollidable 10003500 f   Newton.obj
 0001:00002560       _NewtonMaterialSetContinuousCollisionMode 10003560 f   Newton.obj
 0001:000025c0       _NewtonMaterialSetSurfaceThickness 100035c0 f   Newton.obj
 0001:00002620       _NewtonMaterialSetDefaultFriction 10003620 f   Newton.obj
 0001:00002730       _NewtonMaterialSetDefaultElasticity 10003730 f   Newton.obj
 0001:00002780       _NewtonMaterialSetDefaultSoftness 10003780 f   Newton.obj
 0001:000027d0       _NewtonMaterialSetCollisionCallback 100037d0 f   Newton.obj
 0001:00002810       ?NewtonMaterialSetCompondCollisionCallback@@YAXQBUNewtonWorld@@HHP6AHQBUNewtonMaterial@@QBUNewtonBody@@2H@Z@Z 10003810 f   Newton.obj
 0001:00002840       _NewtonMaterialGetUserData 10003840 f   Newton.obj
 0001:00002870       _NewtonWorldGetFirstMaterial 10003870 f   Newton.obj
 0001:00002890       _NewtonWorldGetNextMaterial 10003890 f   Newton.obj
 0001:000028b0       _NewtonMaterialGetMaterialPairUserData 100038b0 f   Newton.obj
 0001:000028d0       _NewtonMaterialGetContactFaceAttribute 100038d0 f   Newton.obj
 0001:000028f0       _NewtonMaterialGetContactNormalSpeed 100038f0 f   Newton.obj
 0001:00002a20       _NewtonMaterialGetContactTangentSpeed 10003a20 f   Newton.obj
 0001:00002bb0       _NewtonMaterialGetContactPositionAndNormal 10003bb0 f   Newton.obj
 0001:00002c50       _NewtonMaterialGetContactForce 10003c50 f   Newton.obj
 0001:00002d40       _NewtonMaterialGetContactTangentDirections 10003d40 f   Newton.obj
 0001:00002e10       _NewtonMaterialGetBodyCollidingShape 10003e10 f   Newton.obj
 0001:00002e50       _NewtonMaterialSetContactSoftness 10003e50 f   Newton.obj
 0001:00002e90       _NewtonMaterialSetContactElasticity 10003e90 f   Newton.obj
 0001:00002ed0       _NewtonMaterialSetContactFrictionState 10003ed0 f   Newton.obj
 0001:00002f50       _NewtonMaterialSetContactFrictionCoef 10003f50 f   Newton.obj
 0001:00003030       _NewtonMaterialSetContactNormalAcceleration 10004030 f   Newton.obj
 0001:00003060       _NewtonMaterialSetContactTangentAcceleration 10004060 f   Newton.obj
 0001:000030c0       _NewtonMaterialSetContactNormalDirection 100040c0 f   Newton.obj
 0001:00003220       _NewtonMaterialContactRotateTangentDirections 10004220 f   Newton.obj
 0001:00003350       _NewtonCreateNull          10004350 f   Newton.obj
 0001:00003370       _NewtonCreateBox           10004370 f   Newton.obj
 0001:000033f0       _NewtonCreateSphere        100043f0 f   Newton.obj
 0001:00003500       _NewtonCreateCone          10004500 f   Newton.obj
 0001:00003570       _NewtonCreateCapsule       10004570 f   Newton.obj
 0001:000035e0       _NewtonCreateCylinder      100045e0 f   Newton.obj
 0001:00003650       _NewtonCreateChamferCylinder 10004650 f   Newton.obj
 0001:000036c0       _NewtonCreateConvexHull    100046c0 f   Newton.obj
 0001:00003760       _NewtonCreateConvexHullFromMesh 10004760 f   Newton.obj
 0001:00003790       _NewtonCreateConvexHullModifier 10004790 f   Newton.obj
 0001:000037c0       _NewtonConvexHullModifierGetMatrix 100047c0 f   Newton.obj
 0001:00003810       _NewtonConvexHullModifierSetMatrix 10004810 f   Newton.obj
 0001:00003840       _NewtonCreateCompoundCollision 10004840 f   Newton.obj
 0001:00003880       _NewtonCreateCompoundCollisionFromMesh 10004880 f   Newton.obj
 0001:000039f0       _NewtonCreateCompoundBreakable 100049f0 f   Newton.obj
 0001:00003a40       _NewtonCompoundBreakableResetAnchoredPieces 10004a40 f   Newton.obj
 0001:00003a70       _NewtonCompoundBreakableSetAnchoredPieces 10004a70 f   Newton.obj
 0001:00003ab0       _NewtonBreakableGetMainMesh 10004ab0 f   Newton.obj
 0001:00003af0       _NewtonBreakableBeginDelete 10004af0 f   Newton.obj
 0001:00003b30       _NewtonBreakableCreateDebrieBody 10004b30 f   Newton.obj
 0001:00003b80       _NewtonBreakableDeleteComponent 10004b80 f   Newton.obj
 0001:00003bc0       _NewtonBreakableEndDelete  10004bc0 f   Newton.obj
 0001:00003c00       _NewtonBreakableGetFirstComponent 10004c00 f   Newton.obj
 0001:00003c40       _NewtonBreakableGetNextComponent 10004c40 f   Newton.obj
 0001:00003c70       _NewtonCompoundBreakableGetVertexCount 10004c70 f   Newton.obj
 0001:00003cb0       _NewtonCompoundBreakableGetVertexStreams 10004cb0 f   Newton.obj
 0001:00003d00       _NewtonBreakableGetFirstSegment 10004d00 f   Newton.obj
 0001:00003d20       _NewtonBreakableGetNextSegment 10004d20 f   Newton.obj
 0001:00003d40       _NewtonBreakableGetComponentsInRadius 10004d40 f   Newton.obj
 0001:00003dd0       _NewtonBreakableSegmentGetMaterial 10004dd0 f   Newton.obj
 0001:00003df0       _NewtonBreakableSegmentGetIndexCount 10004df0 f   Newton.obj
 0001:00003e10       _NewtonBreakableSegmentGetIndexStream 10004e10 f   Newton.obj
 0001:00003e60       _NewtonBreakableSegmentGetIndexStreamShort 10004e60 f   Newton.obj
 0001:00003eb0       _NewtonCollisionIsTriggerVolume 10004eb0 f   Newton.obj
 0001:00003ee0       _NewtonCollisionSetAsTriggerVolume 10004ee0 f   Newton.obj
 0001:00003f10       _NewtonCollisionSetMaxBreakImpactImpulse 10004f10 f   Newton.obj
 0001:00003f40       _NewtonCollisionGetMaxBreakImpactImpulse 10004f40 f   Newton.obj
 0001:00003f60       _NewtonCollisionSetUserID  10004f60 f   Newton.obj
 0001:00003f80       _NewtonCollisionGetUserID  10004f80 f   Newton.obj
 0001:00003fa0       _NewtonConvexHullGetFaceIndices 10004fa0 f   Newton.obj
 0001:00003fe0       _NewtonConvexCollisionCalculateVolume 10004fe0 f   Newton.obj
 0001:00004000       _NewtonConvexCollisionCalculateInertialMatrix 10005000 f   Newton.obj
 0001:000040c0       _NewtonCreateUserMeshCollision 100050c0 f   Newton.obj
 0001:00004190       _NewtonCreateTreeCollision 10005190 f   Newton.obj
 0001:000041c0       _NewtonCreateTreeCollisionFromMesh 100051c0 f   Newton.obj
 0001:000041f0       _NewtonStaticCollisionSetDebugCallback 100051f0 f   Newton.obj
 0001:00004250       _NewtonTreeCollisionSetUserRayCastCallback 10005250 f   Newton.obj
 0001:00004280       _NewtonHeightFieldSetUserRayCastCallback 10005280 f   Newton.obj
 0001:000042b0       _NewtonTreeCollisionBeginBuild 100052b0 f   Newton.obj
 0001:00004300       _NewtonTreeCollisionAddFace 10005300 f   Newton.obj
 0001:00004360       _NewtonTreeCollisionEndBuild 10005360 f   Newton.obj
 0001:000043b0       _NewtonTreeCollisionGetFaceAtribute 100053b0 f   Newton.obj
 0001:00004410       _NewtonTreeCollisionSetFaceAtribute 10005410 f   Newton.obj
 0001:00004470       _NewtonTreeCollisionGetVertexListIndexListInAABB 10005470 f   Newton.obj
 0001:00004570       _NewtonCreateHeightFieldCollision 10005570 f   Newton.obj
 0001:000045c0       _NewtonCreateSceneCollision 100055c0 f   Newton.obj
 0001:000045f0       _NewtonSceneCollisionCreateProxy 100055f0 f   Newton.obj
 0001:00004680       _NewtonSceneCollisionDestroyProxy 10005680 f   Newton.obj
 0001:000046d0       _NewtonSceneProxySetMatrix 100056d0 f   Newton.obj
 0001:00004710       _NewtonSceneProxyGetMatrix 10005710 f   Newton.obj
 0001:00004770       _NewtonSceneSetProxyUserData 10005770 f   Newton.obj
 0001:000047b0       _NewtonSceneGetProxyUserData 100057b0 f   Newton.obj
 0001:000047e0       _NewtonSceneGetFirstProxy  100057e0 f   Newton.obj
 0001:00004800       _NewtonSceneGetNextProxy   10005800 f   Newton.obj
 0001:00004830       _NewtonSceneCollisionOptimize 10005830 f   Newton.obj
 0001:00004880       _NewtonCollisionPointDistance 10005880 f   Newton.obj
 0001:000048b0       _NewtonCollisionClosestPoint 100058b0 f   Newton.obj
 0001:000048f0       _NewtonCollisionCollide    100058f0 f   Newton.obj
 0001:00004930       _NewtonCollisionCollideContinue 10005930 f   Newton.obj
 0001:00004990       _NewtonCollisionSupportVertex 10005990 f   Newton.obj
 0001:00004ab0       _NewtonCollisionRayCast    10005ab0 f   Newton.obj
 0001:00004c10       _NewtonCollisionCalculateAABB 10005c10 f   Newton.obj
 0001:00004cb0       _NewtonCollisionForEachPolygonDo 10005cb0 f   Newton.obj
 0001:00004d00       _NewtonCollisionMakeUnique 10005d00 f   Newton.obj
 0001:00004d30       _NewtonAddCollisionReference 10005d30 f   Newton.obj
 0001:00004d50       _NewtonReleaseCollision    10005d50 f   Newton.obj
 0001:00004d80       _NewtonCollisionSerialize  10005d80 f   Newton.obj
 0001:00004db0       _NewtonCreateCollisionFromSerialization 10005db0 f   Newton.obj
 0001:00004dd0       _NewtonCollisionGetInfo    10005dd0 f   Newton.obj
 0001:00004df0       _NewtonGetEulerAngle       10005df0 f   Newton.obj
 0001:00004e40       _NewtonSetEulerAngle       10005e40 f   Newton.obj
 0001:00004fa0       _NewtonCalculateSpringDamperAcceleration 10005fa0 f   Newton.obj
 0001:00005030       _NewtonCreateBody          10006030 f   Newton.obj
 0001:000050a0       _NewtonDestroyBody         100060a0 f   Newton.obj
 0001:000050d0       _NewtonBodySetUserData     100060d0 f   Newton.obj
 0001:000050f0       _NewtonBodyGetUserData     100060f0 f   Newton.obj
 0001:00005110       _NewtonBodyGetWorld        10006110 f   Newton.obj
 0001:00005130       _NewtonBodySetTransformCallback 10006130 f   Newton.obj
 0001:00005150       _NewtonBodyGetTransformCallback 10006150 f   Newton.obj
 0001:00005170       _NewtonBodySetForceAndTorqueCallback 10006170 f   Newton.obj
 0001:00005190       _NewtonBodyGetForceAndTorqueCallback 10006190 f   Newton.obj
 0001:000051b0       _NewtonBodySetDestructorCallback 100061b0 f   Newton.obj
 0001:000051d0       _NewtonBodySetMassMatrix   100061d0 f   Newton.obj
 0001:00005350       _NewtonBodyGetMassMatrix   10006350 f   Newton.obj
 0001:000053f0       _NewtonBodyGetInvMass      100063f0 f   Newton.obj
 0001:00005480       _NewtonBodySetMatrix       10006480 f   Newton.obj
 0001:000054e0       _NewtonBodySetMatrixRecursive 100064e0 f   Newton.obj
 0001:00005540       _NewtonBodyGetMatrix       10006540 f   Newton.obj
 0001:00005570       _NewtonBodyGetRotation     10006570 f   Newton.obj
 0001:000055b0       _NewtonBodySetForce        100065b0 f   Newton.obj
 0001:00005610       _NewtonBodyAddForce        10006610 f   Newton.obj
 0001:00005670       _NewtonBodyGetForceAcc     10006670 f   Newton.obj
 0001:000056d0       _NewtonBodyGetForce        100066d0 f   Newton.obj
 0001:00005730       _NewtonBodyCalculateInverseDynamicsForce 10006730 f   Newton.obj
 0001:000057d0       _NewtonBodySetTorque       100067d0 f   Newton.obj
 0001:00005830       _NewtonBodyAddTorque       10006830 f   Newton.obj
 0001:00005890       _NewtonBodyGetTorque       10006890 f   Newton.obj
 0001:000058f0       _NewtonBodyGetTorqueAcc    100068f0 f   Newton.obj
 0001:00005950       _NewtonBodySetCentreOfMass 10006950 f   Newton.obj
 0001:000059b0       _NewtonBodyGetCentreOfMass 100069b0 f   Newton.obj
 0001:00005a00       _NewtonBodyGetFirstJoint   10006a00 f   Newton.obj
 0001:00005a20       _NewtonBodyGetNextJoint    10006a20 f   Newton.obj
 0001:00005a40       _NewtonBodyGetFirstContactJoint 10006a40 f   Newton.obj
 0001:00005a60       _NewtonBodyGetNextContactJoint 10006a60 f   Newton.obj
 0001:00005a80       _NewtonContactJointGetContactCount 10006a80 f   Newton.obj
 0001:00005ac0       _NewtonContactJointGetFirstContact 10006ac0 f   Newton.obj
 0001:00005b00       _NewtonContactJointGetNextContact 10006b00 f   Newton.obj
 0001:00005b40       _NewtonContactJointRemoveContact 10006b40 f   Newton.obj
 0001:00005b90       _NewtonContactGetMaterial  10006b90 f   Newton.obj
 0001:00005bb0       _NewtonBodyAddBuoyancyForce 10006bb0 f   Newton.obj
 0001:00005c30       _NewtonBodySetCollision    10006c30 f   Newton.obj
 0001:00005c60       _NewtonBodyGetCollision    10006c60 f   Newton.obj
 0001:00005c80       _NewtonBodySetMaterialGroupID 10006c80 f   Newton.obj
 0001:00005ca0       _NewtonBodyGetMaterialGroupID 10006ca0 f   Newton.obj
 0001:00005cc0       _NewtonBodySetContinuousCollisionMode 10006cc0 f   Newton.obj
 0001:00005cf0       _NewtonBodyGetContinuousCollisionMode 10006cf0 f   Newton.obj
 0001:00005d10       _NewtonBodySetJointRecursiveCollision 10006d10 f   Newton.obj
 0001:00005d40       _NewtonBodyGetJointRecursiveCollision 10006d40 f   Newton.obj
 0001:00005d60       _NewtonBodyGetFreezeState  10006d60 f   Newton.obj
 0001:00005d80       _NewtonBodySetFreezeState  10006d80 f   Newton.obj
 0001:00005db0       _NewtonBodySetAutoSleep    10006db0 f   Newton.obj
 0001:00005de0       _NewtonBodyGetAutoSleep    10006de0 f   Newton.obj
 0001:00005e00       _NewtonBodyGetSleepState   10006e00 f   Newton.obj
 0001:00005e20       _NewtonBodyGetAABB         10006e20 f   Newton.obj
 0001:00005ea0       _NewtonBodySetVelocity     10006ea0 f   Newton.obj
 0001:00005f00       _NewtonBodyGetVelocity     10006f00 f   Newton.obj
 0001:00005f60       _NewtonBodySetOmega        10006f60 f   Newton.obj
 0001:00005fc0       _NewtonBodyGetOmega        10006fc0 f   Newton.obj
 0001:00006020       _NewtonBodySetLinearDamping 10007020 f   Newton.obj
 0001:00006040       _NewtonBodyGetLinearDamping 10007040 f   Newton.obj
 0001:00006060       _NewtonBodySetAngularDamping 10007060 f   Newton.obj
 0001:000060c0       _NewtonBodyGetAngularDamping 100070c0 f   Newton.obj
 0001:00006110       _NewtonBodyAddImpulse      10007110 f   Newton.obj
 0001:00006170       _NewtonBodyApplyImpulseArray 10007170 f   Newton.obj
 0001:000061b0       _NewtonConstraintCreateBall 100071b0 f   Newton.obj
 0001:00006230       _NewtonBallSetConeLimits   10007230 f   Newton.obj
 0001:00006570       _NewtonBallSetUserCallback 10007570 f   Newton.obj
 0001:00006590       _NewtonBallGetJointAngle   10007590 f   Newton.obj
 0001:000065e0       _NewtonBallGetJointOmega   100075e0 f   Newton.obj
 0001:00006630       _NewtonBallGetJointForce   10007630 f   Newton.obj
 0001:00006680       _NewtonConstraintCreateHinge 10007680 f   Newton.obj
 0001:00006720       _NewtonHingeSetUserCallback 10007720 f   Newton.obj
 0001:00006740       _NewtonHingeGetJointAngle  10007740 f   Newton.obj
 0001:00006760       _NewtonHingeGetJointOmega  10007760 f   Newton.obj
 0001:00006780       _NewtonHingeCalculateStopAlpha 10007780 f   Newton.obj
 0001:000067b0       _NewtonHingeGetJointForce  100077b0 f   Newton.obj
 0001:00006800       _NewtonConstraintCreateSlider 10007800 f   Newton.obj
 0001:000068a0       _NewtonSliderSetUserCallback 100078a0 f   Newton.obj
 0001:000068c0       _NewtonSliderGetJointPosit 100078c0 f   Newton.obj
 0001:000068e0       _NewtonSliderGetJointVeloc 100078e0 f   Newton.obj
 0001:00006900       _NewtonSliderCalculateStopAccel 10007900 f   Newton.obj
 0001:00006930       _NewtonSliderGetJointForce 10007930 f   Newton.obj
 0001:00006980       _NewtonConstraintCreateCorkscrew 10007980 f   Newton.obj
 0001:00006a20       _NewtonCorkscrewSetUserCallback 10007a20 f   Newton.obj
 0001:00006a40       _NewtonCorkscrewGetJointPosit 10007a40 f   Newton.obj
 0001:00006a60       _NewtonCorkscrewGetJointVeloc 10007a60 f   Newton.obj
 0001:00006a80       _NewtonCorkscrewGetJointAngle 10007a80 f   Newton.obj
 0001:00006aa0       _NewtonCorkscrewGetJointOmega 10007aa0 f   Newton.obj
 0001:00006ac0       _NewtonCorkscrewCalculateStopAlpha 10007ac0 f   Newton.obj
 0001:00006af0       _NewtonCorkscrewCalculateStopAccel 10007af0 f   Newton.obj
 0001:00006b20       _NewtonCorkscrewGetJointForce 10007b20 f   Newton.obj
 0001:00006b70       _NewtonConstraintCreateUniversal 10007b70 f   Newton.obj
 0001:00006c40       _NewtonUniversalSetUserCallback 10007c40 f   Newton.obj
 0001:00006c60       _NewtonUniversalGetJointAngle0 10007c60 f   Newton.obj
 0001:00006c80       _NewtonUniversalGetJointAngle1 10007c80 f   Newton.obj
 0001:00006ca0       _NewtonUniversalGetJointOmega0 10007ca0 f   Newton.obj
 0001:00006cc0       _NewtonUniversalGetJointOmega1 10007cc0 f   Newton.obj
 0001:00006ce0       _NewtonUniversalCalculateStopAlpha0 10007ce0 f   Newton.obj
 0001:00006d10       _NewtonUniversalCalculateStopAlpha1 10007d10 f   Newton.obj
 0001:00006d40       _NewtonUniversalGetJointForce 10007d40 f   Newton.obj
 0001:00006d90       _NewtonConstraintCreateUpVector 10007d90 f   Newton.obj
 0001:00006e00       _NewtonUpVectorGetPin      10007e00 f   Newton.obj
 0001:00006e50       _NewtonUpVectorSetPin      10007e50 f   Newton.obj
 0001:00006eb0       _NewtonConstraintCreateUserJoint 10007eb0 f   Newton.obj
 0001:00006f20       _NewtonUserJointAddLinearRow 10007f20 f   Newton.obj
 0001:00007090       _NewtonUserJointAddAngularRow 10008090 f   Newton.obj
 0001:000071a0       _NewtonUserJointAddGeneralRow 100081a0 f   Newton.obj
 0001:000071c0       _NewtonUserJointSetRowMaximumFriction 100081c0 f   Newton.obj
 0001:000071e0       _NewtonUserJointSetRowMinimumFriction 100081e0 f   Newton.obj
 0001:00007200       _NewtonUserJointSetRowAcceleration 10008200 f   Newton.obj
 0001:00007220       _NewtonUserJointSetRowSpringDamperAcceleration 10008220 f   Newton.obj
 0001:00007250       _NewtonUserJointSetRowStiffness 10008250 f   Newton.obj
 0001:00007270       _NewtonUserJointGetRowForce 10008270 f   Newton.obj
 0001:00007290       _NewtonUserJointSetFeedbackCollectorCallback 10008290 f   Newton.obj
 0001:000072b0       _NewtonJointSetUserData    100082b0 f   Newton.obj
 0001:000072d0       _NewtonJointGetUserData    100082d0 f   Newton.obj
 0001:000072f0       _NewtonJointGetInfo        100082f0 f   Newton.obj
 0001:00007310       _NewtonJointGetBody0       10008310 f   Newton.obj
 0001:00007330       _NewtonJointGetBody1       10008330 f   Newton.obj
 0001:00007370       _NewtonJointSetCollisionState 10008370 f   Newton.obj
 0001:000073a0       _NewtonJointGetCollisionState 100083a0 f   Newton.obj
 0001:000073c0       _NewtonJointSetStiffness   100083c0 f   Newton.obj
 0001:000073f0       _NewtonJointGetStiffness   100083f0 f   Newton.obj
 0001:00007410       _NewtonJointSetDestructor  10008410 f   Newton.obj
 0001:00007430       _NewtonDestroyJoint        10008430 f   Newton.obj
 0001:00007450       _NewtonMeshCreate          10008450 f   Newton.obj
 0001:000074b0       _NewtonMeshCreateFromMesh  100084b0 f   Newton.obj
 0001:00007500       _NewtonMeshCreateFromCollision 10008500 f   Newton.obj
 0001:00007550       _NewtonMeshConvexHull      10008550 f   Newton.obj
 0001:00007680       _NewtonMeshDestroy         10008680 f   Newton.obj
 0001:000076c0       _NewtonMesApplyTransform   100086c0 f   Newton.obj
 0001:00007710       _NewtonMeshCalculateOOBB   10008710 f   Newton.obj
 0001:00007780       _NewtonMeshCalculateVertexNormals 10008780 f   Newton.obj
 0001:000077a0       _NewtonMeshApplySphericalMapping 100087a0 f   Newton.obj
 0001:000077c0       _NewtonMeshApplyBoxMapping 100087c0 f   Newton.obj
 0001:000077f0       _NewtonMeshApplyCylindricalMapping 100087f0 f   Newton.obj
 0001:00007810       _NewtonMeshTriangulate     10008810 f   Newton.obj
 0001:00007820       _NewtonMeshPolygonize      10008820 f   Newton.obj
 0001:00007830       _NewtonMeshIsOpenMesh      10008830 f   Newton.obj
 0001:00007850       _NewtonMeshFixTJoints      10008850 f   Newton.obj
 0001:00007860       _NewtonMeshClip            10008860 f   Newton.obj
 0001:000078a0       _NewtonMeshPlaneClip       100088a0 f   Newton.obj
 0001:000078f0       _NewtonMeshApproximateConvexDecomposition 100088f0 f   Newton.obj
 0001:00007910       _NewtonMeshTetrahedralization 10008910 f   Newton.obj
 0001:00007930       _NewtonMeshVoronoiDecomposition 10008930 f   Newton.obj
 0001:00007960       _NewtonMeshUnion           10008960 f   Newton.obj
 0001:00007980       _NewtonMeshDifference      10008980 f   Newton.obj
 0001:000079a0       _NewtonMeshIntersection    100089a0 f   Newton.obj
 0001:000079c0       _NewtonRemoveUnusedVertices 100089c0 f   Newton.obj
 0001:000079e0       _NewtonMeshBeginFace       100089e0 f   Newton.obj
 0001:00007a00       _NewtonMeshAddFace         10008a00 f   Newton.obj
 0001:00007a30       _NewtonMeshEndFace         10008a30 f   Newton.obj
 0001:00007a60       _NewtonMeshBuildFromVertexListIndexList 10008a60 f   Newton.obj
 0001:00007ac0       _NewtonMeshGetVertexCount  10008ac0 f   Newton.obj
 0001:00007ae0       _NewtonMeshGetVertexStrideInByte 10008ae0 f   Newton.obj
 0001:00007b00       _NewtonMeshGetVertexArray  10008b00 f   Newton.obj
 0001:00007b20       _NewtonMeshGetPointCount   10008b20 f   Newton.obj
 0001:00007b40       _NewtonMeshGetPointStrideInByte 10008b40 f   Newton.obj
 0001:00007b60       _NewtonMeshGetPointArray   10008b60 f   Newton.obj
 0001:00007b80       _NewtonMeshGetNormalArray  10008b80 f   Newton.obj
 0001:00007ba0       _NewtonMeshGetUV0Array     10008ba0 f   Newton.obj
 0001:00007bc0       _NewtonMeshGetUV1Array     10008bc0 f   Newton.obj
 0001:00007be0       _NewtonMeshGetVertexStreams 10008be0 f   Newton.obj
 0001:00007c20       _NewtonMeshGetIndirectVertexStreams 10008c20 f   Newton.obj
 0001:00007c50       _NewtonMeshBeginHandle     10008c50 f   Newton.obj
 0001:00007c70       _NewtonMeshEndHandle       10008c70 f   Newton.obj
 0001:00007c90       _NewtonMeshFirstMaterial   10008c90 f   Newton.obj
 0001:00007cb0       _NewtonMeshNextMaterial    10008cb0 f   Newton.obj
 0001:00007cd0       _NewtonMeshMaterialGetMaterial 10008cd0 f   Newton.obj
 0001:00007cf0       _NewtonMeshMaterialGetIndexCount 10008cf0 f   Newton.obj
 0001:00007d10       _NewtonMeshMaterialGetIndexStream 10008d10 f   Newton.obj
 0001:00007d40       _NewtonMeshMaterialGetIndexStreamShort 10008d40 f   Newton.obj
 0001:00007d70       _NewtonMeshCreateFirstSingleSegment 10008d70 f   Newton.obj
 0001:00007e20       _NewtonMeshCreateNextSingleSegment 10008e20 f   Newton.obj
 0001:00007ef0       _NewtonMeshCreateFirstLayer 10008ef0 f   Newton.obj
 0001:00007f10       _NewtonMeshCreateNextLayer 10008f10 f   Newton.obj
 0001:00007f30       _NewtonMeshGetTotalFaceCount 10008f30 f   Newton.obj
 0001:00007f40       _NewtonMeshGetTotalIndexCount 10008f40 f   Newton.obj
 0001:00007f50       _NewtonMeshGetFaces        10008f50 f   Newton.obj
 0001:00007f70       _NewtonMeshGetFirstVertex  10008f70 f   Newton.obj
 0001:00007f80       _NewtonMeshGetNextVertex   10008f80 f   Newton.obj
 0001:00007fa0       _NewtonMeshGetVertexIndex  10008fa0 f   Newton.obj
 0001:00007fc0       _NewtonMeshGetFirstPoint   10008fc0 f   Newton.obj
 0001:00007fd0       _NewtonMeshGetNextPoint    10008fd0 f   Newton.obj
 0001:00007ff0       _NewtonMeshGetPointIndex   10008ff0 f   Newton.obj
 0001:00008010       _NewtonMeshGetVertexIndexFromPoint 10009010 f   Newton.obj
 0001:00008030       _NewtonMeshGetFirstEdge    10009030 f   Newton.obj
 0001:00008040       _NewtonMeshGetNextEdge     10009040 f   Newton.obj
 0001:00008060       _NewtonMeshGetEdgeIndices  10009060 f   Newton.obj
 0001:00008080       _NewtonMeshGetFirstFace    10009080 f   Newton.obj
 0001:00008090       _NewtonMeshGetNextFace     10009090 f   Newton.obj
 0001:000080b0       _NewtonMeshIsFaceOpen      100090b0 f   Newton.obj
 0001:000080d0       _NewtonMeshGetFaceIndexCount 100090d0 f   Newton.obj
 0001:000080f0       _NewtonMeshGetFaceMaterial 100090f0 f   Newton.obj
 0001:00008110       _NewtonMeshGetFaceIndices  10009110 f   Newton.obj
 0001:00008130       _NewtonMeshGetFacePointIndices 10009130 f   Newton.obj
 0001:00009b30       ??2Newton@@SAPAXIQAVdgMemoryAllocator@@@Z 1000ab30 f i Newton.obj
 0001:00009b50       ??_GdgMemoryAllocator@@QAEPAXI@Z 1000ab50 f i Newton.obj
 0001:00009b90       ?sqrt@@YAMM@Z              1000ab90 f i Newton.obj
 0001:00009bb0       _sqrtf                     1000abb0 f i Newton.obj
 0001:00009be0       ?dgAbsf@@YAMM@Z            1000abe0 f i Newton.obj
 0001:00009c20       ?dgCeil@@YAMM@Z            1000ac20 f i Newton.obj
 0001:00009cc0       ?ceil@@YAMM@Z              1000acc0 f i Newton.obj
 0001:00009ce0       _ceilf                     1000ace0 f i Newton.obj
 0001:00009d10       ?dgFloor@@YAMM@Z           1000ad10 f i Newton.obj
 0001:00009d90       ?floor@@YAMM@Z             1000ad90 f i Newton.obj
 0001:00009db0       _floorf                    1000adb0 f i Newton.obj
 0001:00009de0       ?dgFastInt@@YAHM@Z         1000ade0 f i Newton.obj
 0001:00009e20       ??0dgVector@@QAE@XZ        1000ae20 f i Newton.obj
 0001:00009e40       ??0dgVector@@QAE@ABV?$dgTemplateVector@M@@@Z 1000ae40 f i Newton.obj
 0001:00009ff0       ??0dgVector@@QAE@MMMM@Z    1000aff0 f i Newton.obj
 0001:0000a040       ??0dgContactPoint@@QAE@XZ  1000b040 f i Newton.obj
 0001:0000a070       ??0dgMatrix@@QAE@ABVdgVector@@@Z 1000b070 f i Newton.obj
 0001:0000a520       ??AdgMatrix@@QAEAAVdgVector@@H@Z 1000b520 f i Newton.obj
 0001:0000a5a0       ??0dgVector@@QAE@PBM@Z     1000b5a0 f i Newton.obj
 0001:0000a740       ?RotateVector@dgMatrix@@QBE?AVdgVector@@ABV2@@Z 1000b740 f i Newton.obj
 0001:0000a830       ?UnrotateVector@dgMatrix@@QBE?AVdgVector@@ABV2@@Z 1000b830 f i Newton.obj
 0001:0000a8a0       ?TransformVector@dgMatrix@@QBE?AVdgVector@@ABV2@@Z 1000b8a0 f i Newton.obj
 0001:0000a9a0       ?UntransformVector@dgMatrix@@QBE?AVdgVector@@ABV2@@Z 1000b9a0 f i Newton.obj
 0001:0000aa10       ?dgPitchMatrix@@YA?AVdgMatrix@@M@Z 1000ba10 f i Newton.obj
 0001:0000ab20       ?cos@@YAMM@Z               1000bb20 f i Newton.obj
 0001:0000ab40       _cosf                      1000bb40 f i Newton.obj
 0001:0000ab70       ?sin@@YAMM@Z               1000bb70 f i Newton.obj
 0001:0000ab90       _sinf                      1000bb90 f i Newton.obj
 0001:0000abc0       ??0dgMatrix@@QAE@ABVdgVector@@000@Z 1000bbc0 f i Newton.obj
 0001:0000ac70       ?dgYawMatrix@@YA?AVdgMatrix@@M@Z 1000bc70 f i Newton.obj
 0001:0000ad80       ?dgRollMatrix@@YA?AVdgMatrix@@M@Z 1000bd80 f i Newton.obj
 0001:0000ae90       ??0dgBigVector@@QAE@XZ     1000be90 f i Newton.obj
 0001:0000aeb0       ?BeginConectedSurface@dgPolyhedra@@QBEXXZ 1000beb0 f i Newton.obj
 0001:0000aed0       ?IncLRU@dgPolyhedra@@QBEHXZ 1000bed0 f i Newton.obj
 0001:0000af40       ?EndConectedSurface@dgPolyhedra@@QBEXXZ 1000bf40 f i Newton.obj
 0001:0000af50       ?GetTagId@dgPolygonSoupDatabase@@QBEIPBH@Z 1000bf50 f i Newton.obj
 0001:0000af70       ?SetTagId@dgPolygonSoupDatabase@@QBEXPBHI@Z 1000bf70 f i Newton.obj
 0001:0000afa0       ??2?$dgTree@VdgEdge@@_J@@SAPAXIQAVdgMemoryAllocator@@@Z 1000bfa0 f i Newton.obj
 0001:0000afc0       ?GetInfo@dgListNode@?$dgList@V?$dgGraphNode@VdgDebriNodeInfo@dgCollisionCompoundBreakable@@VdgSharedNodeMesh@2@@@@@QAEAAV?$dgGraphNode@VdgDebriNodeInfo@dgCollisionCompoundBreakable@@VdgSharedNodeMesh@2@@@XZ 1000bfc0 f i Newton.obj
 0001:0000afe0       ?GetInfo@dgListNode@?$dgList@VdgBodyMasterListCell@@@@QAEAAVdgBodyMasterListCell@@XZ 1000bfe0 f i Newton.obj
 0001:0000b000       ?GetInfo@dgListNode@?$dgList@VdgBodyMasterListRow@@@@QAEAAVdgBodyMasterListRow@@XZ 1000c000 f i Newton.obj
 0001:0000b020       ?GetInfo@dgListNode@?$dgList@VdgContactMaterial@@@@QAEAAVdgContactMaterial@@XZ 1000c020 f i Newton.obj
 0001:0000b040       ?GetInfo@dgListNode@?$dgList@PAVdgProxy@dgCollisionScene@@@@QAEAAPAVdgProxy@dgCollisionScene@@XZ 1000c040 f i Newton.obj
 0001:0000b060       ?GetInfo@dgListNode@?$dgList@VdgSubMesh@dgCollisionCompoundBreakable@@@@QAEAAVdgSubMesh@dgCollisionCompoundBreakable@@XZ 1000c060 f i Newton.obj
 0001:0000b080       ?GetInfo@dgListNode@?$dgList@PAUNewtonCollision@@@@QAEAAPAUNewtonCollision@@XZ 1000c080 f i Newton.obj
 0001:0000b0a0       ?GetNext@dgListNode@?$dgList@PAUNewtonCollision@@@@QBEPAV12@XZ 1000c0a0 f i Newton.obj
 0001:0000b0c0       ?GetAllocator@?$dgTree@VdgEdge@@_J@@QBEPAVdgMemoryAllocator@@XZ 1000c0c0 f i Newton.obj
 0001:0000b0e0       ?GetFirst@?$dgList@VdgBodyMasterListCell@@@@QBEPAVdgListNode@1@XZ 1000c0e0 f i Newton.obj
 0001:0000b100       ?GetFirst@?$dgList@VdgBodyMasterListRow@@@@QBEPAVdgListNode@1@XZ 1000c100 f i Newton.obj
 0001:0000b120       ?GetCount@?$dgList@VdgContactMaterial@@@@QBEHXZ 1000c120 f i Newton.obj
 0001:0000b140       ?GetFirst@?$dgList@VdgContactMaterial@@@@QBEPAVdgListNode@1@XZ 1000c140 f i Newton.obj
 0001:0000b160       ?Remove@?$dgList@VdgContactMaterial@@@@QAEXQAVdgListNode@1@@Z 1000c160 f i Newton.obj
 0001:0000b1c0       ?GetFirst@?$dgList@VdgSubMesh@dgCollisionCompoundBreakable@@@@QBEPAVdgListNode@1@XZ 1000c1c0 f i Newton.obj
 0001:0000b1e0       ?GetBody@dgBodyMasterListRow@@QBEPAVdgBody@@XZ 1000c1e0 f i Newton.obj
 0001:0000b200       ??0?$dgTree@PAVdgConstraint@@PAV1@@@QAE@QAVdgMemoryAllocator@@@Z 1000c200 f i Newton.obj
 0001:0000b250       ??1?$dgTree@PAVdgConstraint@@PAV1@@@UAE@XZ 1000c250 f i Newton.obj
 0001:0000b280       ?Find@?$dgTree@PAVdgConstraint@@PAV1@@@QBEPAVdgTreeNode@1@PAVdgConstraint@@@Z 1000c280 f i Newton.obj
 0001:0000b3f0       ?SetAutoSleep@dgBody@@QAEX_N@Z 1000c3f0 f i Newton.obj
 0001:0000b460       ?GetAutoSleep@dgBody@@QBE_NXZ 1000c460 f i Newton.obj
 0001:0000b480       ?GetSleepState@dgBody@@QBE_NXZ 1000c480 f i Newton.obj
 0001:0000b4a0       ?GetCollisionWithLinkedBodies@dgBody@@QBE_NXZ 1000c4a0 f i Newton.obj
 0001:0000b4c0       ?Insert@?$dgTree@PAVdgConstraint@@PAV1@@@QAEPAVdgTreeNode@1@ABQAVdgConstraint@@PAV3@@Z 1000c4c0 f i Newton.obj
 0001:0000b510       ?SetCollisionWithLinkedBodies@dgBody@@QAEX_N@Z 1000c510 f i Newton.obj
 0001:0000b550       ??$GetMax@M@@YAMMM@Z       1000c550 f i Newton.obj
 0001:0000b580       ?SetUserData@dgBody@@QAEXQAX@Z 1000c580 f i Newton.obj
 0001:0000b5a0       ??$GetMin@M@@YAMMM@Z       1000c5a0 f i Newton.obj
 0001:0000b5d0       ?GetUserData@dgBody@@QBEPAXXZ 1000c5d0 f i Newton.obj
 0001:0000b5f0       ?GetWorld@dgBody@@QBEPAVdgWorld@@XZ 1000c5f0 f i Newton.obj
 0001:0000b610       ??0?$dgList@PAUNewtonCollision@@@@QAE@QAVdgMemoryAllocator@@@Z 1000c610 f i Newton.obj
 0001:0000b660       ?GetGroupID@dgBody@@QBEIXZ 1000c660 f i Newton.obj
 0001:0000b680       ?SetGroupID@dgBody@@QAEXI@Z 1000c680 f i Newton.obj
 0001:0000b6a0       ??1?$dgList@PAUNewtonCollision@@@@UAE@XZ 1000c6a0 f i Newton.obj
 0001:0000b6d0       ?SetDestructorCallback@dgBody@@QAEXP6AXAAV1@@Z@Z 1000c6d0 f i Newton.obj
 0001:0000b6f0       ?GetCount@?$dgList@PAUNewtonCollision@@@@QBEHXZ 1000c6f0 f i Newton.obj
 0001:0000b710       ?SetExtForceAndTorqueCallback@dgBody@@QAEXP6AXAAV1@MH@Z@Z 1000c710 f i Newton.obj
 0001:0000b730       ?GetFirst@?$dgList@PAUNewtonCollision@@@@QBEPAVdgListNode@1@XZ 1000c730 f i Newton.obj
 0001:0000b750       ?GetExtForceAndTorqueCallback@dgBody@@QBEP6AXAAV1@MH@ZXZ 1000c750 f i Newton.obj
 0001:0000b770       ?Append@?$dgList@PAUNewtonCollision@@@@QAEPAVdgListNode@1@ABQAUNewtonCollision@@@Z 1000c770 f i Newton.obj
 0001:0000b860       ?SetMatrixUpdateCallback@dgBody@@QAEXP6AXABV1@ABVdgMatrix@@H@Z@Z 1000c860 f i Newton.obj
 0001:0000b880       ?GetMatrixUpdateCallback@dgBody@@QAEP6AXABV1@ABVdgMatrix@@H@ZXZ 1000c880 f i Newton.obj
 0001:0000b8a0       ?SetOmega@dgBody@@QAEXABVdgVector@@@Z 1000c8a0 f i Newton.obj
 0001:0000b8e0       ?SetVelocity@dgBody@@QAEXABVdgVector@@@Z 1000c8e0 f i Newton.obj
 0001:0000b920       ?SetCentreOfMass@dgBody@@QAEXABVdgVector@@@Z 1000c920 f i Newton.obj
 0001:0000b9e0       ??0?$dgStack@PAUNewtonCollision@@@@QAE@H@Z 1000c9e0 f i Newton.obj
 0001:0000ba20       ??0dgStackBase@@IAE@H@Z    1000ca20 f i Newton.obj
 0001:0000ba50       ??1?$dgStack@PAUNewtonCollision@@@@QAE@XZ 1000ca50 f i Newton.obj
 0001:0000ba70       ??1dgStackBase@@IAE@XZ     1000ca70 f i Newton.obj
 0001:0000ba90       ??A?$dgStack@PAUNewtonCollision@@@@QAEAAPAUNewtonCollision@@H@Z 1000ca90 f i Newton.obj
 0001:0000bb30       ?AddForce@dgBody@@QAEXABVdgVector@@@Z 1000cb30 f i Newton.obj
 0001:0000bba0       ??0?$dgStack@VdgBigVector@@@@QAE@H@Z 1000cba0 f i Newton.obj
 0001:0000bbe0       ?AddTorque@dgBody@@QAEXABVdgVector@@@Z 1000cbe0 f i Newton.obj
 0001:0000bc50       ??1?$dgStack@VdgBigVector@@@@QAE@XZ 1000cc50 f i Newton.obj
 0001:0000bc70       ??A?$dgStack@VdgBigVector@@@@QAEAAVdgBigVector@@H@Z 1000cc70 f i Newton.obj
 0001:0000bd10       ?GetAparentMass@dgBody@@QBEABVdgVector@@XZ 1000cd10 f i Newton.obj
 0001:0000bd30       ?GetOmega@dgBody@@QBEABVdgVector@@XZ 1000cd30 f i Newton.obj
 0001:0000bd50       ?GetVelocity@dgBody@@QBEABVdgVector@@XZ 1000cd50 f i Newton.obj
 0001:0000bd70       ?GetForce@dgBody@@QBEABVdgVector@@XZ 1000cd70 f i Newton.obj
 0001:0000bd90       ?GetTorque@dgBody@@QBEABVdgVector@@XZ 1000cd90 f i Newton.obj
 0001:0000bdb0       ?GetNetForce@dgBody@@QBEABVdgVector@@XZ 1000cdb0 f i Newton.obj
 0001:0000bdd0       ??_G?$dgTree@PAVdgConstraint@@PAV1@@@UAEPAXI@Z 1000cdd0 f i Newton.obj
 0001:0000bdd0       ??_E?$dgTree@PAVdgConstraint@@PAV1@@@UAEPAXI@Z 1000cdd0 f i Newton.obj
 0001:0000be10       ?GetNetTorque@dgBody@@QBEABVdgVector@@XZ 1000ce10 f i Newton.obj
 0001:0000be30       ??_G?$dgList@PAUNewtonCollision@@@@UAEPAXI@Z 1000ce30 f i Newton.obj
 0001:0000be30       ??_E?$dgList@PAUNewtonCollision@@@@UAEPAXI@Z 1000ce30 f i Newton.obj
 0001:0000be70       ?GetCollision@dgBody@@QBEPAVdgCollision@@XZ 1000ce70 f i Newton.obj
 0001:0000be90       ?GetPosition@dgBody@@QBEABVdgVector@@XZ 1000ce90 f i Newton.obj
 0001:0000beb0       ?GetRotation@dgBody@@QBEABVdgQuaternion@@XZ 1000ceb0 f i Newton.obj
 0001:0000bed0       ??3?$dgTree@PAVdgConstraint@@PAV1@@@SAXQAX@Z 1000ced0 f i Newton.obj
 0001:0000bef0       ?GetMatrix@dgBody@@QBEABVdgMatrix@@XZ 1000cef0 f i Newton.obj
 0001:0000bf10       ??3?$dgList@PAUNewtonCollision@@@@SAXQAX@Z 1000cf10 f i Newton.obj
 0001:0000bf30       ?GetCentreOfMass@dgBody@@QBE?AVdgVector@@XZ 1000cf30 f i Newton.obj
 0001:0000bf70       ??2dgListNode@?$dgList@PAUNewtonCollision@@@@CAPAXIQAVdgMemoryAllocator@@@Z 1000cf70 f i Newton.obj
 0001:0000bf90       ?GetAABB@dgBody@@QBEXAAVdgVector@@0@Z 1000cf90 f i Newton.obj
 0001:0000c010       ??0dgListNode@?$dgList@PAUNewtonCollision@@@@AAE@ABQAUNewtonCollision@@QAV01@1@Z 1000d010 f i Newton.obj
 0001:0000c090       ??_EdgListNode@?$dgList@PAUNewtonCollision@@@@EAEPAXI@Z 1000d090 f i Newton.obj
 0001:0000c090       ??_GdgListNode@?$dgList@PAUNewtonCollision@@@@EAEPAXI@Z 1000d090 f i Newton.obj
 0001:0000c0d0       ??1dgListNode@?$dgList@PAUNewtonCollision@@@@EAE@XZ 1000d0d0 f i Newton.obj
 0001:0000c0f0       ??3dgListNode@?$dgList@PAUNewtonCollision@@@@CAXQAX@Z 1000d0f0 f i Newton.obj
 0001:0000c110       ?GetLeft@dgTreeNode@?$dgTree@PAVdgConstraint@@PAV1@@@ABEPAV12@XZ 1000d110 f i Newton.obj
 0001:0000c130       ?GetRight@dgTreeNode@?$dgTree@PAVdgConstraint@@PAV1@@@ABEPAV12@XZ 1000d130 f i Newton.obj
 0001:0000c150       ?SetContinuesCollisionMode@dgBody@@QAEX_N@Z 1000d150 f i Newton.obj
 0001:0000c190       ?GetContinuesCollisionMode@dgBody@@QBE_NXZ 1000d190 f i Newton.obj
 0001:0000c1b0       ?Unlink@?$dgList@VdgContactMaterial@@@@QAEXQAVdgListNode@1@@Z 1000d1b0 f i Newton.obj
 0001:0000c290       ?GetLinearDamping@dgBody@@QBEMXZ 1000d290 f i Newton.obj
 0001:0000c2d0       ?GetAngularDamping@dgBody@@QBE?AVdgVector@@XZ 1000d2d0 f i Newton.obj
 0001:0000c370       ?SetLinearDamping@dgBody@@QAEXM@Z 1000d370 f i Newton.obj
 0001:0000c3d0       ?Insert@?$dgTree@PAVdgConstraint@@PAV1@@@QAEPAVdgTreeNode@1@ABQAVdgConstraint@@PAV3@AA_N@Z 1000d3d0 f i Newton.obj
 0001:0000c650       ??2dgRedBackNode@@SAPAXIQAVdgMemoryAllocator@@@Z 1000d650 f i Newton.obj
 0001:0000c670       ?SetAngularDamping@dgBody@@QAEXABVdgVector@@@Z 1000d670 f i Newton.obj
 0001:0000c750       ?SetForce@dgBody@@QAEXABVdgVector@@@Z 1000d750 f i Newton.obj
 0001:0000c880       ?RemoveAll@?$dgTree@PAVdgConstraint@@PAV1@@@QAEXXZ 1000d880 f i Newton.obj
 0001:0000c8c0       ?CompareKeys@?$dgTree@PAVdgConstraint@@PAV1@@@ABEHABQAVdgConstraint@@0@Z 1000d8c0 f i Newton.obj
 0001:0000c900       ?RemoveAll@?$dgList@PAUNewtonCollision@@@@QAEXXZ 1000d900 f i Newton.obj
 0001:0000c9f0       ?SetTorque@dgBody@@QAEXABVdgVector@@@Z 1000d9f0 f i Newton.obj
 0001:0000cb20       ?GetPrev@dgListNode@?$dgList@VdgContactMaterial@@@@QBEPAV12@XZ 1000db20 f i Newton.obj
 0001:0000cb40       ?Unlink@dgListNode@?$dgList@PAUNewtonCollision@@@@AAEXXZ 1000db40 f i Newton.obj
 0001:0000cbb0       ?GetMasterList@dgBody@@QBEPAVdgListNode@?$dgList@VdgBodyMasterListRow@@@@XZ 1000dbb0 f i Newton.obj
 0001:0000cbd0       ?GetFreeze@dgBody@@QBE_NXZ 1000dbd0 f i Newton.obj
 0001:0000cbf0       ??0dgTreeNode@?$dgTree@PAVdgConstraint@@PAV1@@@AAE@ABQAVdgConstraint@@0PAV01@@Z 1000dbf0 f i Newton.obj
 0001:0000cc40       ??0dgRedBackNode@@QAE@QAV0@@Z 1000dc40 f i Newton.obj
 0001:0000cc70       ??_EdgRedBackNode@@UAEPAXI@Z 1000dc70 f i Newton.obj
 0001:0000cc70       ??_GdgRedBackNode@@UAEPAXI@Z 1000dc70 f i Newton.obj
 0001:0000ccb0       ??3dgRedBackNode@@SAXQAX@Z 1000dcb0 f i Newton.obj
 0001:0000ccd0       ??1dgRedBackNode@@UAE@XZ   1000dcd0 f i Newton.obj
 0001:0000ccf0       ?Initdata@dgRedBackNode@@QAEXQAV1@@Z 1000dcf0 f i Newton.obj
 0001:0000cd40       ?SetColor@dgRedBackNode@@QAEXW4REDBLACK_COLOR@1@@Z 1000dd40 f i Newton.obj
 0001:0000cd70       ?SetInTreeFlag@dgRedBackNode@@QAEXI@Z 1000dd70 f i Newton.obj
 0001:0000cda0       ??_EdgTreeNode@?$dgTree@PAVdgConstraint@@PAV1@@@EAEPAXI@Z 1000dda0 f i Newton.obj
 0001:0000cda0       ??_GdgTreeNode@?$dgTree@PAVdgConstraint@@PAV1@@@EAEPAXI@Z 1000dda0 f i Newton.obj
 0001:0000cde0       ??1dgTreeNode@?$dgTree@PAVdgConstraint@@PAV1@@@EAE@XZ 1000dde0 f i Newton.obj
 0001:0000ce10       ??2dgConstraint@@SAPAXIQAVdgMemoryAllocator@@@Z 1000de10 f i Newton.obj
 0001:0000ce30       ?IsCollidable@dgConstraint@@QBE_NXZ 1000de30 f i Newton.obj
 0001:0000ce50       ?SetCollidable@dgConstraint@@QAEX_N@Z 1000de50 f i Newton.obj
 0001:0000ce90       ?GetId@dgConstraint@@QBEIXZ 1000de90 f i Newton.obj
 0001:0000ceb0       ?GetBody0@dgConstraint@@QBEPAVdgBody@@XZ 1000deb0 f i Newton.obj
 0001:0000ced0       ?GetBody1@dgConstraint@@QBEPAVdgBody@@XZ 1000ded0 f i Newton.obj
 0001:0000cef0       ?SetCollisionCallback@dgContactMaterial@@QAEXP6A_NABV1@ABVdgBody@@1H@ZP6AXAAVdgContact@@MH@Z@Z 1000def0 f i Newton.obj
 0001:0000cf20       ?SetCompoundCollisionCallback@dgContactMaterial@@QAEXP6A_NABV1@ABVdgBody@@1H@Z@Z 1000df20 f i Newton.obj
 0001:0000cf40       ?GetUserData@dgContactMaterial@@QBEPAXXZ 1000df40 f i Newton.obj
 0001:0000cf60       ?SetUserData@dgContactMaterial@@QAEXQAX@Z 1000df60 f i Newton.obj
 0001:0000cf80       ?IsType@dgCollision@@QBEHW4RTTI@1@@Z 1000df80 f i Newton.obj
 0001:0000cfa0       ?GetOffsetMatrix@dgCollision@@QBEABVdgMatrix@@XZ 1000dfa0 f i Newton.obj
 0001:0000cfc0       ?SetUserDataID@dgCollision@@QBEIXZ 1000dfc0 f i Newton.obj
 0001:0000cfe0       ?SetUserDataID@dgCollision@@QAEXI@Z 1000dfe0 f i Newton.obj
 0001:0000d000       ?AddRef@dgCollision@@QAEPAV1@XZ 1000e000 f i Newton.obj
 0001:0000d030       ?GetRefCount@dgCollision@@QBEHXZ 1000e030 f i Newton.obj
 0001:0000d050       ?GetAllocator@dgCollision@@QBEPAVdgMemoryAllocator@@XZ 1000e050 f i Newton.obj
 0001:0000d070       ?dgGetUserLock@dgWorld@@QBEXXZ 1000e070 f i Newton.obj
 0001:0000d0a0       ?dgReleasedUserLock@dgWorld@@QBEXXZ 1000e0a0 f i Newton.obj
 0001:0000d0d0       ?GetAllocator@dgWorld@@QBEPAVdgMemoryAllocator@@XZ 1000e0d0 f i Newton.obj
 0001:0000d0f0       ?GetVertexCount@dgMeshEffect@@QBEHXZ 1000e0f0 f i Newton.obj
 0001:0000d110       ?GetPropertiesCount@dgMeshEffect@@QBEHXZ 1000e110 f i Newton.obj
 0001:0000d130       ?GetMaterialID@dgMeshEffect@@QAEHQAVdgIndexArray@1@H@Z 1000e130 f i Newton.obj
 0001:0000d150       ?GetMaterialIndexCount@dgMeshEffect@@QAEHQAVdgIndexArray@1@H@Z 1000e150 f i Newton.obj
 0001:0000d170       ?GetPropertiesStrideInByte@dgMeshEffect@@QBEHXZ 1000e170 f i Newton.obj
 0001:0000d190       ?GetAttributePool@dgMeshEffect@@QBEPANXZ 1000e190 f i Newton.obj
 0001:0000d1b0       ?GetNormalPool@dgMeshEffect@@QBEPANXZ 1000e1b0 f i Newton.obj
 0001:0000d1d0       ?GetUV0Pool@dgMeshEffect@@QBEPANXZ 1000e1d0 f i Newton.obj
 0001:0000d1f0       ?GetUV1Pool@dgMeshEffect@@QBEPANXZ 1000e1f0 f i Newton.obj
 0001:0000d210       ?GetVertexStrideInByte@dgMeshEffect@@QBEHXZ 1000e210 f i Newton.obj
 0001:0000d230       ?GetVertexPool@dgMeshEffect@@QBEPANXZ 1000e230 f i Newton.obj
 0001:0000d250       ?GetFirstLayer@dgMeshEffect@@QAEPAV1@XZ 1000e250 f i Newton.obj
 0001:0000d280       ?GetNextLayer@dgMeshEffect@@QAEPAV1@QAV1@@Z 1000e280 f i Newton.obj
 0001:0000d2c0       ?GetMainMesh@dgCollisionCompoundBreakable@@QBEPAVdgListNode@?$dgList@V?$dgGraphNode@VdgDebriNodeInfo@dgCollisionCompoundBreakable@@VdgSharedNodeMesh@2@@@@@XZ 1000e2c0 f i Newton.obj
 0001:0000d2e0       ?GetFirstComponentMesh@dgCollisionCompoundBreakable@@QBEPAVdgListNode@?$dgList@V?$dgGraphNode@VdgDebriNodeInfo@dgCollisionCompoundBreakable@@VdgSharedNodeMesh@2@@@@@XZ 1000e2e0 f i Newton.obj
 0001:0000d340       ?GetVertecCount@dgCollisionCompoundBreakable@@QBEHXZ 1000e340 f i Newton.obj
 0001:0000d360       ?GetVertexStreams@dgCollisionCompoundBreakable@@QBEXHPAMH0H0@Z 1000e360 f i Newton.obj
 0001:0000d3a0       ?GetNext@dgListNode@?$dgList@V?$dgGraphNode@VdgDebriNodeInfo@dgCollisionCompoundBreakable@@VdgSharedNodeMesh@2@@@@@QBEPAV12@XZ 1000e3a0 f i Newton.obj
 0001:0000d3c0       ??0?$dgTemplateVector@M@@QAE@MMMM@Z 1000e3c0 f i Newton.obj
 0001:0000d400       ??0?$dgTemplateVector@M@@QAE@PBM@Z 1000e400 f i Newton.obj
 0001:0000d450       ??0?$dgTemplateVector@M@@QAE@XZ 1000e450 f i Newton.obj
 0001:0000d470       ?Scale@?$dgTemplateVector@M@@QBE?AV1@M@Z 1000e470 f i Newton.obj
 0001:0000d4f0       ??A?$dgTemplateVector@M@@QAEAAMH@Z 1000e4f0 f i Newton.obj
 0001:0000d570       ??H?$dgTemplateVector@M@@QBE?AV0@ABV0@@Z 1000e570 f i Newton.obj
 0001:0000d5f0       ??G?$dgTemplateVector@M@@QBE?AV0@ABV0@@Z 1000e5f0 f i Newton.obj
 0001:0000d670       ??L?$dgTemplateVector@M@@QBEMABV0@@Z 1000e670 f i Newton.obj
 0001:0000d6c0       ??D?$dgTemplateVector@M@@QBE?AV0@ABV0@@Z 1000e6c0 f i Newton.obj
 0001:0000d770       ??0?$dgTemplateVector@N@@QAE@XZ 1000e770 f i Newton.obj
 0001:0000d790       ??$ClampValue@M@@YAMMMM@Z  1000e790 f i Newton.obj
 0001:0000d7d0       ?GetCount@?$dgList@V?$dgGraphNode@VdgDebriNodeInfo@dgCollisionCompoundBreakable@@VdgSharedNodeMesh@2@@@@@QBEHXZ 1000e7d0 f i Newton.obj
 0001:0000d7f0       ?GetLast@?$dgList@V?$dgGraphNode@VdgDebriNodeInfo@dgCollisionCompoundBreakable@@VdgSharedNodeMesh@2@@@@@QBEPAVdgListNode@1@XZ 1000e7f0 f i Newton.obj
 0001:0000d810       ?GetFirst@?$dgList@V?$dgGraphNode@VdgDebriNodeInfo@dgCollisionCompoundBreakable@@VdgSharedNodeMesh@2@@@@@QBEPAVdgListNode@1@XZ 1000e810 f i Newton.obj
 0001:0000d830       ?GetNext@dgListNode@?$dgList@VdgBodyMasterListCell@@@@QBEPAV12@XZ 1000e830 f i Newton.obj
 0001:0000d850       ?GetNext@dgListNode@?$dgList@VdgBodyMasterListRow@@@@QBEPAV12@XZ 1000e850 f i Newton.obj
 0001:0000d870       ?Unlink@dgListNode@?$dgList@VdgContactMaterial@@@@AAEXXZ 1000e870 f i Newton.obj
 0001:0000d900       ?GetNext@dgListNode@?$dgList@VdgContactMaterial@@@@QBEPAV12@XZ 1000e900 f i Newton.obj
 0001:0000d920       ?GetNext@dgListNode@?$dgList@VdgSubMesh@dgCollisionCompoundBreakable@@@@QBEPAV12@XZ 1000e920 f i Newton.obj
 0001:0000d940       ??0NewtonDeadBodies@@QAE@QAVdgMemoryAllocator@@@Z 1000e940 f   NewtonClass.obj
 0001:0000d980       ?DestroyBodies@NewtonDeadBodies@@QAEXAAVNewton@@@Z 1000e980 f   NewtonClass.obj
 0001:0000da00       ??0NewtonDeadJoints@@QAE@QAVdgMemoryAllocator@@@Z 1000ea00 f   NewtonClass.obj
 0001:0000da40       ?DestroyJoints@NewtonDeadJoints@@QAEXAAVNewton@@@Z 1000ea40 f   NewtonClass.obj
 0001:0000dac0       ?DefaultAllocMemory@Newton@@SAPAXH@Z 1000eac0 f   NewtonClass.obj
 0001:0000dae0       ?DefaultFreeMemory@Newton@@SAXPAXH@Z 1000eae0 f   NewtonClass.obj
 0001:0000db00       ??0Newton@@QAE@MQAVdgMemoryAllocator@@@Z 1000eb00 f   NewtonClass.obj
 0001:0000dbb0       ??1Newton@@UAE@XZ          1000ebb0 f   NewtonClass.obj
 0001:0000dc40       ?UpdatePhysics@Newton@@QAEXM@Z 1000ec40 f   NewtonClass.obj
 0001:0000dcd0       ?DestroyJoint@Newton@@QAEXPAVdgConstraint@@@Z 1000ecd0 f   NewtonClass.obj
 0001:0000dd30       ?DestroyBody@Newton@@QAEXPAVdgBody@@@Z 1000ed30 f   NewtonClass.obj
 0001:0000dd90       ??0NewtonUserJoint@@QAE@PAVdgWorld@@HP6AXQBUNewtonJoint@@MH@ZP6AX1QAUNewtonJointRecord@@@ZPAVdgBody@@5@Z 1000ed90 f   NewtonClass.obj
 0001:0000dee0       ??1NewtonUserJoint@@UAE@XZ 1000eee0 f   NewtonClass.obj
 0001:0000df40       ?JacobianDerivative@NewtonUserJoint@@UAEIAAVdgContraintDescritor@@@Z 1000ef40 f   NewtonClass.obj
 0001:0000dfa0       ?AddLinearRowJacobian@NewtonUserJoint@@QAEXABVdgVector@@00@Z 1000efa0 f   NewtonClass.obj
 0001:0000e0d0       ?AddAngularRowJacobian@NewtonUserJoint@@QAEXABVdgVector@@M@Z 1000f0d0 f   NewtonClass.obj
 0001:0000e220       ?AddGeneralRowJacobian@NewtonUserJoint@@QAEXPBM0@Z 1000f220 f   NewtonClass.obj
 0001:0000e360       ?SetAcceleration@NewtonUserJoint@@QAEXM@Z 1000f360 f   NewtonClass.obj
 0001:0000e3b0       ?SetSpringDamperAcceleration@NewtonUserJoint@@QAEXMM@Z 1000f3b0 f   NewtonClass.obj
 0001:0000e480       ?SetHighFriction@NewtonUserJoint@@QAEXM@Z 1000f480 f   NewtonClass.obj
 0001:0000e510       ?SetLowerFriction@NewtonUserJoint@@QAEXM@Z 1000f510 f   NewtonClass.obj
 0001:0000e5a0       ?SetRowStiffness@NewtonUserJoint@@QAEXM@Z 1000f5a0 f   NewtonClass.obj
 0001:0000e620       ?GetRowForce@NewtonUserJoint@@QBEMH@Z 1000f620 f   NewtonClass.obj
 0001:0000e660       ?GetInfo@NewtonUserJoint@@UBEXQAVdgConstraintInfo@@@Z 1000f660 f   NewtonClass.obj
 0001:0000e6b0       ?SetUpdateFeedbackFunction@NewtonUserJoint@@QAEXP6AXQBUNewtonJoint@@MH@Z@Z 1000f6b0 f   NewtonClass.obj
 0001:0000ea30       ??_ENewtonDeadBodies@@UAEPAXI@Z 1000fa30 f i NewtonClass.obj
 0001:0000ea30       ??_GNewtonDeadBodies@@UAEPAXI@Z 1000fa30 f i NewtonClass.obj
 0001:0000ea70       ??1NewtonDeadBodies@@UAE@XZ 1000fa70 f i NewtonClass.obj
 0001:0000ea90       ??_ENewtonDeadJoints@@UAEPAXI@Z 1000fa90 f i NewtonClass.obj
 0001:0000ea90       ??_GNewtonDeadJoints@@UAEPAXI@Z 1000fa90 f i NewtonClass.obj
 0001:0000ead0       ??1NewtonDeadJoints@@UAE@XZ 1000fad0 f i NewtonClass.obj
 0001:0000eaf0       ??_GNewton@@UAEPAXI@Z      1000faf0 f i NewtonClass.obj
 0001:0000eaf0       ??_ENewton@@UAEPAXI@Z      1000faf0 f i NewtonClass.obj
 0001:0000eb30       ??3Newton@@SAXQAX@Z        1000fb30 f i NewtonClass.obj
 0001:0000eb50       ??_ENewtonUserJoint@@UAEPAXI@Z 1000fb50 f i NewtonClass.obj
 0001:0000eb50       ??_GNewtonUserJoint@@UAEPAXI@Z 1000fb50 f i NewtonClass.obj
 0001:0000eb90       ??0dgPointParam@dgConstraint@@QAE@XZ 1000fb90 f i NewtonClass.obj
 0001:0000ec10       ??3?$dgTree@PAVdgBody@@PAX@@SAXQAX@Z 1000fc10 f i NewtonClass.obj
 0001:0000ec30       ??3?$dgTree@PAVdgConstraint@@PAX@@SAXQAX@Z 1000fc30 f i NewtonClass.obj
 0001:0000ec50       ??0Iterator@?$dgTree@PAVdgBody@@PAX@@QAE@ABV1@@Z 1000fc50 f i NewtonClass.obj
 0001:0000ec80       ??1Iterator@?$dgTree@PAVdgBody@@PAX@@QAE@XZ 1000fc80 f i NewtonClass.obj
 0001:0000ec90       ?Begin@Iterator@?$dgTree@PAVdgBody@@PAX@@QAEXXZ 1000fc90 f i NewtonClass.obj
 0001:0000ecc0       ??BIterator@?$dgTree@PAVdgBody@@PAX@@QBEHXZ 1000fcc0 f i NewtonClass.obj
 0001:0000ece0       ??EIterator@?$dgTree@PAVdgBody@@PAX@@QAEXH@Z 1000fce0 f i NewtonClass.obj
 0001:0000ed40       ?GetNode@Iterator@?$dgTree@PAVdgBody@@PAX@@QBEPAVdgTreeNode@2@XZ 1000fd40 f i NewtonClass.obj
 0001:0000ed60       ?GetInfo@dgTreeNode@?$dgTree@PAVdgBody@@PAX@@QAEAAPAVdgBody@@XZ 1000fd60 f i NewtonClass.obj
 0001:0000ed80       ??0Iterator@?$dgTree@PAVdgConstraint@@PAX@@QAE@ABV1@@Z 1000fd80 f i NewtonClass.obj
 0001:0000edb0       ??1Iterator@?$dgTree@PAVdgConstraint@@PAX@@QAE@XZ 1000fdb0 f i NewtonClass.obj
 0001:0000edc0       ?Begin@Iterator@?$dgTree@PAVdgConstraint@@PAX@@QAEXXZ 1000fdc0 f i NewtonClass.obj
 0001:0000edf0       ??BIterator@?$dgTree@PAVdgConstraint@@PAX@@QBEHXZ 1000fdf0 f i NewtonClass.obj
 0001:0000ee10       ??EIterator@?$dgTree@PAVdgConstraint@@PAX@@QAEXH@Z 1000fe10 f i NewtonClass.obj
 0001:0000ee70       ?GetNode@Iterator@?$dgTree@PAVdgConstraint@@PAX@@QBEPAVdgTreeNode@2@XZ 1000fe70 f i NewtonClass.obj
 0001:0000ee90       ?GetInfo@dgTreeNode@?$dgTree@PAVdgConstraint@@PAX@@QAEAAPAVdgConstraint@@XZ 1000fe90 f i NewtonClass.obj
 0001:0000eeb0       ??0?$dgTree@PAVdgBody@@PAX@@QAE@QAVdgMemoryAllocator@@@Z 1000feb0 f i NewtonClass.obj
 0001:0000ef00       ??1?$dgTree@PAVdgBody@@PAX@@UAE@XZ 1000ff00 f i NewtonClass.obj
 0001:0000ef30       ?Minimum@?$dgTree@PAVdgBody@@PAX@@QBEPAVdgTreeNode@1@XZ 1000ff30 f i NewtonClass.obj
 0001:0000ef70       ?Insert@?$dgTree@PAVdgBody@@PAX@@QAEPAVdgTreeNode@1@ABQAVdgBody@@PAX@Z 1000ff70 f i NewtonClass.obj
 0001:0000efc0       ?Remove@?$dgTree@PAVdgBody@@PAX@@QAEXQAVdgTreeNode@1@@Z 1000ffc0 f i NewtonClass.obj
 0001:0000f000       ??0?$dgTree@PAVdgConstraint@@PAX@@QAE@QAVdgMemoryAllocator@@@Z 10010000 f i NewtonClass.obj
 0001:0000f050       ??1?$dgTree@PAVdgConstraint@@PAX@@UAE@XZ 10010050 f i NewtonClass.obj
 0001:0000f080       ?Minimum@?$dgTree@PAVdgConstraint@@PAX@@QBEPAVdgTreeNode@1@XZ 10010080 f i NewtonClass.obj
 0001:0000f0c0       ?Insert@?$dgTree@PAVdgConstraint@@PAX@@QAEPAVdgTreeNode@1@ABQAVdgConstraint@@PAX@Z 100100c0 f i NewtonClass.obj
 0001:0000f110       ?Remove@?$dgTree@PAVdgConstraint@@PAX@@QAEXQAVdgTreeNode@1@@Z 10010110 f i NewtonClass.obj
 0001:0000f150       ??_E?$dgTree@PAVdgBody@@PAX@@UAEPAXI@Z 10010150 f i NewtonClass.obj
 0001:0000f150       ??_G?$dgTree@PAVdgBody@@PAX@@UAEPAXI@Z 10010150 f i NewtonClass.obj
 0001:0000f190       ??_E?$dgTree@PAVdgConstraint@@PAX@@UAEPAXI@Z 10010190 f i NewtonClass.obj
 0001:0000f190       ??_G?$dgTree@PAVdgConstraint@@PAX@@UAEPAXI@Z 10010190 f i NewtonClass.obj
 0001:0000f1d0       ?Insert@?$dgTree@PAVdgBody@@PAX@@QAEPAVdgTreeNode@1@ABQAVdgBody@@PAXAA_N@Z 100101d0 f i NewtonClass.obj
 0001:0000f450       ?RemoveAll@?$dgTree@PAVdgBody@@PAX@@QAEXXZ 10010450 f i NewtonClass.obj
 0001:0000f490       ?Insert@?$dgTree@PAVdgConstraint@@PAX@@QAEPAVdgTreeNode@1@ABQAVdgConstraint@@PAXAA_N@Z 10010490 f i NewtonClass.obj
 0001:0000f710       ?RemoveAll@?$dgTree@PAVdgConstraint@@PAX@@QAEXXZ 10010710 f i NewtonClass.obj
 0001:0000f750       ??0dgTreeNode@?$dgTree@PAVdgBody@@PAX@@AAE@ABQAVdgBody@@ABQAXPAV01@@Z 10010750 f i NewtonClass.obj
 0001:0000f7a0       ??_EdgTreeNode@?$dgTree@PAVdgBody@@PAX@@EAEPAXI@Z 100107a0 f i NewtonClass.obj
 0001:0000f7a0       ??_GdgTreeNode@?$dgTree@PAVdgBody@@PAX@@EAEPAXI@Z 100107a0 f i NewtonClass.obj
 0001:0000f7e0       ??1dgTreeNode@?$dgTree@PAVdgBody@@PAX@@EAE@XZ 100107e0 f i NewtonClass.obj
 0001:0000f810       ?GetLeft@dgTreeNode@?$dgTree@PAVdgBody@@PAX@@ABEPAV12@XZ 10010810 f i NewtonClass.obj
 0001:0000f830       ?GetRight@dgTreeNode@?$dgTree@PAVdgBody@@PAX@@ABEPAV12@XZ 10010830 f i NewtonClass.obj
 0001:0000f850       ??0dgTreeNode@?$dgTree@PAVdgConstraint@@PAX@@AAE@ABQAVdgConstraint@@ABQAXPAV01@@Z 10010850 f i NewtonClass.obj
 0001:0000f8a0       ??_GdgTreeNode@?$dgTree@PAVdgConstraint@@PAX@@EAEPAXI@Z 100108a0 f i NewtonClass.obj
 0001:0000f8a0       ??_EdgTreeNode@?$dgTree@PAVdgConstraint@@PAX@@EAEPAXI@Z 100108a0 f i NewtonClass.obj
 0001:0000f8e0       ??1dgTreeNode@?$dgTree@PAVdgConstraint@@PAX@@EAE@XZ 100108e0 f i NewtonClass.obj
 0001:0000f910       ?GetLeft@dgTreeNode@?$dgTree@PAVdgConstraint@@PAX@@ABEPAV12@XZ 10010910 f i NewtonClass.obj
 0001:0000f930       ?GetRight@dgTreeNode@?$dgTree@PAVdgConstraint@@PAX@@ABEPAV12@XZ 10010930 f i NewtonClass.obj
 0001:0000f950       ?CompareKeys@?$dgTree@PAVdgBody@@PAX@@ABEHABQAX0@Z 10010950 f i NewtonClass.obj
 0001:0000f990       ?CompareKeys@?$dgTree@PAVdgConstraint@@PAX@@ABEHABQAX0@Z 10010990 f i NewtonClass.obj
 0001:0000f9d0       ??_ENewton@@WCI@AEPAXI@Z   100109d0 f i NewtonClass.obj
 0001:0000f9e0       ??_ENewton@@WBNCA@AEPAXI@Z 100109e0 f i NewtonClass.obj
 0001:0000f9f0       ??_ENewton@@WBI@AEPAXI@Z   100109f0 f i NewtonClass.obj
 0001:0000fa00       ??_ENewton@@WDI@AEPAXI@Z   10010a00 f i NewtonClass.obj
 0001:0000fa10       ??_ENewton@@WBNDA@AEPAXI@Z 10010a10 f i NewtonClass.obj
 0001:0000fa20       ??3dgConstraint@@SAXQAX@Z  10010a20 f i NewtonClass.obj
 0001:0000fa40       ?SetUpdateFeedbackFunction@dgConstraint@@IAEXP6AXABV1@MH@Z@Z 10010a40 f i NewtonClass.obj
 0001:0000fa60       ??_H@YGXPAXIHP6EPAX0@Z@Z   10010a60 f i NewtonClass.obj
 0001:0000fa90       ?Init@dgBilateralConstraint@@MAEXXZ 10010a90 f i NewtonClass.obj
 0001:0000fad0       ?Remove@dgBilateralConstraint@@MAEXPAVdgWorld@@@Z 10010ad0 f i NewtonClass.obj
 0001:0000fb10       ?dgExpandTraceMessage@@YAXPBDZZ 10010b10 f   core:dgDebug.obj
 0001:0000fb70       ??0dgMemoryAllocator@@QAE@XZ 10010b70 f   core:dgMemory.obj
 0001:0000fbe0       ??0dgMemoryAllocator@@IAE@P6APAXI@ZP6AXQAXI@Z@Z 10010be0 f   core:dgMemory.obj
 0001:0000fc30       ??1dgMemoryAllocator@@QAE@XZ 10010c30 f   core:dgMemory.obj
 0001:0000fc80       ??2dgMemoryAllocator@@SAPAXI@Z 10010c80 f   core:dgMemory.obj
 0001:0000fca0       ??3dgMemoryAllocator@@SAXQAX@Z 10010ca0 f   core:dgMemory.obj
 0001:0000fcc0       ?GetMemoryUsed@dgMemoryAllocator@@QBEHXZ 10010cc0 f   core:dgMemory.obj
 0001:0000fce0       ?SetAllocatorsCallback@dgMemoryAllocator@@QAEXP6APAXI@ZP6AXQAXI@Z@Z 10010ce0 f   core:dgMemory.obj
 0001:0000fd00       ?MallocLow@dgMemoryAllocator@@QAEPAXHH@Z 10010d00 f   core:dgMemory.obj
 0001:0000fe00       ?FreeLow@dgMemoryAllocator@@QAEXQAX@Z 10010e00 f   core:dgMemory.obj
 0001:0000fe90       ?Malloc@dgMemoryAllocator@@QAEPAXH@Z 10010e90 f   core:dgMemory.obj
 0001:000100e0       ?Free@dgMemoryAllocator@@QAEXQAX@Z 100110e0 f   core:dgMemory.obj
 0001:00010340       ?dgSetGlobalAllocators@@YAXP6APAXI@ZP6AXQAXI@Z@Z 10011340 f   core:dgMemory.obj
 0001:00010360       ?dgGetMemoryUsed@@YAHXZ    10011360 f   core:dgMemory.obj
 0001:00010370       ?dgMallocStack@@YAPAXI@Z   10011370 f   core:dgMemory.obj
 0001:00010390       ?dgMallocAligned@@YAPAXIH@Z 10011390 f   core:dgMemory.obj
 0001:000103b0       ?dgFreeStack@@YAXQAX@Z     100113b0 f   core:dgMemory.obj
 0001:000103d0       ?dgMalloc@@YAPAXIQAVdgMemoryAllocator@@@Z 100113d0 f   core:dgMemory.obj
 0001:00010420       ?dgFree@@YAXQAX@Z          10011420 f   core:dgMemory.obj
 0001:00010480       ?SaveInfo@dgMemoryInfo@dgMemoryAllocator@@QAEXQAV2@QAXHAAHH@Z 10011480 f i core:dgMemory.obj
 0001:000104d0       ?GetMemoryUsed@dgGlobalAllocator@@QBEHXZ 100114d0 f i core:dgMemory.obj
 0001:00010520       ?GetInfo@dgListNode@?$dgList@PAVdgMemoryAllocator@@@@QAEAAPAVdgMemoryAllocator@@XZ 10011520 f i core:dgMemory.obj
 0001:00010540       ?GetNext@dgListNode@?$dgList@PAVdgMemoryAllocator@@@@QBEPAV12@XZ 10011540 f i core:dgMemory.obj
 0001:00010560       ?GetFirst@?$dgList@PAVdgMemoryAllocator@@@@QBEPAVdgListNode@1@XZ 10011560 f i core:dgMemory.obj
 0001:00010580       ?Append@?$dgList@PAVdgMemoryAllocator@@@@QAEPAVdgListNode@1@ABQAVdgMemoryAllocator@@@Z 10011580 f i core:dgMemory.obj
 0001:00010640       ?Remove@?$dgList@PAVdgMemoryAllocator@@@@QAEXABQAVdgMemoryAllocator@@@Z 10011640 f i core:dgMemory.obj
 0001:00010670       ??2dgListNode@?$dgList@PAVdgMemoryAllocator@@@@CAPAXIQAVdgMemoryAllocator@@@Z 10011670 f i core:dgMemory.obj
 0001:00010690       ??0dgListNode@?$dgList@PAVdgMemoryAllocator@@@@AAE@ABQAVdgMemoryAllocator@@QAV01@1@Z 10011690 f i core:dgMemory.obj
 0001:000106f0       ??_GdgListNode@?$dgList@PAVdgMemoryAllocator@@@@EAEPAXI@Z 100116f0 f i core:dgMemory.obj
 0001:000106f0       ??_EdgListNode@?$dgList@PAVdgMemoryAllocator@@@@EAEPAXI@Z 100116f0 f i core:dgMemory.obj
 0001:00010720       ??1dgListNode@?$dgList@PAVdgMemoryAllocator@@@@EAE@XZ 10011720 f i core:dgMemory.obj
 0001:00010740       ??3dgListNode@?$dgList@PAVdgMemoryAllocator@@@@CAXQAX@Z 10011740 f i core:dgMemory.obj
 0001:00010760       ?Find@?$dgList@PAVdgMemoryAllocator@@@@QBEPAVdgListNode@1@ABQAVdgMemoryAllocator@@@Z 10011760 f i core:dgMemory.obj
 0001:000107a0       ?Remove@?$dgList@PAVdgMemoryAllocator@@@@QAEXQAVdgListNode@1@@Z 100117a0 f i core:dgMemory.obj
 0001:000107f0       ?Unlink@?$dgList@PAVdgMemoryAllocator@@@@QAEXQAVdgListNode@1@@Z 100117f0 f i core:dgMemory.obj
 0001:000108a0       ?Unlink@dgListNode@?$dgList@PAVdgMemoryAllocator@@@@AAEXXZ 100118a0 f i core:dgMemory.obj
 0001:000108f0       ?GetPrev@dgListNode@?$dgList@PAVdgMemoryAllocator@@@@QBEPAV12@XZ 100118f0 f i core:dgMemory.obj
 0001:00010910       ?dgAtomicAdd@@YAHQAHH@Z    10011910 f i core:dgMemory.obj
 0001:00010930       ??0dgGlobalAllocator@@QAE@XZ 10011930 f i core:dgMemory.obj
 0001:00010990       ?__malloc__@dgGlobalAllocator@@SAPAXI@Z 10011990 f i core:dgMemory.obj
 0001:000109b0       ?__free__@dgGlobalAllocator@@SAXQAXI@Z 100119b0 f i core:dgMemory.obj
 0001:000109d0       ??_EdgGlobalAllocator@@UAEPAXI@Z 100119d0 f i core:dgMemory.obj
 0001:000109d0       ??_GdgGlobalAllocator@@UAEPAXI@Z 100119d0 f i core:dgMemory.obj
 0001:00010a00       ??1dgGlobalAllocator@@UAE@XZ 10011a00 f i core:dgMemory.obj
 0001:00010a60       ??3dgGlobalAllocator@@SAXQAX@Z 10011a60 f i core:dgMemory.obj
 0001:00010aa0       ??0?$dgList@PAVdgMemoryAllocator@@@@QAE@QAVdgMemoryAllocator@@@Z 10011aa0 f i core:dgMemory.obj
 0001:00010ae0       ??1?$dgList@PAVdgMemoryAllocator@@@@UAE@XZ 10011ae0 f i core:dgMemory.obj
 0001:00010b00       ?SetAllocator@?$dgList@PAVdgMemoryAllocator@@@@QAEXQAVdgMemoryAllocator@@@Z 10011b00 f i core:dgMemory.obj
 0001:00010b30       ?GetCount@?$dgList@PAVdgMemoryAllocator@@@@QBEHXZ 10011b30 f i core:dgMemory.obj
 0001:00010b50       ??_E?$dgList@PAVdgMemoryAllocator@@@@UAEPAXI@Z 10011b50 f i core:dgMemory.obj
 0001:00010b50       ??_G?$dgList@PAVdgMemoryAllocator@@@@UAEPAXI@Z 10011b50 f i core:dgMemory.obj
 0001:00010b80       ??3?$dgList@PAVdgMemoryAllocator@@@@SAXQAX@Z 10011b80 f i core:dgMemory.obj
 0001:00010ba0       ?RemoveAll@?$dgList@PAVdgMemoryAllocator@@@@QAEXXZ 10011ba0 f i core:dgMemory.obj
 0001:00010c60       ?dgGetIdentityMatrix@@YAABVdgMatrix@@XZ 10011c60 f   core:dgMatrix.obj
 0001:00010c70       ?dgGetZeroMatrix@@YAABVdgMatrix@@XZ 10011c70 f   core:dgMatrix.obj
 0001:00010c80       ??0dgMatrix@@QAE@ABVdgQuaternion@@ABVdgVector@@@Z 10011c80 f   core:dgMatrix.obj
 0001:00010f40       ??DdgMatrix@@QBE?AV0@ABV0@@Z 10011f40 f   core:dgMatrix.obj
 0001:00011da0       ?TransformTriplex@dgMatrix@@QBEXQAMHQBMHH@Z 10012da0 f   core:dgMatrix.obj
 0001:00011ec0       ?TransformTriplex@dgMatrix@@QBEXQANHQBNHH@Z 10012ec0 f   core:dgMatrix.obj
 0001:00011fe0       ?TransformTriplex@dgMatrix@@QBEXQANHQBMHH@Z 10012fe0 f   core:dgMatrix.obj
 0001:00012100       ?TransformBBox@dgMatrix@@QBEXABVdgVector@@0AAV2@1@Z 10013100 f   core:dgMatrix.obj
 0001:000125d0       ?Inverse4x4@dgMatrix@@QBE?AV1@XZ 100135d0 f   core:dgMatrix.obj
 0001:00012a90       ?Symetric3by3Inverse@dgMatrix@@QBE?AV1@XZ 10013a90 f   core:dgMatrix.obj
 0001:00013180       ?CalcPitchYawRoll@dgMatrix@@QBE?AVdgVector@@XZ 10014180 f   core:dgMatrix.obj
 0001:00013510       ?EigenVectors@dgMatrix@@QAEXAAVdgVector@@ABV1@@Z 10014510 f   core:dgMatrix.obj
 0001:00014230       ??AdgMatrix@@QBEABVdgVector@@H@Z 10015230 f i core:dgMatrix.obj
 0001:000142a0       ?asin@@YAMM@Z              100152a0 f i core:dgMatrix.obj
 0001:000142c0       _asinf                     100152c0 f i core:dgMatrix.obj
 0001:000142e0       ?atan2@@YAMMM@Z            100152e0 f i core:dgMatrix.obj
 0001:00014300       _atan2f                    10015300 f i core:dgMatrix.obj
 0001:00014330       ?Transpose4X4@dgMatrix@@QBE?AV1@XZ 10015330 f i core:dgMatrix.obj
 0001:00014430       ?Inverse@dgMatrix@@QBE?AV1@XZ 10015430 f i core:dgMatrix.obj
 0001:00014540       ??A?$dgTemplateVector@M@@QBEABMH@Z 10015540 f i core:dgMatrix.obj
 0001:000145b0       ??0dgPolyhedra@@QAE@QAVdgMemoryAllocator@@@Z 100155b0 f   core:dgPolyhedra.obj
 0001:00014600       ??0dgPolyhedra@@QAE@ABV0@@Z 10015600 f   core:dgPolyhedra.obj
 0001:000147b0       ??1dgPolyhedra@@UAE@XZ     100157b0 f   core:dgPolyhedra.obj
 0001:000147d0       ?GetFaceCount@dgPolyhedra@@QBEHXZ 100157d0 f   core:dgPolyhedra.obj
 0001:00014880       ?AddFace@dgPolyhedra@@QAEPAVdgEdge@@HQBHQB_J@Z 10015880 f   core:dgPolyhedra.obj
 0001:00014d70       ?EndFace@dgPolyhedra@@QAEXXZ 10015d70 f   core:dgPolyhedra.obj
 0001:00014fc0       ?DeleteFace@dgPolyhedra@@QAEXQAVdgEdge@@@Z 10015fc0 f   core:dgPolyhedra.obj
 0001:00015110       ?FaceNormal@dgPolyhedra@@QBE?AVdgBigVector@@QAVdgEdge@@QBNH@Z 10016110 f   core:dgPolyhedra.obj
 0001:00015280       ?AddHalfEdge@dgPolyhedra@@QAEPAVdgEdge@@HH@Z 10016280 f   core:dgPolyhedra.obj
 0001:00015310       ?DeleteEdge@dgPolyhedra@@QAEXQAVdgEdge@@@Z 10016310 f   core:dgPolyhedra.obj
 0001:00015400       ?SpliteEdge@dgPolyhedra@@QAEPAVdgEdge@@HQAV2@@Z 10016400 f   core:dgPolyhedra.obj
 0001:00015610       ?FlipEdge@dgPolyhedra@@QAE_NQAVdgEdge@@@Z 10016610 f   core:dgPolyhedra.obj
 0001:00015820       ?GetConectedSurface@dgPolyhedra@@QBE_NAAV1@@Z 10016820 f   core:dgPolyhedra.obj
 0001:00015ae0       ?ChangeEdgeIncidentVertex@dgPolyhedra@@QAEXQAVdgEdge@@H@Z 10016ae0 f   core:dgPolyhedra.obj
 0001:00015b90       ?DeleteDegenerateFaces@dgPolyhedra@@QAEXQBNHN@Z 10016b90 f   core:dgPolyhedra.obj
 0001:00015d20       ?EdgePenalty@dgPolyhedra@@ABENQBVdgBigVector@@QAVdgEdge@@@Z 10016d20 f   core:dgPolyhedra.obj
 0001:00016480       ?Optimize@dgPolyhedra@@QAEXQBNHN@Z 10017480 f   core:dgPolyhedra.obj
 0001:000179d0       ?FindEarTip@dgPolyhedra@@ABEPAVdgEdge@@QAV2@QBNHAAV?$dgDownHeap@PAVdgEdge@@N@@ABVdgBigVector@@@Z 100189d0 f   core:dgPolyhedra.obj
 0001:00017f10       ?TriangulateFace@dgPolyhedra@@AAEPAVdgEdge@@PAV2@QBNHAAV?$dgDownHeap@PAVdgEdge@@N@@QAVdgBigVector@@@Z 10018f10 f   core:dgPolyhedra.obj
 0001:00018320       ?MarkAdjacentCoplanarFaces@dgPolyhedra@@AAEXAAV1@QAVdgEdge@@QBNH@Z 10019320 f   core:dgPolyhedra.obj
 0001:00018a20       ?RefineTriangulation@dgPolyhedra@@AAEXQBNHQAVdgBigVector@@HQAPAVdgEdge@@@Z 10019a20 f   core:dgPolyhedra.obj
 0001:000195a0       ?RefineTriangulation@dgPolyhedra@@AAEXQBNH@Z 1001a5a0 f   core:dgPolyhedra.obj
 0001:00019750       ?OptimizeTriangulation@dgPolyhedra@@AAEXQBNH@Z 1001a750 f   core:dgPolyhedra.obj
 0001:00019a30       ?Triangulate@dgPolyhedra@@QAEXQBNHQAV1@@Z 1001aa30 f   core:dgPolyhedra.obj
 0001:00019d60       ?ConvexPartition@dgPolyhedra@@QAEXQBNHQAV1@@Z 1001ad60 f   core:dgPolyhedra.obj
 0001:0001b0e0       ?CalculateSphere@dgPolyhedra@@QBE?AVdgSphere@@QBNHQBVdgMatrix@@@Z 1001c0e0 f   core:dgPolyhedra.obj
 0001:0001ba60       ??_GdgPolyhedra@@UAEPAXI@Z 1001ca60 f i core:dgPolyhedra.obj
 0001:0001ba60       ??_EdgPolyhedra@@UAEPAXI@Z 1001ca60 f i core:dgPolyhedra.obj
 0001:0001ba90       ?BeginFace@dgPolyhedra@@QAEXXZ 1001ca90 f i core:dgPolyhedra.obj
 0001:0001baa0       ?FindEdge@dgPolyhedra@@QBEPAVdgEdge@@HH@Z 1001caa0 f i core:dgPolyhedra.obj
 0001:0001bae0       ?FindEdgeNode@dgPolyhedra@@QBEPAVdgTreeNode@?$dgTree@VdgEdge@@_J@@HH@Z 1001cae0 f i core:dgPolyhedra.obj
 0001:0001bb20       ??0dgPairKey@dgPolyhedra@@QAE@HH@Z 1001cb20 f i core:dgPolyhedra.obj
 0001:0001bb60       ?GetVal@dgPairKey@dgPolyhedra@@QBE_JXZ 1001cb60 f i core:dgPolyhedra.obj
 0001:0001bb80       ??0dgEdge@@QAE@HH_K@Z      1001cb80 f i core:dgPolyhedra.obj
 0001:0001bbe0       ??0dgBigVector@@QAE@ABV?$dgTemplateVector@N@@@Z 1001cbe0 f i core:dgPolyhedra.obj
 0001:0001bd30       ??0dgBigVector@@QAE@PBN@Z  1001cd30 f i core:dgPolyhedra.obj
 0001:0001be80       ??0dgBigVector@@QAE@NNNN@Z 1001ce80 f i core:dgPolyhedra.obj
 0001:0001bff0       ??0dgVector@@QAE@ABVdgBigVector@@@Z 1001cff0 f i core:dgPolyhedra.obj
 0001:0001c170       ?GetEdgeCount@dgPolyhedra@@QBEHXZ 1001d170 f i core:dgPolyhedra.obj
 0001:0001c200       ?GetLastVertexIndex@dgPolyhedra@@QBEHXZ 1001d200 f i core:dgPolyhedra.obj
 0001:0001c280       ??0dgEdgeCollapseEdgeHandle@@QAE@QAVdgEdge@@@Z 1001d280 f i core:dgPolyhedra.obj
 0001:0001c2b0       ??1dgEdgeCollapseEdgeHandle@@QAE@XZ 1001d2b0 f i core:dgPolyhedra.obj
 0001:0001c300       ?Evalue@dgVertexCollapseVertexMetric@@QBENABVdgVector@@@Z 1001d300 f i core:dgPolyhedra.obj
 0001:0001c3d0       ??0dgVertexCollapseVertexMetric@@QAE@ABVdgBigPlane@@@Z 1001d3d0 f i core:dgPolyhedra.obj
 0001:0001c4c0       ?Accumulate@dgVertexCollapseVertexMetric@@QAEXABV1@@Z 1001d4c0 f i core:dgPolyhedra.obj
 0001:0001c580       ??0dgBigPlane@@QAE@ABVdgBigVector@@00@Z 1001d580 f i core:dgPolyhedra.obj
 0001:0001c5e0       ??0dgBigPlane@@QAE@ABVdgBigVector@@N@Z 1001d5e0 f i core:dgPolyhedra.obj
 0001:0001c610       ?Clear@dgVertexCollapseVertexMetric@@QAEXXZ 1001d610 f i core:dgPolyhedra.obj
 0001:0001c630       ?Accumulate@dgVertexCollapseVertexMetric@@QAEXABVdgBigPlane@@@Z 1001d630 f i core:dgPolyhedra.obj
 0001:0001c750       ??1?$dgDownHeap@PAVdgListNode@?$dgList@UdgEdgeCollapseEdgeHandle@@@@N@@QAE@XZ 1001d750 f i core:dgPolyhedra.obj
 0001:0001c770       ?Evalue@dgBigPlane@@QBENABVdgBigVector@@@Z 1001d770 f i core:dgPolyhedra.obj
 0001:0001c7b0       ?AddFace@dgPolyhedra@@QAEPAVdgEdge@@HQBH@Z 1001d7b0 f i core:dgPolyhedra.obj
 0001:0001c7d0       ??0dgBigVector@@QAE@ABVdgVector@@@Z 1001d7d0 f i core:dgPolyhedra.obj
 0001:0001c940       ??0dgDiagonalEdge@@QAE@QAVdgEdge@@@Z 1001d940 f i core:dgPolyhedra.obj
 0001:0001c970       ??1?$dgDownHeap@PAVdgEdge@@N@@QAE@XZ 1001d970 f i core:dgPolyhedra.obj
 0001:0001c990       ??3?$dgTree@VdgEdge@@_J@@SAXQAX@Z 1001d990 f i core:dgPolyhedra.obj
 0001:0001c9b0       ??0Iterator@?$dgTree@VdgEdge@@_J@@QAE@ABV1@@Z 1001d9b0 f i core:dgPolyhedra.obj
 0001:0001c9e0       ??1Iterator@?$dgTree@VdgEdge@@_J@@QAE@XZ 1001d9e0 f i core:dgPolyhedra.obj
 0001:0001c9f0       ?Begin@Iterator@?$dgTree@VdgEdge@@_J@@QAEXXZ 1001d9f0 f i core:dgPolyhedra.obj
 0001:0001ca10       ??BIterator@?$dgTree@VdgEdge@@_J@@QBEHXZ 1001da10 f i core:dgPolyhedra.obj
 0001:0001ca30       ??EIterator@?$dgTree@VdgEdge@@_J@@QAEXH@Z 1001da30 f i core:dgPolyhedra.obj
 0001:0001ca80       ??DIterator@?$dgTree@VdgEdge@@_J@@QBEAAVdgEdge@@XZ 1001da80 f i core:dgPolyhedra.obj
 0001:0001caa0       ?GetNode@Iterator@?$dgTree@VdgEdge@@_J@@QBEPAVdgTreeNode@2@XZ 1001daa0 f i core:dgPolyhedra.obj
 0001:0001cab0       ?GetInfo@dgTreeNode@?$dgTree@VdgEdge@@_J@@QAEAAVdgEdge@@XZ 1001dab0 f i core:dgPolyhedra.obj
 0001:0001cad0       ?GetInfo@dgListNode@?$dgList@UdgEdgeCollapseEdgeHandle@@@@QAEAAUdgEdgeCollapseEdgeHandle@@XZ 1001dad0 f i core:dgPolyhedra.obj
 0001:0001caf0       ?GetInfo@dgListNode@?$dgList@VdgDiagonalEdge@@@@QAEAAVdgDiagonalEdge@@XZ 1001daf0 f i core:dgPolyhedra.obj
 0001:0001cb10       ?GetNext@dgListNode@?$dgList@VdgDiagonalEdge@@@@QBEPAV12@XZ 1001db10 f i core:dgPolyhedra.obj
 0001:0001cb30       ??0?$dgTemplateVector@N@@QAE@NNNN@Z 1001db30 f i core:dgPolyhedra.obj
 0001:0001cb70       ??0?$dgTemplateVector@N@@QAE@PBN@Z 1001db70 f i core:dgPolyhedra.obj
 0001:0001cbb0       ?Scale@?$dgTemplateVector@N@@QBE?AV1@N@Z 1001dbb0 f i core:dgPolyhedra.obj
 0001:0001cc00       ??A?$dgTemplateVector@N@@QAEAANH@Z 1001dc00 f i core:dgPolyhedra.obj
 0001:0001cc70       ??G?$dgTemplateVector@N@@QBE?AV0@ABV0@@Z 1001dc70 f i core:dgPolyhedra.obj
 0001:0001ccd0       ??Y?$dgTemplateVector@N@@QAEAAV0@ABV0@@Z 1001dcd0 f i core:dgPolyhedra.obj
 0001:0001cd20       ??L?$dgTemplateVector@N@@QBENABV0@@Z 1001dd20 f i core:dgPolyhedra.obj
 0001:0001cd60       ??D?$dgTemplateVector@N@@QBE?AV0@ABV0@@Z 1001dd60 f i core:dgPolyhedra.obj
 0001:0001cde0       ??0?$dgTree@VdgEdge@@_J@@QAE@QAVdgMemoryAllocator@@@Z 1001dde0 f i core:dgPolyhedra.obj
 0001:0001ce20       ??1?$dgTree@VdgEdge@@_J@@UAE@XZ 1001de20 f i core:dgPolyhedra.obj
 0001:0001ce40       ?GetCount@?$dgTree@VdgEdge@@_J@@QBEHXZ 1001de40 f i core:dgPolyhedra.obj
 0001:0001ce60       ?GetRoot@?$dgTree@VdgEdge@@_J@@QBEPAVdgTreeNode@1@XZ 1001de60 f i core:dgPolyhedra.obj
 0001:0001ce80       ?Minimum@?$dgTree@VdgEdge@@_J@@QBEPAVdgTreeNode@1@XZ 1001de80 f i core:dgPolyhedra.obj
 0001:0001ceb0       ?Find@?$dgTree@VdgEdge@@_J@@QBEPAVdgTreeNode@1@_J@Z 1001deb0 f i core:dgPolyhedra.obj
 0001:0001d000       ?GetNodeFromInfo@?$dgTree@VdgEdge@@_J@@QBEPAVdgTreeNode@1@AAVdgEdge@@@Z 1001e000 f i core:dgPolyhedra.obj
 0001:0001d0a0       ?IsInTree@dgRedBackNode@@QBEIXZ 1001e0a0 f i core:dgPolyhedra.obj
 0001:0001d0c0       ?Insert@?$dgTree@VdgEdge@@_J@@QAEPAVdgTreeNode@1@ABVdgEdge@@_J@Z 1001e0c0 f i core:dgPolyhedra.obj
 0001:0001d100       ?Insert@?$dgTree@VdgEdge@@_J@@QAEPAVdgTreeNode@1@ABVdgEdge@@_JAA_N@Z 1001e100 f i core:dgPolyhedra.obj
 0001:0001d320       ?ReplaceKey@?$dgTree@VdgEdge@@_J@@QAEPAVdgTreeNode@1@QAV21@_J@Z 1001e320 f i core:dgPolyhedra.obj
 0001:0001d380       ?Remove@?$dgTree@VdgEdge@@_J@@QAEXQAVdgTreeNode@1@@Z 1001e380 f i core:dgPolyhedra.obj
 0001:0001d3c0       ?SwapInfo@?$dgTree@VdgEdge@@_J@@QAEXAAV1@@Z 1001e3c0 f i core:dgPolyhedra.obj
 0001:0001d400       ??0?$dgStack@H@@QAE@H@Z    1001e400 f i core:dgPolyhedra.obj
 0001:0001d430       ??1?$dgStack@H@@QAE@XZ     1001e430 f i core:dgPolyhedra.obj
 0001:0001d450       ??A?$dgStack@H@@QAEAAHH@Z  1001e450 f i core:dgPolyhedra.obj
 0001:0001d4d0       ??0?$dgStack@_K@@QAE@H@Z   1001e4d0 f i core:dgPolyhedra.obj
 0001:0001d500       ??1?$dgStack@_K@@QAE@XZ    1001e500 f i core:dgPolyhedra.obj
 0001:0001d520       ??A?$dgStack@_K@@QAEAA_KH@Z 1001e520 f i core:dgPolyhedra.obj
 0001:0001d5a0       ??0?$dgStack@PAVdgEdge@@@@QAE@H@Z 1001e5a0 f i core:dgPolyhedra.obj
 0001:0001d5d0       ??1?$dgStack@PAVdgEdge@@@@QAE@XZ 1001e5d0 f i core:dgPolyhedra.obj
 0001:0001d5f0       ??A?$dgStack@PAVdgEdge@@@@QAEAAPAVdgEdge@@H@Z 1001e5f0 f i core:dgPolyhedra.obj
 0001:0001d670       ??0?$dgStack@PAVdgTreeNode@?$dgTree@VdgEdge@@_J@@@@QAE@H@Z 1001e670 f i core:dgPolyhedra.obj
 0001:0001d6a0       ??1?$dgStack@PAVdgTreeNode@?$dgTree@VdgEdge@@_J@@@@QAE@XZ 1001e6a0 f i core:dgPolyhedra.obj
 0001:0001d6c0       ??A?$dgStack@PAVdgTreeNode@?$dgTree@VdgEdge@@_J@@@@QAEAAPAVdgTreeNode@?$dgTree@VdgEdge@@_J@@H@Z 1001e6c0 f i core:dgPolyhedra.obj
 0001:0001d740       ??$GetMax@N@@YANNNN@Z      1001e740 f i core:dgPolyhedra.obj
 0001:0001d780       ??$GetMin@N@@YANNNN@Z      1001e780 f i core:dgPolyhedra.obj
 0001:0001d7c0       ??0?$dgList@UdgEdgeCollapseEdgeHandle@@@@QAE@QAVdgMemoryAllocator@@@Z 1001e7c0 f i core:dgPolyhedra.obj
 0001:0001d800       ??1?$dgList@UdgEdgeCollapseEdgeHandle@@@@UAE@XZ 1001e800 f i core:dgPolyhedra.obj
 0001:0001d820       ?Addtop@?$dgList@UdgEdgeCollapseEdgeHandle@@@@QAEPAVdgListNode@1@ABUdgEdgeCollapseEdgeHandle@@@Z 1001e820 f i core:dgPolyhedra.obj
 0001:0001d8e0       ?Remove@?$dgList@UdgEdgeCollapseEdgeHandle@@@@QAEXQAVdgListNode@1@@Z 1001e8e0 f i core:dgPolyhedra.obj
 0001:0001d930       ??0?$dgStack@VdgVertexCollapseVertexMetric@@@@QAE@H@Z 1001e930 f i core:dgPolyhedra.obj
 0001:0001d960       ??1?$dgStack@VdgVertexCollapseVertexMetric@@@@QAE@XZ 1001e960 f i core:dgPolyhedra.obj
 0001:0001d980       ??A?$dgStack@VdgVertexCollapseVertexMetric@@@@QAEAAVdgVertexCollapseVertexMetric@@H@Z 1001e980 f i core:dgPolyhedra.obj
 0001:0001da00       ??0?$dgStack@D@@QAE@H@Z    1001ea00 f i core:dgPolyhedra.obj
 0001:0001da30       ??1?$dgStack@D@@QAE@XZ     1001ea30 f i core:dgPolyhedra.obj
 0001:0001da50       ?GetSizeInBytes@?$dgStack@D@@QBEHXZ 1001ea50 f i core:dgPolyhedra.obj
 0001:0001da70       ??A?$dgStack@D@@QAEAADH@Z  1001ea70 f i core:dgPolyhedra.obj
 0001:0001daf0       ??1?$dgHeapBase@PAVdgListNode@?$dgList@UdgEdgeCollapseEdgeHandle@@@@N@@IAE@XZ 1001eaf0 f i core:dgPolyhedra.obj
 0001:0001db20       ?GetCount@?$dgHeapBase@PAVdgListNode@?$dgList@UdgEdgeCollapseEdgeHandle@@@@N@@QBEHXZ 1001eb20 f i core:dgPolyhedra.obj
 0001:0001db30       ??A?$dgHeapBase@PAVdgListNode@?$dgList@UdgEdgeCollapseEdgeHandle@@@@N@@QBEABQAVdgListNode@?$dgList@UdgEdgeCollapseEdgeHandle@@@@H@Z 1001eb30 f i core:dgPolyhedra.obj
 0001:0001db80       ??0?$dgDownHeap@PAVdgListNode@?$dgList@UdgEdgeCollapseEdgeHandle@@@@N@@QAE@QBXH@Z 1001eb80 f i core:dgPolyhedra.obj
 0001:0001dba0       ?Pop@?$dgDownHeap@PAVdgListNode@?$dgList@UdgEdgeCollapseEdgeHandle@@@@N@@QAEXXZ 1001eba0 f i core:dgPolyhedra.obj
 0001:0001dcd0       ?Push@?$dgDownHeap@PAVdgListNode@?$dgList@UdgEdgeCollapseEdgeHandle@@@@N@@QAEXAAPAVdgListNode@?$dgList@UdgEdgeCollapseEdgeHandle@@@@N@Z 1001ecd0 f i core:dgPolyhedra.obj
 0001:0001de00       ??1?$dgHeapBase@PAVdgEdge@@N@@IAE@XZ 1001ee00 f i core:dgPolyhedra.obj
 0001:0001de30       ?Flush@?$dgHeapBase@PAVdgEdge@@N@@QAEXXZ 1001ee30 f i core:dgPolyhedra.obj
 0001:0001de50       ?GetCount@?$dgHeapBase@PAVdgEdge@@N@@QBEHXZ 1001ee50 f i core:dgPolyhedra.obj
 0001:0001de60       ??A?$dgHeapBase@PAVdgEdge@@N@@QBEABQAVdgEdge@@H@Z 1001ee60 f i core:dgPolyhedra.obj
 0001:0001deb0       ??0?$dgDownHeap@PAVdgEdge@@N@@QAE@QBXH@Z 1001eeb0 f i core:dgPolyhedra.obj
 0001:0001ded0       ?Pop@?$dgDownHeap@PAVdgEdge@@N@@QAEXXZ 1001eed0 f i core:dgPolyhedra.obj
 0001:0001e000       ?Push@?$dgDownHeap@PAVdgEdge@@N@@QAEXAAPAVdgEdge@@N@Z 1001f000 f i core:dgPolyhedra.obj
 0001:0001e130       ??0?$dgList@VdgDiagonalEdge@@@@QAE@QAVdgMemoryAllocator@@@Z 1001f130 f i core:dgPolyhedra.obj
 0001:0001e170       ??1?$dgList@VdgDiagonalEdge@@@@UAE@XZ 1001f170 f i core:dgPolyhedra.obj
 0001:0001e190       ?GetCount@?$dgList@VdgDiagonalEdge@@@@QBEHXZ 1001f190 f i core:dgPolyhedra.obj
 0001:0001e1b0       ?GetFirst@?$dgList@VdgDiagonalEdge@@@@QBEPAVdgListNode@1@XZ 1001f1b0 f i core:dgPolyhedra.obj
 0001:0001e1d0       ?Append@?$dgList@VdgDiagonalEdge@@@@QAEPAVdgListNode@1@ABVdgDiagonalEdge@@@Z 1001f1d0 f i core:dgPolyhedra.obj
 0001:0001e290       ?Remove@?$dgList@VdgDiagonalEdge@@@@QAEXQAVdgListNode@1@@Z 1001f290 f i core:dgPolyhedra.obj
 0001:0001e2e0       ??_G?$dgTree@VdgEdge@@_J@@UAEPAXI@Z 1001f2e0 f i core:dgPolyhedra.obj
 0001:0001e2e0       ??_E?$dgTree@VdgEdge@@_J@@UAEPAXI@Z 1001f2e0 f i core:dgPolyhedra.obj
 0001:0001e310       ??_E?$dgList@UdgEdgeCollapseEdgeHandle@@@@UAEPAXI@Z 1001f310 f i core:dgPolyhedra.obj
 0001:0001e310       ??_G?$dgList@UdgEdgeCollapseEdgeHandle@@@@UAEPAXI@Z 1001f310 f i core:dgPolyhedra.obj
 0001:0001e340       ??_E?$dgList@VdgDiagonalEdge@@@@UAEPAXI@Z 1001f340 f i core:dgPolyhedra.obj
 0001:0001e340       ??_G?$dgList@VdgDiagonalEdge@@@@UAEPAXI@Z 1001f340 f i core:dgPolyhedra.obj
 0001:0001e370       ??0dgTreeNode@?$dgTree@VdgEdge@@_J@@AAE@ABVdgEdge@@AB_JPAV01@@Z 1001f370 f i core:dgPolyhedra.obj
 0001:0001e3c0       ??_GdgTreeNode@?$dgTree@VdgEdge@@_J@@EAEPAXI@Z 1001f3c0 f i core:dgPolyhedra.obj
 0001:0001e3c0       ??_EdgTreeNode@?$dgTree@VdgEdge@@_J@@EAEPAXI@Z 1001f3c0 f i core:dgPolyhedra.obj
 0001:0001e3f0       ??1dgTreeNode@?$dgTree@VdgEdge@@_J@@EAE@XZ 1001f3f0 f i core:dgPolyhedra.obj
 0001:0001e410       ?GetLeft@dgTreeNode@?$dgTree@VdgEdge@@_J@@ABEPAV12@XZ 1001f410 f i core:dgPolyhedra.obj
 0001:0001e430       ?GetRight@dgTreeNode@?$dgTree@VdgEdge@@_J@@ABEPAV12@XZ 1001f430 f i core:dgPolyhedra.obj
 0001:0001e450       ??3?$dgList@UdgEdgeCollapseEdgeHandle@@@@SAXQAX@Z 1001f450 f i core:dgPolyhedra.obj
 0001:0001e470       ??2dgListNode@?$dgList@UdgEdgeCollapseEdgeHandle@@@@CAPAXIQAVdgMemoryAllocator@@@Z 1001f470 f i core:dgPolyhedra.obj
 0001:0001e490       ??0dgListNode@?$dgList@UdgEdgeCollapseEdgeHandle@@@@AAE@ABUdgEdgeCollapseEdgeHandle@@QAV01@1@Z 1001f490 f i core:dgPolyhedra.obj
 0001:0001e500       ??0dgEdgeCollapseEdgeHandle@@QAE@ABU0@@Z 1001f500 f i core:dgPolyhedra.obj
 0001:0001e580       ??_GdgListNode@?$dgList@UdgEdgeCollapseEdgeHandle@@@@EAEPAXI@Z 1001f580 f i core:dgPolyhedra.obj
 0001:0001e580       ??_EdgListNode@?$dgList@UdgEdgeCollapseEdgeHandle@@@@EAEPAXI@Z 1001f580 f i core:dgPolyhedra.obj
 0001:0001e5b0       ??1dgListNode@?$dgList@UdgEdgeCollapseEdgeHandle@@@@EAE@XZ 1001f5b0 f i core:dgPolyhedra.obj
 0001:0001e5d0       ??3dgListNode@?$dgList@UdgEdgeCollapseEdgeHandle@@@@CAXQAX@Z 1001f5d0 f i core:dgPolyhedra.obj
 0001:0001e5f0       ??3?$dgList@VdgDiagonalEdge@@@@SAXQAX@Z 1001f5f0 f i core:dgPolyhedra.obj
 0001:0001e610       ??2dgListNode@?$dgList@VdgDiagonalEdge@@@@CAPAXIQAVdgMemoryAllocator@@@Z 1001f610 f i core:dgPolyhedra.obj
 0001:0001e630       ??0dgListNode@?$dgList@VdgDiagonalEdge@@@@AAE@ABVdgDiagonalEdge@@QAV01@1@Z 1001f630 f i core:dgPolyhedra.obj
 0001:0001e6a0       ??_EdgListNode@?$dgList@VdgDiagonalEdge@@@@EAEPAXI@Z 1001f6a0 f i core:dgPolyhedra.obj
 0001:0001e6a0       ??_GdgListNode@?$dgList@VdgDiagonalEdge@@@@EAEPAXI@Z 1001f6a0 f i core:dgPolyhedra.obj
 0001:0001e6d0       ??1dgListNode@?$dgList@VdgDiagonalEdge@@@@EAE@XZ 1001f6d0 f i core:dgPolyhedra.obj
 0001:0001e6f0       ??3dgListNode@?$dgList@VdgDiagonalEdge@@@@CAXQAX@Z 1001f6f0 f i core:dgPolyhedra.obj
 0001:0001e710       ?Insert@?$dgTree@VdgEdge@@_J@@QAEPAVdgTreeNode@1@QAV21@_J@Z 1001f710 f i core:dgPolyhedra.obj
 0001:0001e8e0       ?RemoveAll@?$dgTree@VdgEdge@@_J@@QAEXXZ 1001f8e0 f i core:dgPolyhedra.obj
 0001:0001e920       ?Unlink@?$dgTree@VdgEdge@@_J@@QAEXQAVdgTreeNode@1@@Z 1001f920 f i core:dgPolyhedra.obj
 0001:0001e990       ?CompareKeys@?$dgTree@VdgEdge@@_J@@ABEHAB_J0@Z 1001f990 f i core:dgPolyhedra.obj
 0001:0001ea00       ??$Swap@PAVdgTreeNode@?$dgTree@VdgEdge@@_J@@@@YAXAAPAVdgTreeNode@?$dgTree@VdgEdge@@_J@@0@Z 1001fa00 f i core:dgPolyhedra.obj
 0001:0001ea30       ??$Swap@H@@YAXAAH0@Z       1001fa30 f i core:dgPolyhedra.obj
 0001:0001ea60       ??$GetMax@N@@YANNN@Z       1001fa60 f i core:dgPolyhedra.obj
 0001:0001ea80       ??$GetMin@N@@YANNN@Z       1001fa80 f i core:dgPolyhedra.obj
 0001:0001eaa0       ?RemoveAll@?$dgList@UdgEdgeCollapseEdgeHandle@@@@QAEXXZ 1001faa0 f i core:dgPolyhedra.obj
 0001:0001eb60       ?Unlink@?$dgList@UdgEdgeCollapseEdgeHandle@@@@QAEXQAVdgListNode@1@@Z 1001fb60 f i core:dgPolyhedra.obj
 0001:0001ec10       ??0?$dgHeapBase@PAVdgListNode@?$dgList@UdgEdgeCollapseEdgeHandle@@@@N@@IAE@QBXH@Z 1001fc10 f i core:dgPolyhedra.obj
 0001:0001ec50       ??0?$dgHeapBase@PAVdgEdge@@N@@IAE@QBXH@Z 1001fc50 f i core:dgPolyhedra.obj
 0001:0001ec90       ?RemoveAll@?$dgList@VdgDiagonalEdge@@@@QAEXXZ 1001fc90 f i core:dgPolyhedra.obj
 0001:0001ed50       ?Unlink@?$dgList@VdgDiagonalEdge@@@@QAEXQAVdgListNode@1@@Z 1001fd50 f i core:dgPolyhedra.obj
 0001:0001ee00       ?GetKey@dgTreeNode@?$dgTree@VdgEdge@@_J@@QBEAB_JXZ 1001fe00 f i core:dgPolyhedra.obj
 0001:0001ee20       ?Unlink@dgListNode@?$dgList@UdgEdgeCollapseEdgeHandle@@@@AAEXXZ 1001fe20 f i core:dgPolyhedra.obj
 0001:0001ee70       ?GetNext@dgListNode@?$dgList@UdgEdgeCollapseEdgeHandle@@@@QBEPAV12@XZ 1001fe70 f i core:dgPolyhedra.obj
 0001:0001ee90       ?GetPrev@dgListNode@?$dgList@UdgEdgeCollapseEdgeHandle@@@@QBEPAV12@XZ 1001fe90 f i core:dgPolyhedra.obj
 0001:0001eeb0       ?Unlink@dgListNode@?$dgList@VdgDiagonalEdge@@@@AAEXXZ 1001feb0 f i core:dgPolyhedra.obj
 0001:0001ef00       ?GetPrev@dgListNode@?$dgList@VdgDiagonalEdge@@@@QBEPAV12@XZ 1001ff00 f i core:dgPolyhedra.obj
 0001:0001ef20       ?Flush@?$dgHeapBase@PAVdgListNode@?$dgList@UdgEdgeCollapseEdgeHandle@@@@N@@QAEXXZ 1001ff20 f i core:dgPolyhedra.obj
 0001:0001ef40       ?Minimum@dgRedBackNode@@QBEPAV1@XZ 1001ff40 f   core:dgTree.obj
 0001:0001ef70       ?Maximum@dgRedBackNode@@QBEPAV1@XZ 1001ff70 f   core:dgTree.obj
 0001:0001efa0       ?Prev@dgRedBackNode@@QBEPAV1@XZ 1001ffa0 f   core:dgTree.obj
 0001:0001f000       ?Next@dgRedBackNode@@QBEPAV1@XZ 10020000 f   core:dgTree.obj
 0001:0001f060       ?RotateLeft@dgRedBackNode@@QAEXQAPAV1@@Z 10020060 f   core:dgTree.obj
 0001:0001f110       ?RotateRight@dgRedBackNode@@QAEXQAPAV1@@Z 10020110 f   core:dgTree.obj
 0001:0001f1c0       ?InsertFixup@dgRedBackNode@@QAEXQAPAV1@@Z 100201c0 f   core:dgTree.obj
 0001:0001f3d0       ?RemoveFixup@dgRedBackNode@@QAEXQAV1@QAPAV1@@Z 100203d0 f   core:dgTree.obj
 0001:0001f6f0       ?Unlink@dgRedBackNode@@QAEXQAPAV1@@Z 100206f0 f   core:dgTree.obj
 0001:0001f990       ?Remove@dgRedBackNode@@QAEXQAPAV1@@Z 10020990 f   core:dgTree.obj
 0001:0001f9e0       ?RemoveAllLow@dgRedBackNode@@QAEXXZ 100209e0 f   core:dgTree.obj
 0001:0001fa50       ?RemoveAll@dgRedBackNode@@QAEXXZ 10020a50 f   core:dgTree.obj
 0001:0001fa90       ?GetColor@dgRedBackNode@@QBE?AW4REDBLACK_COLOR@1@XZ 10020a90 f i core:dgTree.obj
 0001:0001fab0       ??0dgThreads@@QAE@XZ       10020ab0 f   core:dgThreads.obj
 0001:0001fba0       ??1dgThreads@@QAE@XZ       10020ba0 f   core:dgThreads.obj
 0001:0001fbc0       ?GetThreadCount@dgThreads@@QBEHXZ 10020bc0 f   core:dgThreads.obj
 0001:0001fbf0       ?ClearTimers@dgThreads@@QAEXXZ 10020bf0 f   core:dgThreads.obj
 0001:0001fc30       ?SetPerfomanceCounter@dgThreads@@QAEXP6AIXZ@Z 10020c30 f   core:dgThreads.obj
 0001:0001fc50       ?GetPerfomanceTicks@dgThreads@@QBEII@Z 10020c50 f   core:dgThreads.obj
 0001:0001fc80       ?CreateThreaded@dgThreads@@QAEXH@Z 10020c80 f   core:dgThreads.obj
 0001:0001fd90       ?DestroydgThreads@dgThreads@@QAEXXZ 10020d90 f   core:dgThreads.obj
 0001:0001fef0       ?SubmitJob@dgThreads@@QAEHQAVdgWorkerThread@@@Z 10020ef0 f   core:dgThreads.obj
 0001:0001ffd0       ?ThreadExecute@dgThreads@@CGIPAX@Z 10020fd0 f   core:dgThreads.obj
 0001:00020000       ?GetWork@dgThreads@@AAEHPAPAVdgWorkerThread@@@Z 10021000 f   core:dgThreads.obj
 0001:000200a0       ?DoWork@dgThreads@@AAEXH@Z 100210a0 f   core:dgThreads.obj
 0001:000201a0       ?SynchronizationBarrier@dgThreads@@QAEXXZ 100211a0 f   core:dgThreads.obj
 0001:000201d0       ?CalculateChunkSizes@dgThreads@@QBEXHQAH@Z 100211d0 f   core:dgThreads.obj
 0001:00020250       ?dgGetLock@dgThreads@@QBEXXZ 10021250 f   core:dgThreads.obj
 0001:00020290       ?dgReleaseLock@dgThreads@@QBEXXZ 10021290 f   core:dgThreads.obj
 0001:000202b0       ?dgGetIndirectLock@dgThreads@@QAEXPAH@Z 100212b0 f   core:dgThreads.obj
 0001:000202d0       ?dgReleaseIndirectLock@dgThreads@@QAEXPAH@Z 100212d0 f   core:dgThreads.obj
 0001:000202f0       ?dgSpinUnlock@@YAXPAH@Z    100212f0 f i core:dgThreads.obj
 0001:00020300       ??$GetMin@H@@YAHHH@Z       10021300 f i core:dgThreads.obj
 0001:00020320       ?Determinant2x2@@YANQAY01$$CBNQAN@Z 10021320 f   core:dgSmallDeterminant.obj
 0001:00020390       ?Determinant2x2@@YA?AVdgGoogol@@QAY01$$CBV1@@Z 10021390 f   core:dgSmallDeterminant.obj
 0001:000203f0       ?Determinant3x3@@YANQAY02$$CBNQAN@Z 100213f0 f   core:dgSmallDeterminant.obj
 0001:00020520       ?Determinant3x3@@YA?AVdgGoogol@@QAY02$$CBV1@@Z 10021520 f   core:dgSmallDeterminant.obj
 0001:00020750       ?Determinant4x4@@YANQAY03$$CBNQAN@Z 10021750 f   core:dgSmallDeterminant.obj
 0001:000208a0       ?Determinant4x4@@YA?AVdgGoogol@@QAY03$$CBV1@@Z 100218a0 f   core:dgSmallDeterminant.obj
 0001:00020b10       ??_I@YGXPAXIHP6EX0@Z@Z     10021b10 f i core:dgSmallDeterminant.obj
 0001:00020b40       ?GetIdentitySphere@@YAABVdgSphere@@XZ 10021b40 f   core:dgSphere.obj
 0001:00020b50       ??0dgSphere@@QAE@XZ        10021b50 f   core:dgSphere.obj
 0001:00020ba0       ??0dgSphere@@QAE@ABVdgQuaternion@@ABVdgVector@@1@Z 10021ba0 f   core:dgSphere.obj
 0001:00020c20       ??0dgSphere@@QAE@ABVdgMatrix@@ABVdgVector@@@Z 10021c20 f   core:dgSphere.obj
 0001:00020c80       ?SetDimensions@dgSphere@@QAEXQBMHQBHHPBVdgMatrix@@@Z 10021c80 f   core:dgSphere.obj
 0001:00021af0       ?SetDimensions@dgSphere@@QAEXQBMHHPBVdgMatrix@@@Z 10022af0 f   core:dgSphere.obj
 0001:00022410       ?SetDimensions@dgSphere@@QAEXMMM@Z 10023410 f i core:dgSphere.obj
 0001:000224b0       ??4dgSphere@@QAEAAV0@ABVdgMatrix@@@Z 100234b0 f i core:dgSphere.obj
 0001:00022550       ??Y?$dgTemplateVector@M@@QAEAAV0@ABV0@@Z 10023550 f i core:dgSphere.obj
 0001:000225a0       ?CompProduct@?$dgTemplateVector@M@@QBE?AV1@ABV1@@Z 100235a0 f i core:dgSphere.obj
 0001:00022610       ??0dgGoogol@@QAE@XZ        10023610 f   core:dgGoogol.obj
 0001:00022640       ??0dgGoogol@@QAE@N@Z       10023640 f   core:dgGoogol.obj
 0001:00022720       ??1dgGoogol@@QAE@XZ        10023720 f   core:dgGoogol.obj
 0001:00022730       ?GetAproximateValue@dgGoogol@@QBENXZ 10023730 f   core:dgGoogol.obj
 0001:000227c0       ?NegateMantissa@dgGoogol@@ABEXQA_K@Z 100237c0 f   core:dgGoogol.obj
 0001:00022840       ?CopySignedMantissa@dgGoogol@@ABEXQA_K@Z 10023840 f   core:dgGoogol.obj
 0001:00022880       ?ShiftRightMantissa@dgGoogol@@ABEXQA_KH@Z 10023880 f   core:dgGoogol.obj
 0001:000229b0       ?LeadinZeros@dgGoogol@@ABEH_K@Z 100239b0 f   core:dgGoogol.obj
 0001:00022c70       ?NormalizeMantissa@dgGoogol@@ABEHQA_K@Z 10023c70 f   core:dgGoogol.obj
 0001:00022e20       ?CheckCarrier@dgGoogol@@ABE_K_K0@Z 10023e20 f   core:dgGoogol.obj
 0001:00022e70       ??HdgGoogol@@QBE?AV0@ABV0@@Z 10023e70 f   core:dgGoogol.obj
 0001:00023160       ??GdgGoogol@@QBE?AV0@ABV0@@Z 10024160 f   core:dgGoogol.obj
 0001:000231b0       ?ExtendeMultiply@dgGoogol@@ABEX_K0AA_K1@Z 100241b0 f   core:dgGoogol.obj
 0001:00023380       ?ScaleMantissa@dgGoogol@@ABEXQA_K_K@Z 10024380 f   core:dgGoogol.obj
 0001:000234e0       ??DdgGoogol@@QBE?AV0@ABV0@@Z 100244e0 f   core:dgGoogol.obj
 0001:000238c0       ??KdgGoogol@@QBE?AV0@ABV0@@Z 100248c0 f   core:dgGoogol.obj
 0001:00023b50       ??YdgGoogol@@QAE?AV0@ABV0@@Z 10024b50 f   core:dgGoogol.obj
 0001:00023ba0       ??ZdgGoogol@@QAE?AV0@ABV0@@Z 10024ba0 f   core:dgGoogol.obj
 0001:00023bf0       ?Floor@dgGoogol@@QBE?AV1@XZ 10024bf0 f   core:dgGoogol.obj
 0001:00023d10       ?ToString@dgGoogol@@QBEXQAD@Z 10024d10 f   core:dgGoogol.obj
 0001:00023e70       ?Trace@dgGoogol@@QBEXXZ    10024e70 f   core:dgGoogol.obj
 0001:00023ea0       ??0dgWorld@@QAE@QAVdgMemoryAllocator@@@Z 10024ea0 f   physics:dgWorld.obj
 0001:00024440       ??1dgWorld@@UAE@XZ         10025440 f   physics:dgWorld.obj
 0001:000245f0       ?GetPerformanceCount@dgWorld@@CAIXZ 100255f0 f   physics:dgWorld.obj
 0001:00024600       ?AddSentinelBody@dgWorld@@AAEXXZ 10025600 f   physics:dgWorld.obj
 0001:00024690       ?GetSentinelBody@dgWorld@@QBEPAVdgBody@@XZ 10025690 f   physics:dgWorld.obj
 0001:000246b0       ?SetSolverMode@dgWorld@@QAEXH@Z 100256b0 f   physics:dgWorld.obj
 0001:000246e0       ?SetFrictionMode@dgWorld@@QAEXH@Z 100256e0 f   physics:dgWorld.obj
 0001:00024700       ?SetHardwareMode@dgWorld@@QAEXH@Z 10025700 f   physics:dgWorld.obj
 0001:00024730       ?GetHardwareMode@dgWorld@@QAEHPAD@Z 10025730 f   physics:dgWorld.obj
 0001:00024790       ?SetThreadsCount@dgWorld@@QAEXH@Z 10025790 f   physics:dgWorld.obj
 0001:000247d0       ?GetThreadsCount@dgWorld@@QBEHXZ 100257d0 f   physics:dgWorld.obj
 0001:000247f0       ?GetMaxThreadsCount@dgWorld@@QBEHXZ 100257f0 f   physics:dgWorld.obj
 0001:00024810       ?EnableThreadOnSingleIsland@dgWorld@@QAEXH@Z 10025810 f   physics:dgWorld.obj
 0001:00024830       ?GetThreadOnSingleIsland@dgWorld@@QBEHXZ 10025830 f   physics:dgWorld.obj
 0001:00024850       ?SetFrictionThreshold@dgWorld@@QAEXM@Z 10025850 f   physics:dgWorld.obj
 0001:00024880       ?RemoveAllGroupID@dgWorld@@QAEXXZ 10025880 f   physics:dgWorld.obj
 0001:000248e0       ?DestroyAllBodies@dgWorld@@QAEXXZ 100258e0 f   physics:dgWorld.obj
 0001:000249f0       ?CreateBody@dgWorld@@QAEPAVdgBody@@QAVdgCollision@@ABVdgMatrix@@@Z 100259f0 f   physics:dgWorld.obj
 0001:00024ce0       ?DestroyBody@dgWorld@@QAEXQAVdgBody@@@Z 10025ce0 f   physics:dgWorld.obj
 0001:00024d90       ?DestroyConstraint@dgWorld@@QAEXPAVdgConstraint@@@Z 10025d90 f   physics:dgWorld.obj
 0001:00024de0       ?UpdateCollision@dgWorld@@QAEXXZ 10025de0 f   physics:dgWorld.obj
 0001:00024f60       ?Update@dgWorld@@QAEXM@Z   10025f60 f   physics:dgWorld.obj
 0001:00025180       ?GetPerformaceFuntion@dgWorld@@QBEP6AIXZXZ 10026180 f   physics:dgWorld.obj
 0001:000251a0       ?SetPerfomanceCounter@dgWorld@@QAEXP6AIXZ@Z 100261a0 f   physics:dgWorld.obj
 0001:000251f0       ?GetPerfomanceTicks@dgWorld@@QBEII@Z 100261f0 f   physics:dgWorld.obj
 0001:00025220       ?GetThreadPerfomanceTicks@dgWorld@@QBEII@Z 10026220 f   physics:dgWorld.obj
 0001:00025240       ?SetUserData@dgWorld@@QAEXQAX@Z 10026240 f   physics:dgWorld.obj
 0001:00025260       ?GetUserData@dgWorld@@QBEPAXXZ 10026260 f   physics:dgWorld.obj
 0001:00025280       ?SetIslandUpdateCallback@dgWorld@@QAEXP6AIQBV1@PAXH@Z@Z 10026280 f   physics:dgWorld.obj
 0001:000252a0       ?SetDestroyCollisionCallback@dgWorld@@QAEXP6AXQBV1@PAVdgCollision@@@Z@Z 100262a0 f   physics:dgWorld.obj
 0001:000252c0       ?SetLeavingWorldCallback@dgWorld@@QAEXP6AXPAVdgBody@@H@Z@Z 100262c0 f   physics:dgWorld.obj
 0001:000252e0       ?SetBodyDestructionByExeciveForce@dgWorld@@QAEXP6AXQBVdgBody@@PBVdgContact@@@Z@Z 100262e0 f   physics:dgWorld.obj
 0001:00025300       ?CreateBallConstraint@dgWorld@@QAEPAVdgBallConstraint@@ABVdgVector@@QAVdgBody@@PAV4@@Z 10026300 f   physics:dgWorld.obj
 0001:000253c0       ?CreateHingeConstraint@dgWorld@@QAEPAVdgHingeConstraint@@ABVdgVector@@0QAVdgBody@@PAV4@@Z 100263c0 f   physics:dgWorld.obj
 0001:00025490       ?CreateUpVectorConstraint@dgWorld@@QAEPAVdgUpVectorConstraint@@ABVdgVector@@PAVdgBody@@@Z 10026490 f   physics:dgWorld.obj
 0001:00025530       ?CreateSlidingConstraint@dgWorld@@QAEPAVdgSlidingConstraint@@ABVdgVector@@0QAVdgBody@@PAV4@@Z 10026530 f   physics:dgWorld.obj
 0001:00025600       ?CreateCorkscrewConstraint@dgWorld@@QAEPAVdgCorkscrewConstraint@@ABVdgVector@@0QAVdgBody@@PAV4@@Z 10026600 f   physics:dgWorld.obj
 0001:000256d0       ?CreateUniversalConstraint@dgWorld@@QAEPAVdgUniversalConstraint@@ABVdgVector@@00QAVdgBody@@PAV4@@Z 100266d0 f   physics:dgWorld.obj
 0001:000257a0       ?GetBodiesCount@dgWorld@@QBEHXZ 100267a0 f   physics:dgWorld.obj
 0001:000257c0       ?GetConstraintsCount@dgWorld@@QBEHXZ 100267c0 f   physics:dgWorld.obj
 0001:000257e0       ?BodySetMatrix@dgWorld@@QAEXPAVdgBody@@ABVdgMatrix@@@Z 100267e0 f   physics:dgWorld.obj
 0001:00025aa0       ?AddBodyImpulse@dgWorld@@QAEXPAVdgBody@@ABVdgVector@@1@Z 10026aa0 f   physics:dgWorld.obj
 0001:00025ae0       ?ApplyImpulseArray@dgWorld@@QAEXPAVdgBody@@HHQBM1@Z 10026ae0 f   physics:dgWorld.obj
 0001:00025b20       ?AreBodyConnectedByJoints@dgWorld@@AAE_NQAVdgBody@@0@Z 10026b20 f   physics:dgWorld.obj
 0001:00025d00       ?FlushCache@dgWorld@@QAEXXZ 10026d00 f   physics:dgWorld.obj
 0001:00025d80       ??0dgActiveContacts@@QAE@QAVdgMemoryAllocator@@@Z 10026d80 f i physics:dgWorld.obj
 0001:00025db0       ??_GdgActiveContacts@@UAEPAXI@Z 10026db0 f i physics:dgWorld.obj
 0001:00025db0       ??_EdgActiveContacts@@UAEPAXI@Z 10026db0 f i physics:dgWorld.obj
 0001:00025de0       ??1dgActiveContacts@@UAE@XZ 10026de0 f i physics:dgWorld.obj
 0001:00025e00       ??2dgCollision@@SAPAXIQAVdgMemoryAllocator@@@Z 10026e00 f i physics:dgWorld.obj
 0001:00025e20       ??0dgBodyCollisionList@@QAE@QAVdgMemoryAllocator@@@Z 10026e20 f i physics:dgWorld.obj
 0001:00025e50       ??_EdgBodyCollisionList@@UAEPAXI@Z 10026e50 f i physics:dgWorld.obj
 0001:00025e50       ??_GdgBodyCollisionList@@UAEPAXI@Z 10026e50 f i physics:dgWorld.obj
 0001:00025e80       ??1dgBodyCollisionList@@UAE@XZ 10026e80 f i physics:dgWorld.obj
 0001:00025ea0       ??0dgBodyMaterialList@@QAE@QAVdgMemoryAllocator@@@Z 10026ea0 f i physics:dgWorld.obj
 0001:00025ed0       ??_GdgBodyMaterialList@@UAEPAXI@Z 10026ed0 f i physics:dgWorld.obj
 0001:00025ed0       ??_EdgBodyMaterialList@@UAEPAXI@Z 10026ed0 f i physics:dgWorld.obj
 0001:00025f00       ??1dgBodyMaterialList@@UAE@XZ 10026f00 f i physics:dgWorld.obj
 0001:00025f20       ??0dgDetroyBodyByForce@dgWorld@@QAE@XZ 10026f20 f i physics:dgWorld.obj
 0001:00025f40       ??0dgCollisionPoint@@QAE@QAVdgMemoryAllocator@@@Z 10026f40 f i physics:dgWorld.obj
 0001:00025f80       ?ModifierGetMatrix@dgCollision@@UBE?AVdgMatrix@@XZ 10026f80 f i physics:dgWorld.obj
 0001:00025fb0       ?ModifierSetMatrix@dgCollision@@UAEXABVdgMatrix@@@Z 10026fb0 f i physics:dgWorld.obj
 0001:00025fc0       ?Release@dgCollision@@UAEHXZ 10026fc0 f i physics:dgWorld.obj
 0001:00026020       ?SetBreakImpulse@dgCollision@@UAEXM@Z 10027020 f i physics:dgWorld.obj
 0001:00026030       ?GetBreakImpulse@dgCollision@@UBEMXZ 10027030 f i physics:dgWorld.obj
 0001:00026050       ?IsEdgeIntersection@dgCollision@@UBE_NXZ 10027050 f i physics:dgWorld.obj
 0001:00026060       ??_GdgCollisionPoint@@UAEPAXI@Z 10027060 f i physics:dgWorld.obj
 0001:00026060       ??_EdgCollisionPoint@@UAEPAXI@Z 10027060 f i physics:dgWorld.obj
 0001:00026090       ??3dgCollision@@SAXQAX@Z   10027090 f i physics:dgWorld.obj
 0001:000260b0       ??1dgCollisionPoint@@UAE@XZ 100270b0 f i physics:dgWorld.obj
 0001:000260d0       ??_EdgWorld@@UAEPAXI@Z     100270d0 f i physics:dgWorld.obj
 0001:000260d0       ??_GdgWorld@@UAEPAXI@Z     100270d0 f i physics:dgWorld.obj
 0001:00026100       ??3dgWorld@@SAXQAX@Z       10027100 f i physics:dgWorld.obj
 0001:00026120       ??1dgWorldDynamicUpdate@@QAE@XZ 10027120 f i physics:dgWorld.obj
 0001:00026230       ??1dgSolverWorlkerThreads@@UAE@XZ 10027230 f i physics:dgWorld.obj
 0001:00026250       ??1dgParallelSolverClear@@UAE@XZ 10027250 f i physics:dgWorld.obj
 0001:00026270       ??1dgParallelSolverBodyInertia@@UAE@XZ 10027270 f i physics:dgWorld.obj
 0001:00026290       ??1dgParallelSolverUpdateVeloc@@UAE@XZ 10027290 f i physics:dgWorld.obj
 0001:000262b0       ??1dgParallelSolverUpdateForce@@UAE@XZ 100272b0 f i physics:dgWorld.obj
 0001:000262d0       ??1dgParallelSolverCalculateForces@@UAE@XZ 100272d0 f i physics:dgWorld.obj
 0001:000262f0       ??1dgParallelSolverInitInternalForces@@UAE@XZ 100272f0 f i physics:dgWorld.obj
 0001:00026310       ??1dgParallelSolverBuildJacobianRows@@UAE@XZ 10027310 f i physics:dgWorld.obj
 0001:00026330       ??1dgParallelSolverJointAcceleration@@UAE@XZ 10027330 f i physics:dgWorld.obj
 0001:00026350       ??1dgParallelSolverInitFeedbackUpdate@@UAE@XZ 10027350 f i physics:dgWorld.obj
 0001:00026370       ??1dgParallelSolverBuildJacobianMatrix@@UAE@XZ 10027370 f i physics:dgWorld.obj
 0001:00026390       ??2dgBody@@SAPAXIQAVdgMemoryAllocator@@@Z 10027390 f i physics:dgWorld.obj
 0001:000263b0       ??_GdgBody@@QAEPAXI@Z      100273b0 f i physics:dgWorld.obj
 0001:000263e0       ??3dgBody@@SAXQAX@Z        100273e0 f i physics:dgWorld.obj
 0001:00026400       ??3?$dgList@PAVdgContact@@@@SAXQAX@Z 10027400 f i physics:dgWorld.obj
 0001:00026420       ??3?$dgTree@PAVdgCollision@@I@@SAXQAX@Z 10027420 f i physics:dgWorld.obj
 0001:00026440       ??3?$dgTree@VdgContactMaterial@@I@@SAXQAX@Z 10027440 f i physics:dgWorld.obj
 0001:00026460       ?GetInfo@dgListNode@?$dgList@PAVdgContact@@@@QAEAAPAVdgContact@@XZ 10027460 f i physics:dgWorld.obj
 0001:00026480       ?GetNext@dgListNode@?$dgList@PAVdgContact@@@@QBEPAV12@XZ 10027480 f i physics:dgWorld.obj
 0001:000264a0       ?GetCount@?$dgList@VdgBodyMasterListCell@@@@QBEHXZ 100274a0 f i physics:dgWorld.obj
 0001:000264c0       ?GetCount@?$dgList@VdgBodyMasterListRow@@@@QBEHXZ 100274c0 f i physics:dgWorld.obj
 0001:000264e0       ??0?$dgList@PAVdgContact@@@@QAE@QAVdgMemoryAllocator@@@Z 100274e0 f i physics:dgWorld.obj
 0001:00026520       ??1?$dgList@PAVdgContact@@@@UAE@XZ 10027520 f i physics:dgWorld.obj
 0001:00026540       ?GetFirst@?$dgList@PAVdgContact@@@@QBEPAVdgListNode@1@XZ 10027540 f i physics:dgWorld.obj
 0001:00026560       ??0?$dgTree@PAVdgCollision@@I@@QAE@QAVdgMemoryAllocator@@@Z 10027560 f i physics:dgWorld.obj
 0001:000265a0       ??1?$dgTree@PAVdgCollision@@I@@UAE@XZ 100275a0 f i physics:dgWorld.obj
 0001:000265c0       ?GetCount@?$dgTree@PAVdgCollision@@I@@QBEHXZ 100275c0 f i physics:dgWorld.obj
 0001:000265e0       ??0?$dgTree@VdgContactMaterial@@I@@QAE@QAVdgMemoryAllocator@@@Z 100275e0 f i physics:dgWorld.obj
 0001:00026620       ??1?$dgTree@VdgContactMaterial@@I@@UAE@XZ 10027620 f i physics:dgWorld.obj
 0001:00026640       ?GetCount@?$dgTree@VdgContactMaterial@@I@@QBEHXZ 10027640 f i physics:dgWorld.obj
 0001:00026660       ?GetRoot@?$dgTree@VdgContactMaterial@@I@@QBEPAVdgTreeNode@1@XZ 10027660 f i physics:dgWorld.obj
 0001:00026680       ?Remove@?$dgTree@VdgContactMaterial@@I@@QAEXQAVdgTreeNode@1@@Z 10027680 f i physics:dgWorld.obj
 0001:000266c0       ??0?$dgTree@PAXI@@QAE@QAVdgMemoryAllocator@@@Z 100276c0 f i physics:dgWorld.obj
 0001:00026700       ??1?$dgTree@PAXI@@UAE@XZ   10027700 f i physics:dgWorld.obj
 0001:00026720       ??$GetMax@H@@YAHHH@Z       10027720 f i physics:dgWorld.obj
 0001:00026740       ??$ClampValue@I@@YAIIII@Z  10027740 f i physics:dgWorld.obj
 0001:00026770       ??$Swap@PAVdgBody@@@@YAXAAPAVdgBody@@0@Z 10027770 f i physics:dgWorld.obj
 0001:000267a0       ??_G?$dgList@PAVdgContact@@@@UAEPAXI@Z 100277a0 f i physics:dgWorld.obj
 0001:000267a0       ??_E?$dgList@PAVdgContact@@@@UAEPAXI@Z 100277a0 f i physics:dgWorld.obj
 0001:000267d0       ??_G?$dgTree@PAVdgCollision@@I@@UAEPAXI@Z 100277d0 f i physics:dgWorld.obj
 0001:000267d0       ??_E?$dgTree@PAVdgCollision@@I@@UAEPAXI@Z 100277d0 f i physics:dgWorld.obj
 0001:00026800       ??_G?$dgTree@VdgContactMaterial@@I@@UAEPAXI@Z 10027800 f i physics:dgWorld.obj
 0001:00026800       ??_E?$dgTree@VdgContactMaterial@@I@@UAEPAXI@Z 10027800 f i physics:dgWorld.obj
 0001:00026830       ??_G?$dgTree@PAXI@@UAEPAXI@Z 10027830 f i physics:dgWorld.obj
 0001:00026830       ??_E?$dgTree@PAXI@@UAEPAXI@Z 10027830 f i physics:dgWorld.obj
 0001:00026860       ??3?$dgTree@PAXI@@SAXQAX@Z 10027860 f i physics:dgWorld.obj
 0001:00026880       ?RemoveAll@?$dgList@PAVdgContact@@@@QAEXXZ 10027880 f i physics:dgWorld.obj
 0001:00026940       ?RemoveAll@?$dgTree@PAVdgCollision@@I@@QAEXXZ 10027940 f i physics:dgWorld.obj
 0001:00026980       ?RemoveAll@?$dgTree@VdgContactMaterial@@I@@QAEXXZ 10027980 f i physics:dgWorld.obj
 0001:000269c0       ?RemoveAll@?$dgTree@PAXI@@QAEXXZ 100279c0 f i physics:dgWorld.obj
 0001:00026a00       ?Unlink@dgListNode@?$dgList@PAVdgContact@@@@AAEXXZ 10027a00 f i physics:dgWorld.obj
 0001:00026a50       ??_EdgWorld@@WBI@AEPAXI@Z  10027a50 f i physics:dgWorld.obj
 0001:00026a60       ??_EdgWorld@@WDI@AEPAXI@Z  10027a60 f i physics:dgWorld.obj
 0001:00026a70       ??_EdgWorld@@WCI@AEPAXI@Z  10027a70 f i physics:dgWorld.obj
 0001:00026a80       ??1dgWorkerThread@@UAE@XZ  10027a80 f i physics:dgWorld.obj
 0001:00026aa0       ??_EdgWorkerThread@@UAEPAXI@Z 10027aa0 f i physics:dgWorld.obj
 0001:00026aa0       ??_GdgWorkerThread@@UAEPAXI@Z 10027aa0 f i physics:dgWorld.obj
 0001:00026ad0       ??0dgSortArray@@QAE@XZ     10027ad0 f   physics:dgBroadPhaseCollision.obj
 0001:00026b00       ??1dgSortArray@@UAE@XZ     10027b00 f   physics:dgBroadPhaseCollision.obj
 0001:00026b50       ?Add@dgSortArray@@QAEXQAVdgBody@@@Z 10027b50 f   physics:dgBroadPhaseCollision.obj
 0001:00026bc0       ?Remove@dgSortArray@@QAEXQAVdgBody@@@Z 10027bc0 f   physics:dgBroadPhaseCollision.obj
 0001:00026c30       ?Sort@dgSortArray@@QAEMXZ  10027c30 f   physics:dgBroadPhaseCollision.obj
 0001:00026d90       ?RayCast@dgSortArray@@QBEMMABUdgLineBox@@P6AMQBVdgBody@@ABVdgVector@@HQAXM@ZP6AI1QBVdgCollision@@3@Z3@Z 10027d90 f   physics:dgBroadPhaseCollision.obj
 0001:00026ec0       ?InvalidateCache@dgSortArray@@QAEXXZ 10027ec0 f   physics:dgBroadPhaseCollision.obj
 0001:00026f70       ?SanityCheck@dgSortArray@@QAE_NXZ 10027f70 f   physics:dgBroadPhaseCollision.obj
 0001:00026ff0       ??0dgBroadPhaseCell@@QAE@XZ 10027ff0 f   physics:dgBroadPhaseCollision.obj
 0001:00027010       ??1dgBroadPhaseCell@@QAE@XZ 10028010 f   physics:dgBroadPhaseCollision.obj
 0001:00027060       ?Init@dgBroadPhaseCell@@AAEXHPAVdgMemoryAllocator@@@Z 10028060 f   physics:dgBroadPhaseCollision.obj
 0001:000270d0       ?Add@dgBroadPhaseCell@@AAEXQAVdgBody@@@Z 100280d0 f   physics:dgBroadPhaseCollision.obj
 0001:00027160       ?Remove@dgBroadPhaseCell@@AAEXQAVdgBody@@@Z 10028160 f   physics:dgBroadPhaseCollision.obj
 0001:00027220       ?Sort@dgBroadPhaseCell@@AAEXXZ 10028220 f   physics:dgBroadPhaseCollision.obj
 0001:000272b0       ?UpdateAutoPair@dgBroadPhaseCell@@AAEXQAVdgWorld@@H@Z 100282b0 f   physics:dgBroadPhaseCollision.obj
 0001:00027430       ??0dgBroadPhaseLayer@@QAE@XZ 10028430 f   physics:dgBroadPhaseCollision.obj
 0001:00027470       ??1dgBroadPhaseLayer@@UAE@XZ 10028470 f   physics:dgBroadPhaseCollision.obj
 0001:000274c0       ?Init@dgBroadPhaseLayer@@AAEXQAVdgWorld@@MH@Z 100284c0 f   physics:dgBroadPhaseCollision.obj
 0001:00027530       ?FindCreate@dgBroadPhaseLayer@@AAEPAVdgBroadPhaseCell@@HH@Z 10028530 f   physics:dgBroadPhaseCollision.obj
 0001:000275c0       ??0dgBroadPhaseCollision@@AAE@PAVdgMemoryAllocator@@@Z 100285c0 f   physics:dgBroadPhaseCollision.obj
 0001:00027760       ??1dgBroadPhaseCollision@@AAE@XZ 10028760 f   physics:dgBroadPhaseCollision.obj
 0001:000277f0       ?Init@dgBroadPhaseCollision@@AAEXXZ 100287f0 f   physics:dgBroadPhaseCollision.obj
 0001:00027870       ?GetWorldSize@dgBroadPhaseCollision@@QBEXAAVdgVector@@0@Z 10028870 f   physics:dgBroadPhaseCollision.obj
 0001:000278c0       ?SetWorldSize@dgBroadPhaseCollision@@QAEXABVdgVector@@0@Z 100288c0 f   physics:dgBroadPhaseCollision.obj
 0001:00027d30       ?InvalidateCache@dgBroadPhaseCollision@@AAEXXZ 10028d30 f   physics:dgBroadPhaseCollision.obj
 0001:00027dc0       ?Add@dgBroadPhaseCollision@@AAEXQAVdgBody@@@Z 10028dc0 f   physics:dgBroadPhaseCollision.obj
 0001:00027e20       ?Remove@dgBroadPhaseCollision@@AAEXQAVdgBody@@@Z 10028e20 f   physics:dgBroadPhaseCollision.obj
 0001:00027ef0       ?UpdatePairs@dgBroadPhaseCollision@@ABEXQAVdgBody@@QAVdgListNode@?$dgList@VdgSortArrayEntry@@@@HH@Z 10028ef0 f   physics:dgBroadPhaseCollision.obj
 0001:00028040       ?UpdatePairs@dgBroadPhaseCollision@@ABEXAAVdgBroadPhaseCell@@0H@Z 10029040 f   physics:dgBroadPhaseCollision.obj
 0001:00028120       ?ForEachBodyInAABB@dgBroadPhaseCollision@@QBEXABVdgVector@@0P6AXPAVdgBody@@QAX@Z2@Z 10029120 f   physics:dgBroadPhaseCollision.obj
 0001:000283c0       ?ConvexCast@dgBroadPhaseCollision@@QBEHQAVdgCollision@@ABVdgMatrix@@ABVdgVector@@AAMP6AIQBVdgBody@@QBV2@QAX@Z6QAVdgConvexCastReturnInfo@@HH@Z 100293c0 f   physics:dgBroadPhaseCollision.obj
 0001:00028f60       ?Realloc@dgBroadPhaseCalculateContactsWorkerThread@@QAEXHHH@Z 10029f60 f   physics:dgBroadPhaseCollision.obj
 0001:000290c0       ?ThreadExecute@dgBroadPhaseCellPairsWorkerThread@@UAEXXZ 1002a0c0 f   physics:dgBroadPhaseCollision.obj
 0001:00029180       ?ThreadExecute@dgBroadPhaseApplyExternalForce@@UAEXXZ 1002a180 f   physics:dgBroadPhaseCollision.obj
 0001:000296b0       ?ThreadExecute@dgBroadPhaseCalculateContactsWorkerThread@@UAEXXZ 1002a6b0 f   physics:dgBroadPhaseCollision.obj
 0001:00029910       ?ThreadExecute@dgBroadPhaseMaterialCallbackWorkerThread@@UAEXXZ 1002a910 f   physics:dgBroadPhaseCollision.obj
 0001:00029a50       ?RayCast@dgBroadPhaseCollision@@QBEXABVdgVector@@0P6AMQBVdgBody@@0HQAXM@ZP6AI1QBVdgCollision@@2@Z2@Z 1002aa50 f   physics:dgBroadPhaseCollision.obj
 0001:0002a4d0       ?UpdateBodyBroadphase@dgBroadPhaseCollision@@AAEXQAVdgBody@@H@Z 1002b4d0 f   physics:dgBroadPhaseCollision.obj
 0001:0002aad0       ?UpdateContactsBroadPhaseBegin@dgBroadPhaseCollision@@AAEIM_NI@Z 1002bad0 f   physics:dgBroadPhaseCollision.obj
 0001:0002bb40       ?UpdateContactsBroadPhaseEnd@dgBroadPhaseCollision@@AAEXM@Z 1002cb40 f   physics:dgBroadPhaseCollision.obj
 0001:0002bcc0       ?UpdateContactsSimd@dgBroadPhaseCollision@@AAEXM_N@Z 1002ccc0 f   physics:dgBroadPhaseCollision.obj
 0001:0002c040       ?UpdateContacts@dgBroadPhaseCollision@@AAEXM_N@Z 1002d040 f   physics:dgBroadPhaseCollision.obj
 0001:0002c3c0       ??_GdgSortArray@@UAEPAXI@Z 1002d3c0 f i physics:dgBroadPhaseCollision.obj
 0001:0002c3c0       ??_EdgSortArray@@UAEPAXI@Z 1002d3c0 f i physics:dgBroadPhaseCollision.obj
 0001:0002c3f0       ??_GdgBroadPhaseLayer@@UAEPAXI@Z 1002d3f0 f i physics:dgBroadPhaseCollision.obj
 0001:0002c3f0       ??_EdgBroadPhaseLayer@@UAEPAXI@Z 1002d3f0 f i physics:dgBroadPhaseCollision.obj
 0001:0002c420       ?GetKey@dgBroadPhaseLayer@@ABEIHH@Z 1002d420 f i physics:dgBroadPhaseCollision.obj
 0001:0002c440       ??0dgBroadPhaseApplyExternalForce@@QAE@XZ 1002d440 f i physics:dgBroadPhaseCollision.obj
 0001:0002c460       ??0dgBroadPhaseCellPairsWorkerThread@@QAE@XZ 1002d460 f i physics:dgBroadPhaseCollision.obj
 0001:0002c480       ??0dgBroadPhaseMaterialCallbackWorkerThread@@QAE@XZ 1002d480 f i physics:dgBroadPhaseCollision.obj
 0001:0002c4a0       ??0dgBroadPhaseCalculateContactsWorkerThread@@QAE@XZ 1002d4a0 f i physics:dgBroadPhaseCollision.obj
 0001:0002c4c0       ??_GdgBroadPhaseApplyExternalForce@@UAEPAXI@Z 1002d4c0 f i physics:dgBroadPhaseCollision.obj
 0001:0002c4c0       ??_EdgBroadPhaseApplyExternalForce@@UAEPAXI@Z 1002d4c0 f i physics:dgBroadPhaseCollision.obj
 0001:0002c4f0       ??1dgBroadPhaseApplyExternalForce@@UAE@XZ 1002d4f0 f i physics:dgBroadPhaseCollision.obj
 0001:0002c510       ??_GdgBroadPhaseCellPairsWorkerThread@@UAEPAXI@Z 1002d510 f i physics:dgBroadPhaseCollision.obj
 0001:0002c510       ??_EdgBroadPhaseCellPairsWorkerThread@@UAEPAXI@Z 1002d510 f i physics:dgBroadPhaseCollision.obj
 0001:0002c540       ??1dgBroadPhaseCellPairsWorkerThread@@UAE@XZ 1002d540 f i physics:dgBroadPhaseCollision.obj
 0001:0002c560       ??_GdgBroadPhaseMaterialCallbackWorkerThread@@UAEPAXI@Z 1002d560 f i physics:dgBroadPhaseCollision.obj
 0001:0002c560       ??_EdgBroadPhaseMaterialCallbackWorkerThread@@UAEPAXI@Z 1002d560 f i physics:dgBroadPhaseCollision.obj
 0001:0002c590       ??1dgBroadPhaseMaterialCallbackWorkerThread@@UAE@XZ 1002d590 f i physics:dgBroadPhaseCollision.obj
 0001:0002c5b0       ??_GdgBroadPhaseCalculateContactsWorkerThread@@UAEPAXI@Z 1002d5b0 f i physics:dgBroadPhaseCollision.obj
 0001:0002c5b0       ??_EdgBroadPhaseCalculateContactsWorkerThread@@UAEPAXI@Z 1002d5b0 f i physics:dgBroadPhaseCollision.obj
 0001:0002c5e0       ??1dgBroadPhaseCalculateContactsWorkerThread@@UAE@XZ 1002d5e0 f i physics:dgBroadPhaseCollision.obj
 0001:0002c600       ?log@@YAMM@Z               1002d600 f i physics:dgBroadPhaseCollision.obj
 0001:0002c620       _logf                      1002d620 f i physics:dgBroadPhaseCollision.obj
 0001:0002c640       ?pow@@YAMMM@Z              1002d640 f i physics:dgBroadPhaseCollision.obj
 0001:0002c660       _powf                      1002d660 f i physics:dgBroadPhaseCollision.obj
 0001:0002c690       ?Find@dgBroadPhaseLayer@@ABEPAVdgBroadPhaseCell@@HH@Z 1002d690 f i physics:dgBroadPhaseCollision.obj
 0001:0002c6e0       ?ApplyExtenalForces@dgBody@@AAEXMH@Z 1002d6e0 f i physics:dgBroadPhaseCollision.obj
 0001:0002c7b0       ?IsInEquelibrium@dgBody@@QBE_NXZ 1002d7b0 f i physics:dgBroadPhaseCollision.obj
 0001:0002c980       ??0dgLineBox@@QAE@XZ       1002d980 f i physics:dgBroadPhaseCollision.obj
 0001:0002c9c0       ?GetCollisionPrimityType@dgCollision@@QBE?AW4dgCollisionID@@XZ 1002d9c0 f i physics:dgBroadPhaseCollision.obj
 0001:0002c9e0       ?KeyToIndex@dgBroadPhaseLayer@@ABEXHAAH0@Z 1002d9e0 f i physics:dgBroadPhaseCollision.obj
 0001:0002ca10       ??0dgWorkerThread@@QAE@XZ  1002da10 f i physics:dgBroadPhaseCollision.obj
 0001:0002ca40       ?dgOverlapTest@@YAHABVdgVector@@000@Z 1002da40 f i physics:dgBroadPhaseCollision.obj
 0001:0002cae0       ??3?$dgList@VdgSortArrayEntry@@@@SAXQAX@Z 1002dae0 f i physics:dgBroadPhaseCollision.obj
 0001:0002cb00       ??3?$dgTree@VdgBroadPhaseCell@@I@@SAXQAX@Z 1002db00 f i physics:dgBroadPhaseCollision.obj
 0001:0002cb20       ?GetKey@dgTreeNode@?$dgTree@VdgBroadPhaseCell@@I@@QBEABIXZ 1002db20 f i physics:dgBroadPhaseCollision.obj
 0001:0002cb40       ?GetInfo@dgTreeNode@?$dgTree@VdgBroadPhaseCell@@I@@QAEAAVdgBroadPhaseCell@@XZ 1002db40 f i physics:dgBroadPhaseCollision.obj
 0001:0002cb60       ?GetInfo@dgListNode@?$dgList@VdgSortArrayEntry@@@@QAEAAVdgSortArrayEntry@@XZ 1002db60 f i physics:dgBroadPhaseCollision.obj
 0001:0002cb80       ?GetNext@dgListNode@?$dgList@VdgSortArrayEntry@@@@QBEPAV12@XZ 1002db80 f i physics:dgBroadPhaseCollision.obj
 0001:0002cba0       ?GetPrev@dgListNode@?$dgList@VdgSortArrayEntry@@@@QBEPAV12@XZ 1002dba0 f i physics:dgBroadPhaseCollision.obj
 0001:0002cbc0       ??0Iterator@?$dgTree@VdgBroadPhaseCell@@I@@QAE@ABV1@@Z 1002dbc0 f i physics:dgBroadPhaseCollision.obj
 0001:0002cbf0       ??1Iterator@?$dgTree@VdgBroadPhaseCell@@I@@QAE@XZ 1002dbf0 f i physics:dgBroadPhaseCollision.obj
 0001:0002cc00       ?Begin@Iterator@?$dgTree@VdgBroadPhaseCell@@I@@QAEXXZ 1002dc00 f i physics:dgBroadPhaseCollision.obj
 0001:0002cc20       ??BIterator@?$dgTree@VdgBroadPhaseCell@@I@@QBEHXZ 1002dc20 f i physics:dgBroadPhaseCollision.obj
 0001:0002cc40       ??EIterator@?$dgTree@VdgBroadPhaseCell@@I@@QAEXH@Z 1002dc40 f i physics:dgBroadPhaseCollision.obj
 0001:0002cc90       ?GetNode@Iterator@?$dgTree@VdgBroadPhaseCell@@I@@QBEPAVdgTreeNode@2@XZ 1002dc90 f i physics:dgBroadPhaseCollision.obj
 0001:0002cca0       ??Z?$dgTemplateVector@M@@QAEAAV0@ABV0@@Z 1002dca0 f i physics:dgBroadPhaseCollision.obj
 0001:0002ce10       ??0?$dgList@VdgSortArrayEntry@@@@QAE@QAVdgMemoryAllocator@@@Z 1002de10 f i physics:dgBroadPhaseCollision.obj
 0001:0002ce50       ??1?$dgList@VdgSortArrayEntry@@@@UAE@XZ 1002de50 f i physics:dgBroadPhaseCollision.obj
 0001:0002ce70       ?SetAllocator@?$dgList@VdgSortArrayEntry@@@@QAEXQAVdgMemoryAllocator@@@Z 1002de70 f i physics:dgBroadPhaseCollision.obj
 0001:0002cea0       ?GetCount@?$dgList@VdgSortArrayEntry@@@@QBEHXZ 1002dea0 f i physics:dgBroadPhaseCollision.obj
 0001:0002cec0       ?GetFirst@?$dgList@VdgSortArrayEntry@@@@QBEPAVdgListNode@1@XZ 1002dec0 f i physics:dgBroadPhaseCollision.obj
 0001:0002cee0       ?Append@?$dgList@VdgSortArrayEntry@@@@QAEPAVdgListNode@1@XZ 1002dee0 f i physics:dgBroadPhaseCollision.obj
 0001:0002cfa0       ?RotateToBegin@?$dgList@VdgSortArrayEntry@@@@QAEXQAVdgListNode@1@@Z 1002dfa0 f i physics:dgBroadPhaseCollision.obj
 0001:0002d010       ?InsertAfter@?$dgList@VdgSortArrayEntry@@@@QAEXQAVdgListNode@1@0@Z 1002e010 f i physics:dgBroadPhaseCollision.obj
 0001:0002d1e0       ?Remove@?$dgList@VdgSortArrayEntry@@@@QAEXQAVdgListNode@1@@Z 1002e1e0 f i physics:dgBroadPhaseCollision.obj
 0001:0002d230       ??0?$dgTree@VdgBroadPhaseCell@@I@@QAE@QAVdgMemoryAllocator@@@Z 1002e230 f i physics:dgBroadPhaseCollision.obj
 0001:0002d270       ??1?$dgTree@VdgBroadPhaseCell@@I@@UAE@XZ 1002e270 f i physics:dgBroadPhaseCollision.obj
 0001:0002d290       ?SetAllocator@?$dgTree@VdgBroadPhaseCell@@I@@QAEXQAVdgMemoryAllocator@@@Z 1002e290 f i physics:dgBroadPhaseCollision.obj
 0001:0002d2c0       ?GetCount@?$dgTree@VdgBroadPhaseCell@@I@@QBEHXZ 1002e2c0 f i physics:dgBroadPhaseCollision.obj
 0001:0002d2e0       ?Minimum@?$dgTree@VdgBroadPhaseCell@@I@@QBEPAVdgTreeNode@1@XZ 1002e2e0 f i physics:dgBroadPhaseCollision.obj
 0001:0002d310       ?Find@?$dgTree@VdgBroadPhaseCell@@I@@QBEPAVdgTreeNode@1@I@Z 1002e310 f i physics:dgBroadPhaseCollision.obj
 0001:0002d430       ?GetNodeFromInfo@?$dgTree@VdgBroadPhaseCell@@I@@QBEPAVdgTreeNode@1@AAVdgBroadPhaseCell@@@Z 1002e430 f i physics:dgBroadPhaseCollision.obj
 0001:0002d4d0       ?Insert@?$dgTree@VdgBroadPhaseCell@@I@@QAEPAVdgTreeNode@1@ABVdgBroadPhaseCell@@I@Z 1002e4d0 f i physics:dgBroadPhaseCollision.obj
 0001:0002d510       ?Remove@?$dgTree@VdgBroadPhaseCell@@I@@QAEXQAVdgTreeNode@1@@Z 1002e510 f i physics:dgBroadPhaseCollision.obj
 0001:0002d550       ??_E?$dgList@VdgSortArrayEntry@@@@UAEPAXI@Z 1002e550 f i physics:dgBroadPhaseCollision.obj
 0001:0002d550       ??_G?$dgList@VdgSortArrayEntry@@@@UAEPAXI@Z 1002e550 f i physics:dgBroadPhaseCollision.obj
 0001:0002d580       ??_E?$dgTree@VdgBroadPhaseCell@@I@@UAEPAXI@Z 1002e580 f i physics:dgBroadPhaseCollision.obj
 0001:0002d580       ??_G?$dgTree@VdgBroadPhaseCell@@I@@UAEPAXI@Z 1002e580 f i physics:dgBroadPhaseCollision.obj
 0001:0002d5b0       ?GetLeft@dgTreeNode@?$dgTree@VdgBroadPhaseCell@@I@@ABEPAV12@XZ 1002e5b0 f i physics:dgBroadPhaseCollision.obj
 0001:0002d5d0       ?GetRight@dgTreeNode@?$dgTree@VdgBroadPhaseCell@@I@@ABEPAV12@XZ 1002e5d0 f i physics:dgBroadPhaseCollision.obj
 0001:0002d5f0       ??2dgListNode@?$dgList@VdgSortArrayEntry@@@@CAPAXIQAVdgMemoryAllocator@@@Z 1002e5f0 f i physics:dgBroadPhaseCollision.obj
 0001:0002d610       ??0dgListNode@?$dgList@VdgSortArrayEntry@@@@AAE@QAV01@0@Z 1002e610 f i physics:dgBroadPhaseCollision.obj
 0001:0002d680       ??_EdgListNode@?$dgList@VdgSortArrayEntry@@@@EAEPAXI@Z 1002e680 f i physics:dgBroadPhaseCollision.obj
 0001:0002d680       ??_GdgListNode@?$dgList@VdgSortArrayEntry@@@@EAEPAXI@Z 1002e680 f i physics:dgBroadPhaseCollision.obj
 0001:0002d6b0       ??1dgListNode@?$dgList@VdgSortArrayEntry@@@@EAE@XZ 1002e6b0 f i physics:dgBroadPhaseCollision.obj
 0001:0002d6d0       ??3dgListNode@?$dgList@VdgSortArrayEntry@@@@CAXQAX@Z 1002e6d0 f i physics:dgBroadPhaseCollision.obj
 0001:0002d6f0       ?Unlink@dgListNode@?$dgList@VdgSortArrayEntry@@@@AAEXXZ 1002e6f0 f i physics:dgBroadPhaseCollision.obj
 0001:0002d740       ?AddFirst@dgListNode@?$dgList@VdgSortArrayEntry@@@@AAEXQAV12@@Z 1002e740 f i physics:dgBroadPhaseCollision.obj
 0001:0002d760       ?RemoveAll@?$dgList@VdgSortArrayEntry@@@@QAEXXZ 1002e760 f i physics:dgBroadPhaseCollision.obj
 0001:0002d820       ?Unlink@?$dgList@VdgSortArrayEntry@@@@QAEXQAVdgListNode@1@@Z 1002e820 f i physics:dgBroadPhaseCollision.obj
 0001:0002d8d0       ?SanityCheck@?$dgList@VdgSortArrayEntry@@@@QBE_NXZ 1002e8d0 f i physics:dgBroadPhaseCollision.obj
 0001:0002da60       ?Insert@?$dgTree@VdgBroadPhaseCell@@I@@QAEPAVdgTreeNode@1@ABVdgBroadPhaseCell@@IAA_N@Z 1002ea60 f i physics:dgBroadPhaseCollision.obj
 0001:0002dc60       ?RemoveAll@?$dgTree@VdgBroadPhaseCell@@I@@QAEXXZ 1002ec60 f i physics:dgBroadPhaseCollision.obj
 0001:0002dca0       ?CompareKeys@?$dgTree@VdgBroadPhaseCell@@I@@ABEHABI0@Z 1002eca0 f i physics:dgBroadPhaseCollision.obj
 0001:0002dce0       ??0dgTreeNode@?$dgTree@VdgBroadPhaseCell@@I@@AAE@ABVdgBroadPhaseCell@@ABIPAV01@@Z 1002ece0 f i physics:dgBroadPhaseCollision.obj
 0001:0002dd20       ??_EdgTreeNode@?$dgTree@VdgBroadPhaseCell@@I@@EAEPAXI@Z 1002ed20 f i physics:dgBroadPhaseCollision.obj
 0001:0002dd20       ??_GdgTreeNode@?$dgTree@VdgBroadPhaseCell@@I@@EAEPAXI@Z 1002ed20 f i physics:dgBroadPhaseCollision.obj
 0001:0002dd50       ??1dgTreeNode@?$dgTree@VdgBroadPhaseCell@@I@@EAE@XZ 1002ed50 f i physics:dgBroadPhaseCollision.obj
 0001:0002dd80       ??0dgBroadPhaseCell@@QAE@ABV0@@Z 1002ed80 f i physics:dgBroadPhaseCollision.obj
 0001:0002dde0       ??0dgSortArray@@QAE@ABV0@@Z 1002ede0 f i physics:dgBroadPhaseCollision.obj
 0001:0002de20       ??__G@YGXPAX0IHP6EPAX00@Z@Z 1002ee20 f i physics:dgBroadPhaseCollision.obj
 0001:0002de50       ??0?$dgList@VdgSortArrayEntry@@@@QAE@ABV0@@Z 1002ee50 f i physics:dgBroadPhaseCollision.obj
 0001:0002dea0       ?GetIslandBody@dgWorld@@QBEPAVdgBody@@QBXH@Z 1002eea0 f   physics:dgWorldDynamicUpdate.obj
 0001:0002df10       ??0dgWorldDynamicUpdate@@AAE@XZ 1002ef10 f   physics:dgWorldDynamicUpdate.obj
 0001:0002e070       ?UpdateDynamics@dgWorldDynamicUpdate@@AAEXQAVdgWorld@@HM@Z 1002f070 f   physics:dgWorldDynamicUpdate.obj
 0001:0002e730       ?ThreadExecute@dgSolverWorlkerThreads@@UAEXXZ 1002f730 f   physics:dgWorldDynamicUpdate.obj
 0001:0002f470       ?ReallocBodyMemory@dgWorldDynamicUpdate@@AAEXH@Z 10030470 f   physics:dgWorldDynamicUpdate.obj
 0001:0002f5d0       ?ReallocIslandMemory@dgWorldDynamicUpdate@@AAEXH@Z 100305d0 f   physics:dgWorldDynamicUpdate.obj
 0001:0002f730       ?ReallocJointsMemory@dgWorldDynamicUpdate@@AAEXH@Z 10030730 f   physics:dgWorldDynamicUpdate.obj
 0001:0002f890       ?ReallocJacobiansMemory@dgWorldDynamicUpdate@@AAEXHH@Z 10030890 f   physics:dgWorldDynamicUpdate.obj
 0001:00030100       ?ReallocIntenalForcesMemory@dgWorldDynamicUpdate@@AAEXHH@Z 10031100 f   physics:dgWorldDynamicUpdate.obj
 0001:00030360       ?BuildIsland@dgWorldDynamicUpdate@@AAEXAAV?$dgQueue@PAVdgBody@@@@HHH@Z 10031360 f   physics:dgWorldDynamicUpdate.obj
 0001:000308c0       ?SpanningTree@dgWorldDynamicUpdate@@AAEXQAVdgBody@@@Z 100318c0 f   physics:dgWorldDynamicUpdate.obj
 0001:00031350       ?IntegrateArray@dgWorldDynamicUpdate@@ABEXPBVdgBodyInfo@@HMMH_N@Z 10032350 f   physics:dgWorldDynamicUpdate.obj
 0001:00031b50       ?GetJacobialDerivatives@dgWorldDynamicUpdate@@AAEHABVdgIsland@@H_NHM@Z 10032b50 f   physics:dgWorldDynamicUpdate.obj
 0001:00032320       ?BuildJacobianMatrixSimd@dgWorldDynamicUpdate@@AAEXABVdgIsland@@HM@Z 10033320 f   physics:dgWorldDynamicUpdate.obj
 0001:000330f0       ?BuildJacobianMatrix@dgWorldDynamicUpdate@@AAEXABVdgIsland@@HM@Z 100340f0 f   physics:dgWorldDynamicUpdate.obj
 0001:00033a80       ?CalculateReactionsForcesSimd@dgJacobianMemory@@QBEXHM@Z 10034a80 f   physics:dgWorldDynamicUpdate.obj
 0001:00033b10       ?CalculateReactionsForces@dgJacobianMemory@@QBEXHM@Z 10034b10 f   physics:dgWorldDynamicUpdate.obj
 0001:00033ba0       ?ApplyExternalForcesAndAccelerationSimd@dgJacobianMemory@@QBEXM@Z 10034ba0 f   physics:dgWorldDynamicUpdate.obj
 0001:00034610       ?ApplyExternalForcesAndAcceleration@dgJacobianMemory@@QBEXM@Z 10035610 f   physics:dgWorldDynamicUpdate.obj
 0001:00034cc0       ?SwapRowsSimd@dgJacobianMemory@@QBEXHH@Z 10035cc0 f   physics:dgWorldDynamicUpdate.obj
 0001:00035110       ?SwapRows@dgJacobianMemory@@QBEXHH@Z 10036110 f   physics:dgWorldDynamicUpdate.obj
 0001:00035310       ?CalculateSimpleBodyReactionsForcesSimd@dgJacobianMemory@@QBEXM@Z 10036310 f   physics:dgWorldDynamicUpdate.obj
 0001:00037a30       ?CalculateSimpleBodyReactionsForces@dgJacobianMemory@@QBEXM@Z 10038a30 f   physics:dgWorldDynamicUpdate.obj
 0001:00038e00       ?CalculateForcesSimulationModeSimd@dgJacobianMemory@@QBEXM@Z 10039e00 f   physics:dgWorldDynamicUpdate.obj
 0001:0003c400       ?CalculateForcesSimulationMode@dgJacobianMemory@@QBEXM@Z 1003d400 f   physics:dgWorldDynamicUpdate.obj
 0001:0003eb90       ?CalculateJointForcesSimd@dgJacobianMemory@@QBEMHPAMM@Z 1003fb90 f   physics:dgWorldDynamicUpdate.obj
 0001:00041160       ?CalculateJointForces@dgJacobianMemory@@QBEMHPAMM@Z 10042160 f   physics:dgWorldDynamicUpdate.obj
 0001:00042420       ?CalculateForcesGameModeSimd@dgJacobianMemory@@QBEXHM@Z 10043420 f   physics:dgWorldDynamicUpdate.obj
 0001:00043ff0       ?CalculateForcesGameMode@dgJacobianMemory@@QBEXHM@Z 10044ff0 f   physics:dgWorldDynamicUpdate.obj
 0001:00045340       ?ThreadExecute@dgParallelSolverBodyInertia@@UAEXXZ 10046340 f   physics:dgWorldDynamicUpdate.obj
 0001:00045450       ?ThreadExecute@dgParallelSolverBuildJacobianRows@@UAEXXZ 10046450 f   physics:dgWorldDynamicUpdate.obj
 0001:00046500       ?ThreadExecute@dgParallelSolverBuildJacobianMatrix@@UAEXXZ 10047500 f   physics:dgWorldDynamicUpdate.obj
 0001:00046d10       ?GetJacobialDerivativesParallel@dgWorldDynamicUpdate@@AAEHABVdgIsland@@_NHM@Z 10047d10 f   physics:dgWorldDynamicUpdate.obj
 0001:00046ec0       ?BuildJacobianMatrixParallel@dgWorldDynamicUpdate@@AAEXABVdgIsland@@MH@Z 10047ec0 f   physics:dgWorldDynamicUpdate.obj
 0001:00047480       ?ThreadExecute@dgParallelSolverClear@@UAEXXZ 10048480 f   physics:dgWorldDynamicUpdate.obj
 0001:000476b0       ?ThreadExecute@dgParallelSolverInitInternalForces@@UAEXXZ 100486b0 f   physics:dgWorldDynamicUpdate.obj
 0001:00047e40       ?ThreadExecute@dgParallelSolverJointAcceleration@@UAEXXZ 10048e40 f   physics:dgWorldDynamicUpdate.obj
 0001:000480a0       ?ThreadExecute@dgParallelSolverUpdateVeloc@@UAEXXZ 100490a0 f   physics:dgWorldDynamicUpdate.obj
 0001:00048560       ?ThreadExecute@dgParallelSolverUpdateForce@@UAEXXZ 10049560 f   physics:dgWorldDynamicUpdate.obj
 0001:00049080       ?ThreadExecute@dgParallelSolverInitFeedbackUpdate@@UAEXXZ 1004a080 f   physics:dgWorldDynamicUpdate.obj
 0001:000491a0       ?ThreadExecute@dgParallelSolverCalculateForces@@UAEXXZ 1004a1a0 f   physics:dgWorldDynamicUpdate.obj
 0001:0004a100       ?CalculateForcesGameModeParallel@dgJacobianMemory@@QBEXHMH@Z 1004b100 f   physics:dgWorldDynamicUpdate.obj
 0001:0004b060       ?CalculateReactionsForcesParallel@dgJacobianMemory@@QBEXHMH@Z 1004c060 f   physics:dgWorldDynamicUpdate.obj
 0001:0004b0c0       ??0dgSolverWorlkerThreads@@QAE@XZ 1004c0c0 f i physics:dgWorldDynamicUpdate.obj
 0001:0004b0e0       ??0dgParallelSolverClear@@QAE@XZ 1004c0e0 f i physics:dgWorldDynamicUpdate.obj
 0001:0004b100       ??0dgParallelSolverBodyInertia@@QAE@XZ 1004c100 f i physics:dgWorldDynamicUpdate.obj
 0001:0004b120       ??0dgParallelSolverUpdateVeloc@@QAE@XZ 1004c120 f i physics:dgWorldDynamicUpdate.obj
 0001:0004b140       ??0dgParallelSolverUpdateForce@@QAE@XZ 1004c140 f i physics:dgWorldDynamicUpdate.obj
 0001:0004b160       ??0dgParallelSolverCalculateForces@@QAE@XZ 1004c160 f i physics:dgWorldDynamicUpdate.obj
 0001:0004b180       ??0dgParallelSolverInitInternalForces@@QAE@XZ 1004c180 f i physics:dgWorldDynamicUpdate.obj
 0001:0004b1a0       ??0dgParallelSolverBuildJacobianRows@@QAE@XZ 1004c1a0 f i physics:dgWorldDynamicUpdate.obj
 0001:0004b1c0       ??0dgParallelSolverJointAcceleration@@QAE@XZ 1004c1c0 f i physics:dgWorldDynamicUpdate.obj
 0001:0004b1e0       ??0dgParallelSolverInitFeedbackUpdate@@QAE@XZ 1004c1e0 f i physics:dgWorldDynamicUpdate.obj
 0001:0004b200       ??0dgParallelSolverBuildJacobianMatrix@@QAE@XZ 1004c200 f i physics:dgWorldDynamicUpdate.obj
 0001:0004b220       ??_EdgSolverWorlkerThreads@@UAEPAXI@Z 1004c220 f i physics:dgWorldDynamicUpdate.obj
 0001:0004b220       ??_GdgSolverWorlkerThreads@@UAEPAXI@Z 1004c220 f i physics:dgWorldDynamicUpdate.obj
 0001:0004b250       ??_EdgParallelSolverClear@@UAEPAXI@Z 1004c250 f i physics:dgWorldDynamicUpdate.obj
 0001:0004b250       ??_GdgParallelSolverClear@@UAEPAXI@Z 1004c250 f i physics:dgWorldDynamicUpdate.obj
 0001:0004b280       ??_EdgParallelSolverBodyInertia@@UAEPAXI@Z 1004c280 f i physics:dgWorldDynamicUpdate.obj
 0001:0004b280       ??_GdgParallelSolverBodyInertia@@UAEPAXI@Z 1004c280 f i physics:dgWorldDynamicUpdate.obj
 0001:0004b2b0       ??_EdgParallelSolverUpdateVeloc@@UAEPAXI@Z 1004c2b0 f i physics:dgWorldDynamicUpdate.obj
 0001:0004b2b0       ??_GdgParallelSolverUpdateVeloc@@UAEPAXI@Z 1004c2b0 f i physics:dgWorldDynamicUpdate.obj
 0001:0004b2e0       ??_EdgParallelSolverUpdateForce@@UAEPAXI@Z 1004c2e0 f i physics:dgWorldDynamicUpdate.obj
 0001:0004b2e0       ??_GdgParallelSolverUpdateForce@@UAEPAXI@Z 1004c2e0 f i physics:dgWorldDynamicUpdate.obj
 0001:0004b310       ??_EdgParallelSolverCalculateForces@@UAEPAXI@Z 1004c310 f i physics:dgWorldDynamicUpdate.obj
 0001:0004b310       ??_GdgParallelSolverCalculateForces@@UAEPAXI@Z 1004c310 f i physics:dgWorldDynamicUpdate.obj
 0001:0004b340       ??_GdgParallelSolverInitInternalForces@@UAEPAXI@Z 1004c340 f i physics:dgWorldDynamicUpdate.obj
 0001:0004b340       ??_EdgParallelSolverInitInternalForces@@UAEPAXI@Z 1004c340 f i physics:dgWorldDynamicUpdate.obj
 0001:0004b370       ??_GdgParallelSolverBuildJacobianRows@@UAEPAXI@Z 1004c370 f i physics:dgWorldDynamicUpdate.obj
 0001:0004b370       ??_EdgParallelSolverBuildJacobianRows@@UAEPAXI@Z 1004c370 f i physics:dgWorldDynamicUpdate.obj
 0001:0004b3a0       ??_GdgParallelSolverJointAcceleration@@UAEPAXI@Z 1004c3a0 f i physics:dgWorldDynamicUpdate.obj
 0001:0004b3a0       ??_EdgParallelSolverJointAcceleration@@UAEPAXI@Z 1004c3a0 f i physics:dgWorldDynamicUpdate.obj
 0001:0004b3d0       ??_EdgParallelSolverInitFeedbackUpdate@@UAEPAXI@Z 1004c3d0 f i physics:dgWorldDynamicUpdate.obj
 0001:0004b3d0       ??_GdgParallelSolverInitFeedbackUpdate@@UAEPAXI@Z 1004c3d0 f i physics:dgWorldDynamicUpdate.obj
 0001:0004b400       ??_GdgParallelSolverBuildJacobianMatrix@@UAEPAXI@Z 1004c400 f i physics:dgWorldDynamicUpdate.obj
 0001:0004b400       ??_EdgParallelSolverBuildJacobianMatrix@@UAEPAXI@Z 1004c400 f i physics:dgWorldDynamicUpdate.obj
 0001:0004b430       ??0dgContraintDescritor@@QAE@XZ 1004c430 f i physics:dgWorldDynamicUpdate.obj
 0001:0004b450       ??0dgJacobianPair@@QAE@XZ  1004c450 f i physics:dgWorldDynamicUpdate.obj
 0001:0004b480       ??0dgJacobian@@QAE@XZ      1004c480 f i physics:dgWorldDynamicUpdate.obj
 0001:0004b4b0       ?AddDamingAcceleration@dgBody@@AAEXXZ 1004c4b0 f i physics:dgWorldDynamicUpdate.obj
 0001:0004b570       ?dgGetIndirectLock@dgWorld@@QAEXPAH@Z 1004c570 f i physics:dgWorldDynamicUpdate.obj
 0001:0004b590       ?dgReleaseIndirectLock@dgWorld@@QAEXPAH@Z 1004c590 f i physics:dgWorldDynamicUpdate.obj
 0001:0004b5b0       ?GetPrev@dgListNode@?$dgList@VdgBodyMasterListRow@@@@QBEPAV12@XZ 1004c5b0 f i physics:dgWorldDynamicUpdate.obj
 0001:0004b5d0       ??0?$dgQueue@PAVdgBody@@@@QAE@PAPAVdgBody@@H@Z 1004c5d0 f i physics:dgWorldDynamicUpdate.obj
 0001:0004b610       ?Insert@?$dgQueue@PAVdgBody@@@@QAEXPAVdgBody@@@Z 1004c610 f i physics:dgWorldDynamicUpdate.obj
 0001:0004b690       ?Reset@?$dgQueue@PAVdgBody@@@@QAEXXZ 1004c690 f i physics:dgWorldDynamicUpdate.obj
 0001:0004b6b0       ?IsEmpty@?$dgQueue@PAVdgBody@@@@QBE_NXZ 1004c6b0 f i physics:dgWorldDynamicUpdate.obj
 0001:0004b6d0       ?GetLast@?$dgList@VdgBodyMasterListRow@@@@QBEPAVdgListNode@1@XZ 1004c6d0 f i physics:dgWorldDynamicUpdate.obj
 0001:0004b6f0       ??$dgSort@VdgIsland@@@@YAXQAVdgIsland@@HP6AHQBV0@1QAX@Z2@Z 1004c6f0 f i physics:dgWorldDynamicUpdate.obj
 0001:0004bca0       ??$Swap@M@@YAXAAM0@Z       1004cca0 f i physics:dgWorldDynamicUpdate.obj
 0001:0004bcd0       ??$Swap@PAM@@YAXAAPAM0@Z   1004ccd0 f i physics:dgWorldDynamicUpdate.obj
 0001:0004bd00       ??$Swap@VdgJacobianPair@@@@YAXAAVdgJacobianPair@@0@Z 1004cd00 f i physics:dgWorldDynamicUpdate.obj
 0001:0004bd50       ?CreateNull@dgWorld@@QAEPAVdgCollision@@XZ 1004cd50 f   physics:dgNarrowPhaseCollision.obj
 0001:0004be00       ?CreateBox@dgWorld@@QAEPAVdgCollision@@MMMHABVdgMatrix@@@Z 1004ce00 f   physics:dgNarrowPhaseCollision.obj
 0001:0004c000       ?CreateSphere@dgWorld@@QAEPAVdgCollision@@MHABVdgMatrix@@@Z 1004d000 f   physics:dgNarrowPhaseCollision.obj
 0001:0004c170       ?CreateEllipse@dgWorld@@QAEPAVdgCollision@@MMMHABVdgMatrix@@@Z 1004d170 f   physics:dgNarrowPhaseCollision.obj
 0001:0004c340       ?CreateCapsule@dgWorld@@QAEPAVdgCollision@@MMHABVdgMatrix@@@Z 1004d340 f   physics:dgNarrowPhaseCollision.obj
 0001:0004c4e0       ?CreateCone@dgWorld@@QAEPAVdgCollision@@MMHABVdgMatrix@@@Z 1004d4e0 f   physics:dgNarrowPhaseCollision.obj
 0001:0004c680       ?CreateCylinder@dgWorld@@QAEPAVdgCollision@@MMHABVdgMatrix@@@Z 1004d680 f   physics:dgNarrowPhaseCollision.obj
 0001:0004c820       ?CreateChamferCylinder@dgWorld@@QAEPAVdgCollision@@MMHABVdgMatrix@@@Z 1004d820 f   physics:dgNarrowPhaseCollision.obj
 0001:0004c9c0       ?CreateConvexHull@dgWorld@@QAEPAVdgCollision@@HPBMHMHABVdgMatrix@@@Z 1004d9c0 f   physics:dgNarrowPhaseCollision.obj
 0001:0004cc40       ?CreateConvexModifier@dgWorld@@QAEPAVdgCollision@@PAV2@@Z 1004dc40 f   physics:dgNarrowPhaseCollision.obj
 0001:0004ccc0       ?CreateCollisionCompound@dgWorld@@QAEPAVdgCollision@@HQBQAV2@@Z 1004dcc0 f   physics:dgNarrowPhaseCollision.obj
 0001:0004cd20       ?CreateCollisionCompoundBreakable@dgWorld@@QAEPAVdgCollision@@HQBQBVdgMeshEffect@@QBHQBM1HM@Z 1004dd20 f   physics:dgNarrowPhaseCollision.obj
 0001:0004cd90       ?CreateBVH@dgWorld@@QAEPAVdgCollision@@XZ 1004dd90 f   physics:dgNarrowPhaseCollision.obj
 0001:0004cde0       ?CreateStaticUserMesh@dgWorld@@QAEPAVdgCollision@@ABVdgVector@@0ABVdgUserMeshCreation@@@Z 1004dde0 f   physics:dgNarrowPhaseCollision.obj
 0001:0004ce40       ?CreateBVHFieldCollision@dgWorld@@QAEPAVdgCollision@@HHHQBGQBDMM@Z 1004de40 f   physics:dgNarrowPhaseCollision.obj
 0001:0004ceb0       ?CreateScene@dgWorld@@QAEPAVdgCollision@@XZ 1004deb0 f   physics:dgNarrowPhaseCollision.obj
 0001:0004cf00       ?Serialize@dgWorld@@QBEXPAVdgCollision@@P6AXQAXQBXI@Z1@Z 1004df00 f   physics:dgNarrowPhaseCollision.obj
 0001:0004cf70       ?CreateFromSerialization@dgWorld@@QAEPAVdgCollision@@P6AXQAXPAXI@Z0@Z 1004df70 f   physics:dgNarrowPhaseCollision.obj
 0001:0004d6b0       ?GetMaterial@dgWorld@@QBEPAVdgContactMaterial@@II@Z 1004e6b0 f   physics:dgNarrowPhaseCollision.obj
 0001:0004d720       ?GetFirstMaterial@dgWorld@@QBEPAVdgContactMaterial@@XZ 1004e720 f   physics:dgNarrowPhaseCollision.obj
 0001:0004d770       ?GetNextMaterial@dgWorld@@QBEPAVdgContactMaterial@@PAV2@@Z 1004e770 f   physics:dgNarrowPhaseCollision.obj
 0001:0004d7e0       ?GetDefualtBodyGroupID@dgWorld@@QBEIXZ 1004e7e0 f   physics:dgNarrowPhaseCollision.obj
 0001:0004d800       ?CreateBodyGroupID@dgWorld@@QAEIXZ 1004e800 f   physics:dgNarrowPhaseCollision.obj
 0001:0004d8d0       ?RemoveFromCache@dgWorld@@QAEXQAVdgCollision@@@Z 1004e8d0 f   physics:dgNarrowPhaseCollision.obj
 0001:0004d960       ?ReleaseCollision@dgWorld@@QAEXQAVdgCollision@@@Z 1004e960 f   physics:dgNarrowPhaseCollision.obj
 0001:0004da50       ?ClosestPoint@dgWorld@@QBEHAAVdgTriplex@@QAVdgCollision@@ABVdgMatrix@@00H@Z 1004ea50 f   physics:dgNarrowPhaseCollision.obj
 0001:0004daf0       ?ClosestPoint@dgWorld@@QBEHQAVdgCollision@@ABVdgMatrix@@01AAVdgTriplex@@22H@Z 1004eaf0 f   physics:dgNarrowPhaseCollision.obj
 0001:0004de70       ?ClosestCompoundPoint@dgWorld@@ABEHQAVdgBody@@0AAVdgTriplex@@11H@Z 1004ee70 f   physics:dgNarrowPhaseCollision.obj
 0001:0004dee0       ?SortContacts@dgWorld@@ABEXQAVdgContactPoint@@H@Z 1004eee0 f   physics:dgNarrowPhaseCollision.obj
 0001:0004df80       ?ReduceContacts@dgWorld@@ABEHHQAVdgContactPoint@@HMH@Z 1004ef80 f   physics:dgNarrowPhaseCollision.obj
 0001:0004e250       ?PruneContacts@dgWorld@@ABEHHQAVdgContactPoint@@H@Z 1004f250 f   physics:dgNarrowPhaseCollision.obj
 0001:0004e4c0       ?ProcessCachedContacts@dgWorld@@ABEXQAVdgContact@@QBVdgContactMaterial@@MH@Z 1004f4c0 f   physics:dgNarrowPhaseCollision.obj
 0001:0004e930       ?ProcessTriggers@dgWorld@@AAEXQAUdgPair@dgCollidingPairCollector@@MH@Z 1004f930 f   physics:dgNarrowPhaseCollision.obj
 0001:0004ebd0       ?ProcessContacts@dgWorld@@AAEXQAUdgPair@dgCollidingPairCollector@@MH@Z 1004fbd0 f   physics:dgNarrowPhaseCollision.obj
 0001:00050460       ?ValidateContactCache@dgWorld@@ABEHQAVdgBody@@0QAVdgContact@@@Z 10051460 f   physics:dgNarrowPhaseCollision.obj
 0001:000507c0       ?CompoundContactsSimd@dgWorld@@ABEXQAUdgPair@dgCollidingPairCollector@@AAVdgCollisionParamProxy@@@Z 100517c0 f   physics:dgNarrowPhaseCollision.obj
 0001:000508b0       ?CompoundContacts@dgWorld@@ABEXQAUdgPair@dgCollidingPairCollector@@AAVdgCollisionParamProxy@@@Z 100518b0 f   physics:dgNarrowPhaseCollision.obj
 0001:000509a0       ?ConvexContactsSimd@dgWorld@@ABEXQAUdgPair@dgCollidingPairCollector@@AAVdgCollisionParamProxy@@@Z 100519a0 f   physics:dgNarrowPhaseCollision.obj
 0001:00050ce0       ?ConvexContacts@dgWorld@@ABEXQAUdgPair@dgCollidingPairCollector@@AAVdgCollisionParamProxy@@@Z 10051ce0 f   physics:dgNarrowPhaseCollision.obj
 0001:00051020       ?SceneContactsSimd@dgWorld@@ABEXABVdgProxy@dgCollisionScene@@QAUdgPair@dgCollidingPairCollector@@AAVdgCollisionParamProxy@@@Z 10052020 f   physics:dgNarrowPhaseCollision.obj
 0001:00051230       ?SceneContacts@dgWorld@@ABEXABVdgProxy@dgCollisionScene@@QAUdgPair@dgCollidingPairCollector@@AAVdgCollisionParamProxy@@@Z 10052230 f   physics:dgNarrowPhaseCollision.obj
 0001:00051440       ?SceneContacts@dgWorld@@ABEXQAUdgPair@dgCollidingPairCollector@@AAVdgCollisionParamProxy@@@Z 10052440 f   physics:dgNarrowPhaseCollision.obj
 0001:000515e0       ?SceneContactsSimd@dgWorld@@ABEXQAUdgPair@dgCollidingPairCollector@@AAVdgCollisionParamProxy@@@Z 100525e0 f   physics:dgNarrowPhaseCollision.obj
 0001:00051780       ?CalculateContactsSimd@dgWorld@@AAEXQAUdgPair@dgCollidingPairCollector@@MH@Z 10052780 f   physics:dgNarrowPhaseCollision.obj
 0001:00051a00       ?CalculateContacts@dgWorld@@AAEXQAUdgPair@dgCollidingPairCollector@@MH@Z 10052a00 f   physics:dgNarrowPhaseCollision.obj
 0001:00051c80       ?CollideContinueSimd@dgWorld@@QAEHQAVdgCollision@@ABVdgMatrix@@ABVdgVector@@20122AAMQAVdgTriplex@@4QAMHH@Z 10052c80 f   physics:dgNarrowPhaseCollision.obj
 0001:000524e0       ?CollideContinue@dgWorld@@QAEHQAVdgCollision@@ABVdgMatrix@@ABVdgVector@@20122AAMQAVdgTriplex@@4QAMHH@Z 100534e0 f   physics:dgNarrowPhaseCollision.obj
 0001:00052d30       ?Collide@dgWorld@@QAEHQAVdgCollision@@ABVdgMatrix@@01QAVdgTriplex@@2QAMHH@Z 10053d30 f   physics:dgNarrowPhaseCollision.obj
 0001:000531e0       ?GetVertexCount@dgCollisionConvex@@QBEHXZ 100541e0 f i physics:dgNarrowPhaseCollision.obj
 0001:00053200       ?GetSignature@dgCollision@@QBEIXZ 10054200 f i physics:dgNarrowPhaseCollision.obj
 0001:00053220       ??0dgCollisionParamProxy@@QAE@H@Z 10054220 f i physics:dgNarrowPhaseCollision.obj
 0001:00053270       ??0dgMatrix@@QAE@XZ        10054270 f i physics:dgNarrowPhaseCollision.obj
 0001:000532b0       ??2dgContact@@CAPAXIQAVdgMemoryAllocator@@@Z 100542b0 f i physics:dgNarrowPhaseCollision.obj
 0001:000532d0       ?AddToBreakQueue@dgWorld@@QAEXQBVdgContact@@QAVdgBody@@M@Z 100542d0 f i physics:dgNarrowPhaseCollision.obj
 0001:000533e0       ?DotProduct@dgQuaternion@@QBEMABV1@@Z 100543e0 f i physics:dgNarrowPhaseCollision.obj
 0001:00053430       ??GdgQuaternion@@QBE?AV0@ABV0@@Z 10054430 f i physics:dgNarrowPhaseCollision.obj
 0001:000534a0       ??0dgQuaternion@@QAE@MMMM@Z 100544a0 f i physics:dgNarrowPhaseCollision.obj
 0001:000534e0       ?GetInfo@dgTreeNode@?$dgTree@PAVdgCollision@@I@@QAEAAPAVdgCollision@@XZ 100544e0 f i physics:dgNarrowPhaseCollision.obj
 0001:00053500       ?GetInfo@dgTreeNode@?$dgTree@VdgContactMaterial@@I@@QAEAAVdgContactMaterial@@XZ 10054500 f i physics:dgNarrowPhaseCollision.obj
 0001:00053520       ?Append@?$dgList@VdgContactMaterial@@@@QAEPAVdgListNode@1@XZ 10054520 f i physics:dgNarrowPhaseCollision.obj
 0001:000535e0       ?Find@?$dgTree@PAVdgCollision@@I@@QBEPAVdgTreeNode@1@I@Z 100545e0 f i physics:dgNarrowPhaseCollision.obj
 0001:00053700       ?Insert@?$dgTree@PAVdgCollision@@I@@QAEPAVdgTreeNode@1@ABQAVdgCollision@@I@Z 10054700 f i physics:dgNarrowPhaseCollision.obj
 0001:00053740       ?Remove@?$dgTree@PAVdgCollision@@I@@QAEXQAVdgTreeNode@1@@Z 10054740 f i physics:dgNarrowPhaseCollision.obj
 0001:00053780       ?Minimum@?$dgTree@VdgContactMaterial@@I@@QBEPAVdgTreeNode@1@XZ 10054780 f i physics:dgNarrowPhaseCollision.obj
 0001:000537b0       ?Find@?$dgTree@VdgContactMaterial@@I@@QBEPAVdgTreeNode@1@I@Z 100547b0 f i physics:dgNarrowPhaseCollision.obj
 0001:000538e0       ?GetNodeFromInfo@?$dgTree@VdgContactMaterial@@I@@QBEPAVdgTreeNode@1@AAVdgContactMaterial@@@Z 100548e0 f i physics:dgNarrowPhaseCollision.obj
 0001:00053980       ?Insert@?$dgTree@VdgContactMaterial@@I@@QAEPAVdgTreeNode@1@ABVdgContactMaterial@@I@Z 10054980 f i physics:dgNarrowPhaseCollision.obj
 0001:000539c0       ??0?$dgStack@I@@QAE@H@Z    100549c0 f i physics:dgNarrowPhaseCollision.obj
 0001:000539f0       ??1?$dgStack@I@@QAE@XZ     100549f0 f i physics:dgNarrowPhaseCollision.obj
 0001:00053a10       ?GetSizeInBytes@?$dgStack@I@@QBEHXZ 10054a10 f i physics:dgNarrowPhaseCollision.obj
 0001:00053a30       ??A?$dgStack@I@@QAEAAIH@Z  10054a30 f i physics:dgNarrowPhaseCollision.obj
 0001:00053ab0       ??$Swap@I@@YAXAAI0@Z       10054ab0 f i physics:dgNarrowPhaseCollision.obj
 0001:00053ae0       ??$dgSort@VdgContactPoint@@@@YAXQAVdgContactPoint@@HP6AHQBV0@1QAX@Z2@Z 10054ae0 f i physics:dgNarrowPhaseCollision.obj
 0001:00053f80       ??$Swap@PAVdgListNode@?$dgList@VdgBodyMasterListCell@@@@@@YAXAAPAVdgListNode@?$dgList@VdgBodyMasterListCell@@@@0@Z 10054f80 f i physics:dgNarrowPhaseCollision.obj
 0001:00053fb0       ?GetLeft@dgTreeNode@?$dgTree@PAVdgCollision@@I@@ABEPAV12@XZ 10054fb0 f i physics:dgNarrowPhaseCollision.obj
 0001:00053fd0       ?GetRight@dgTreeNode@?$dgTree@PAVdgCollision@@I@@ABEPAV12@XZ 10054fd0 f i physics:dgNarrowPhaseCollision.obj
 0001:00053ff0       ?GetLeft@dgTreeNode@?$dgTree@VdgContactMaterial@@I@@ABEPAV12@XZ 10054ff0 f i physics:dgNarrowPhaseCollision.obj
 0001:00054010       ?GetRight@dgTreeNode@?$dgTree@VdgContactMaterial@@I@@ABEPAV12@XZ 10055010 f i physics:dgNarrowPhaseCollision.obj
 0001:00054030       ??2dgListNode@?$dgList@VdgContactMaterial@@@@CAPAXIQAVdgMemoryAllocator@@@Z 10055030 f i physics:dgNarrowPhaseCollision.obj
 0001:00054050       ??0dgListNode@?$dgList@VdgContactMaterial@@@@AAE@QAV01@0@Z 10055050 f i physics:dgNarrowPhaseCollision.obj
 0001:000540d0       ??_GdgListNode@?$dgList@VdgContactMaterial@@@@EAEPAXI@Z 100550d0 f i physics:dgNarrowPhaseCollision.obj
 0001:000540d0       ??_EdgListNode@?$dgList@VdgContactMaterial@@@@EAEPAXI@Z 100550d0 f i physics:dgNarrowPhaseCollision.obj
 0001:00054100       ??1dgListNode@?$dgList@VdgContactMaterial@@@@EAE@XZ 10055100 f i physics:dgNarrowPhaseCollision.obj
 0001:00054120       ??3dgListNode@?$dgList@VdgContactMaterial@@@@CAXQAX@Z 10055120 f i physics:dgNarrowPhaseCollision.obj
 0001:00054140       ?Insert@?$dgTree@PAVdgCollision@@I@@QAEPAVdgTreeNode@1@ABQAVdgCollision@@IAA_N@Z 10055140 f i physics:dgNarrowPhaseCollision.obj
 0001:00054340       ?CompareKeys@?$dgTree@PAVdgCollision@@I@@ABEHABI0@Z 10055340 f i physics:dgNarrowPhaseCollision.obj
 0001:00054380       ?Insert@?$dgTree@VdgContactMaterial@@I@@QAEPAVdgTreeNode@1@ABVdgContactMaterial@@IAA_N@Z 10055380 f i physics:dgNarrowPhaseCollision.obj
 0001:00054590       ?CompareKeys@?$dgTree@VdgContactMaterial@@I@@ABEHABI0@Z 10055590 f i physics:dgNarrowPhaseCollision.obj
 0001:000545d0       ??0dgTreeNode@?$dgTree@PAVdgCollision@@I@@AAE@ABQAVdgCollision@@ABIPAV01@@Z 100555d0 f i physics:dgNarrowPhaseCollision.obj
 0001:00054610       ??_GdgTreeNode@?$dgTree@PAVdgCollision@@I@@EAEPAXI@Z 10055610 f i physics:dgNarrowPhaseCollision.obj
 0001:00054610       ??_EdgTreeNode@?$dgTree@PAVdgCollision@@I@@EAEPAXI@Z 10055610 f i physics:dgNarrowPhaseCollision.obj
 0001:00054640       ??1dgTreeNode@?$dgTree@PAVdgCollision@@I@@EAE@XZ 10055640 f i physics:dgNarrowPhaseCollision.obj
 0001:00054660       ??0dgTreeNode@?$dgTree@VdgContactMaterial@@I@@AAE@ABVdgContactMaterial@@ABIPAV01@@Z 10055660 f i physics:dgNarrowPhaseCollision.obj
 0001:000546b0       ??_GdgTreeNode@?$dgTree@VdgContactMaterial@@I@@EAEPAXI@Z 100556b0 f i physics:dgNarrowPhaseCollision.obj
 0001:000546b0       ??_EdgTreeNode@?$dgTree@VdgContactMaterial@@I@@EAEPAXI@Z 100556b0 f i physics:dgNarrowPhaseCollision.obj
 0001:000546e0       ??1dgTreeNode@?$dgTree@VdgContactMaterial@@I@@EAE@XZ 100556e0 f i physics:dgNarrowPhaseCollision.obj
 0001:00054700       ??0dgMeshEffect@@QAE@QAVdgMemoryAllocator@@_N@Z 10055700 f   physics:dgMeshEffect.obj
 0001:00054750       ??0dgMeshEffect@@QAE@QAVdgMemoryAllocator@@ABVdgMatrix@@MMH11@Z 10055750 f   physics:dgMeshEffect.obj
 0001:00054b70       ??0dgMeshEffect@@QAE@AAVdgPolyhedra@@ABV0@@Z 10055b70 f   physics:dgMeshEffect.obj
 0001:00054c60       ??0dgMeshEffect@@QAE@ABV0@@Z 10055c60 f   physics:dgMeshEffect.obj
 0001:00054d50       ??0dgMeshEffect@@QAE@QAVdgCollision@@@Z 10055d50 f   physics:dgMeshEffect.obj
 0001:00055290       ??1dgMeshEffect@@UAE@XZ    10056290 f   physics:dgMeshEffect.obj
 0001:000552f0       ?Init@dgMeshEffect@@IAEX_N@Z 100562f0 f   physics:dgMeshEffect.obj
 0001:00055390       ?Triangulate@dgMeshEffect@@QAEXXZ 10056390 f   physics:dgMeshEffect.obj
 0001:00055710       ?ConvertToPolygons@dgMeshEffect@@QAEXXZ 10056710 f   physics:dgMeshEffect.obj
 0001:00055aa0       ?RemoveUnusedVertices@dgMeshEffect@@QAEXQAH@Z 10056aa0 f   physics:dgMeshEffect.obj
 0001:00055f20       ?ApplyTransform@dgMeshEffect@@QAEXABVdgMatrix@@@Z 10056f20 f   physics:dgMeshEffect.obj
 0001:00056160       ?CalculateOOBB@dgMeshEffect@@QBE?AVdgMatrix@@AAVdgBigVector@@@Z 10057160 f   physics:dgMeshEffect.obj
 0001:00056310       ?CalculateAABB@dgMeshEffect@@QBEXAAVdgBigVector@@0@Z 10057310 f   physics:dgMeshEffect.obj
 0001:000564e0       ?EnumerateAttributeArray@dgMeshEffect@@IAEHQAVdgVertexAtribute@1@@Z 100574e0 f   physics:dgMeshEffect.obj
 0001:000565c0       ?ApplyAttributeArray@dgMeshEffect@@IAEXQAVdgVertexAtribute@1@H@Z 100575c0 f   physics:dgMeshEffect.obj
 0001:00056740       ?GetOrigin@dgMeshEffect@@IBE?AVdgBigVector@@XZ 10057740 f   physics:dgMeshEffect.obj
 0001:000567f0       ?FixCylindricalMapping@dgMeshEffect@@IBEXQAVdgVertexAtribute@1@@Z 100577f0 f   physics:dgMeshEffect.obj
 0001:000569c0       ?SphericalMapping@dgMeshEffect@@QAEXH@Z 100579c0 f   physics:dgMeshEffect.obj
 0001:00056cc0       ?CylindricalMapping@dgMeshEffect@@QAEXHH@Z 10057cc0 f   physics:dgMeshEffect.obj
 0001:00057450       ?BoxMapping@dgMeshEffect@@QAEXHHH@Z 10058450 f   physics:dgMeshEffect.obj
 0001:000578d0       ?UniformBoxMapping@dgMeshEffect@@QAEXHABVdgMatrix@@@Z 100588d0 f   physics:dgMeshEffect.obj
 0001:00057c30       ?CalculateNormals@dgMeshEffect@@QAEXN@Z 10058c30 f   physics:dgMeshEffect.obj
 0001:000580b0       ?BeginPolygon@dgMeshEffect@@QAEXXZ 100590b0 f   physics:dgMeshEffect.obj
 0001:000580e0       ?AddAtribute@dgMeshEffect@@IAEXABVdgVertexAtribute@1@@Z 100590e0 f   physics:dgMeshEffect.obj
 0001:00058230       ?AddVertex@dgMeshEffect@@IAEXABVdgBigVector@@@Z 10059230 f   physics:dgMeshEffect.obj
 0001:00058370       ?AddPoint@dgMeshEffect@@IAEXPBNH@Z 10059370 f   physics:dgMeshEffect.obj
 0001:000584a0       ?PackVertexArrays@dgMeshEffect@@QAEXXZ 100594a0 f   physics:dgMeshEffect.obj
 0001:000585a0       ?AddPolygon@dgMeshEffect@@QAEXHQBNHH@Z 100595a0 f   physics:dgMeshEffect.obj
 0001:00058a30       ?AddPolygon@dgMeshEffect@@QAEXHQBMHH@Z 10059a30 f   physics:dgMeshEffect.obj
 0001:00058c80       ?EndPolygon@dgMeshEffect@@QAEXN@Z 10059c80 f   physics:dgMeshEffect.obj
 0001:00059330       ?BuildFromVertexListIndexList@dgMeshEffect@@QAEXHQBH0QBMH01H01H01H0@Z 1005a330 f   physics:dgMeshEffect.obj
 0001:00059d20       ?GetTotalFaceCount@dgMeshEffect@@QBEHXZ 1005ad20 f   physics:dgMeshEffect.obj
 0001:00059d40       ?GetTotalIndexCount@dgMeshEffect@@QBEHXZ 1005ad40 f   physics:dgMeshEffect.obj
 0001:00059df0       ?GetFaces@dgMeshEffect@@QBEXQAH0QAPAX@Z 1005adf0 f   physics:dgMeshEffect.obj
 0001:00059f10       ?GetFirstVertex@dgMeshEffect@@QAEPAXXZ 1005af10 f   physics:dgMeshEffect.obj
 0001:00059f50       ?GetNextVertex@dgMeshEffect@@QAEPAXQBX@Z 1005af50 f   physics:dgMeshEffect.obj
 0001:0005a020       ?GetVertexIndex@dgMeshEffect@@QBEHQBX@Z 1005b020 f   physics:dgMeshEffect.obj
 0001:0005a050       ?GetFirstPoint@dgMeshEffect@@QAEPAXXZ 1005b050 f   physics:dgMeshEffect.obj
 0001:0005a0d0       ?GetNextPoint@dgMeshEffect@@QAEPAXQBX@Z 1005b0d0 f   physics:dgMeshEffect.obj
 0001:0005a160       ?GetPointIndex@dgMeshEffect@@QBEHQBX@Z 1005b160 f   physics:dgMeshEffect.obj
 0001:0005a190       ?GetVertexIndexFromPoint@dgMeshEffect@@QBEHQBX@Z 1005b190 f   physics:dgMeshEffect.obj
 0001:0005a1b0       ?ConectVertex@dgMeshEffect@@QAEPAVdgEdge@@QAV2@0@Z 1005b1b0 f   physics:dgMeshEffect.obj
 0001:0005a2e0       ?GetFirstEdge@dgMeshEffect@@QAEPAXXZ 1005b2e0 f   physics:dgMeshEffect.obj
 0001:0005a360       ?GetNextEdge@dgMeshEffect@@QAEPAXQBX@Z 1005b360 f   physics:dgMeshEffect.obj
 0001:0005a420       ?GetEdgeIndex@dgMeshEffect@@QBEXQBXAAH1@Z 1005b420 f   physics:dgMeshEffect.obj
 0001:0005a460       ?GetFirstFace@dgMeshEffect@@QAEPAXXZ 1005b460 f   physics:dgMeshEffect.obj
 0001:0005a4f0       ?GetNextFace@dgMeshEffect@@QAEPAXQBX@Z 1005b4f0 f   physics:dgMeshEffect.obj
 0001:0005a5c0       ?IsFaceOpen@dgMeshEffect@@QBEHQBX@Z 1005b5c0 f   physics:dgMeshEffect.obj
 0001:0005a5f0       ?GetFaceMaterial@dgMeshEffect@@QBEHQBX@Z 1005b5f0 f   physics:dgMeshEffect.obj
 0001:0005a640       ?GetFaceIndexCount@dgMeshEffect@@QBEHQBX@Z 1005b640 f   physics:dgMeshEffect.obj
 0001:0005a690       ?GetFaceIndex@dgMeshEffect@@QBEXQBXQAH@Z 1005b690 f   physics:dgMeshEffect.obj
 0001:0005a6f0       ?GetFaceAttributeIndex@dgMeshEffect@@QBEXQBXQAH@Z 1005b6f0 f   physics:dgMeshEffect.obj
 0001:0005a750       ?GetVertexStreams@dgMeshEffect@@QAEXHQAMH0H0H0@Z 1005b750 f   physics:dgMeshEffect.obj
 0001:0005a8d0       ?GetIndirectVertexStreams@dgMeshEffect@@QAEXHQANQAH1H011H011H011@Z 1005b8d0 f   physics:dgMeshEffect.obj
 0001:0005a8e0       ?MaterialGeometryBegin@dgMeshEffect@@QAEPAVdgIndexArray@1@XZ 1005b8e0 f   physics:dgMeshEffect.obj
 0001:0005ac40       ?MaterialGeomteryEnd@dgMeshEffect@@QAEXQAVdgIndexArray@1@@Z 1005bc40 f   physics:dgMeshEffect.obj
 0001:0005ac60       ?GetFirstMaterial@dgMeshEffect@@QAEHQAVdgIndexArray@1@@Z 1005bc60 f   physics:dgMeshEffect.obj
 0001:0005ac80       ?GetNextMaterial@dgMeshEffect@@QAEHQAVdgIndexArray@1@H@Z 1005bc80 f   physics:dgMeshEffect.obj
 0001:0005acb0       ?GetMaterialGetIndexStream@dgMeshEffect@@QAEXQAVdgIndexArray@1@HQAH@Z 1005bcb0 f   physics:dgMeshEffect.obj
 0001:0005ad70       ?GetMaterialGetIndexStreamShort@dgMeshEffect@@QAEXQAVdgIndexArray@1@HQAF@Z 1005bd70 f   physics:dgMeshEffect.obj
 0001:0005ae40       ?CreateCollisionTree@dgMeshEffect@@QBEPAVdgCollision@@H@Z 1005be40 f   physics:dgMeshEffect.obj
 0001:0005b030       ?CreateConvexCollision@dgMeshEffect@@QBEPAVdgCollision@@NHABVdgMatrix@@@Z 1005c030 f   physics:dgMeshEffect.obj
 0001:0005b500       ?TransformMesh@dgMeshEffect@@QAEXABVdgMatrix@@@Z 1005c500 f   physics:dgMeshEffect.obj
 0001:0005b5e0       ?InterpolateEdge@dgMeshEffect@@IBE?AVdgVertexAtribute@1@QAVdgEdge@@N@Z 1005c5e0 f   physics:dgMeshEffect.obj
 0001:0005b810       ?Sanity@dgMeshEffect@@QBE_NXZ 1005c810 f   physics:dgMeshEffect.obj
 0001:0005b850       ?InsertEdgeVertex@dgMeshEffect@@QAEPAVdgEdge@@QAV2@N@Z 1005c850 f   physics:dgMeshEffect.obj
 0001:0005b9c0       ?InterpolateVertex@dgMeshEffect@@IBE?AVdgVertexAtribute@1@ABVdgBigVector@@QAVdgEdge@@@Z 1005c9c0 f   physics:dgMeshEffect.obj
 0001:0005c3d0       ?MergeFaces@dgMeshEffect@@IAEXQBV1@@Z 1005d3d0 f   physics:dgMeshEffect.obj
 0001:0005c570       ?ReverseMergeFaces@dgMeshEffect@@IAEXQAV1@@Z 1005d570 f   physics:dgMeshEffect.obj
 0001:0005c780       ?FilterCoplanarFaces@dgMeshEffect@@IAEXQBV1@M@Z 1005d780 f   physics:dgMeshEffect.obj
 0001:0005ca50       ?Union@dgMeshEffect@@QBEPAV1@ABVdgMatrix@@QBV1@@Z 1005da50 f   physics:dgMeshEffect.obj
 0001:0005cc70       ?Intersection@dgMeshEffect@@QBEPAV1@ABVdgMatrix@@QBV1@@Z 1005dc70 f   physics:dgMeshEffect.obj
 0001:0005ce90       ?Difference@dgMeshEffect@@QBEPAV1@ABVdgMatrix@@QBV1@@Z 1005de90 f   physics:dgMeshEffect.obj
 0001:0005d0e0       ?ClipMesh@dgMeshEffect@@QBEXABVdgMatrix@@QBV1@QAPAV1@2@Z 1005e0e0 f   physics:dgMeshEffect.obj
 0001:0005d120       ?CreateSolidTree@dgMeshEffect@@QBEPAVdgMeshEffectSolidTree@@XZ 1005e120 f   physics:dgMeshEffect.obj
 0001:0005d560       ?DestroySolidTree@dgMeshEffect@@SAXQAVdgMeshEffectSolidTree@@@Z 1005e560 f   physics:dgMeshEffect.obj
 0001:0005d5a0       ?ClipMesh@dgMeshEffect@@IBEXQBV1@QAPAV1@11@Z 1005e5a0 f   physics:dgMeshEffect.obj
 0001:0005d630       ?CheckIntersection@dgMeshEffect@@QBE_NQBVdgMeshEffectSolidTree@@N@Z 1005e630 f   physics:dgMeshEffect.obj
 0001:0005d670       ?PlaneClipMesh@dgMeshEffect@@IBEXPBV1@PAPAV1@1@Z 1005e670 f   physics:dgMeshEffect.obj
 0001:0005d6b0       ?PlaneClipMesh@dgMeshEffect@@QBEXABVdgMatrix@@0HQAPAV1@1@Z 1005e6b0 f   physics:dgMeshEffect.obj
 0001:0005e450       ?CheckSingleMesh@dgMeshEffect@@IBE_NXZ 1005f450 f   physics:dgMeshEffect.obj
 0001:0005e490       ?PlaneApplyCap@dgMeshEffect@@IAEHPBV1@ABVdgBigPlane@@@Z 1005f490 f   physics:dgMeshEffect.obj
 0001:0005ec50       ?HasOpenEdges@dgMeshEffect@@QBE_NXZ 1005fc50 f   physics:dgMeshEffect.obj
 0001:0005ecc0       ?CalculateVolume@dgMeshEffect@@QBENXZ 1005fcc0 f   physics:dgMeshEffect.obj
 0001:0005ed00       ?SeparateDuplicateLoops@dgMeshEffect@@QAE_NQAVdgEdge@@@Z 1005fd00 f   physics:dgMeshEffect.obj
 0001:0005eda0       ?GetNextLayer@dgMeshEffect@@IAEPAV1@H@Z 1005fda0 f   physics:dgMeshEffect.obj
 0001:0005f020       ?ClipMesh@dgMeshEffect@@IBEXQBVdgMeshEffectSolidTree@@QAPAV1@11@Z 10060020 f   physics:dgMeshEffect.obj
 0001:0005fca0       ?RepairTJoints@dgMeshEffect@@QAEX_N@Z 10060ca0 f   physics:dgMeshEffect.obj
 0001:00060bb0       ??_GdgMeshEffect@@UAEPAXI@Z 10061bb0 f i physics:dgMeshEffect.obj
 0001:00060bb0       ??_EdgMeshEffect@@UAEPAXI@Z 10061bb0 f i physics:dgMeshEffect.obj
 0001:00060be0       ??0dgCollisionInfo@@QAE@XZ 10061be0 f i physics:dgMeshEffect.obj
 0001:00060c00       ?QuantizeCordinade@dgMeshEffect@@IBENN@Z 10061c00 f i physics:dgMeshEffect.obj
 0001:00060c70       ??0dgVertexAtribute@dgMeshEffect@@QAE@XZ 10061c70 f i physics:dgMeshEffect.obj
 0001:00060c90       ?SetLRU@dgPolyhedra@@QBEXH@Z 10061c90 f i physics:dgMeshEffect.obj
 0001:00060cc0       ??0dgRefCounter@@QAE@XZ    10061cc0 f i physics:dgMeshEffect.obj
 0001:00060cf0       ??_EdgRefCounter@@MAEPAXI@Z 10061cf0 f i physics:dgMeshEffect.obj
 0001:00060cf0       ??_GdgRefCounter@@MAEPAXI@Z 10061cf0 f i physics:dgMeshEffect.obj
 0001:00060d20       ??1dgRefCounter@@MAE@XZ    10061d20 f i physics:dgMeshEffect.obj
 0001:00060d60       ?dgFastInt@@YAHN@Z         10061d60 f i physics:dgMeshEffect.obj
 0001:00060d90       ?Release@dgRefCounter@@QAEHXZ 10061d90 f i physics:dgMeshEffect.obj
 0001:00060df0       ??2dgMeshEffectSolidTree@@SAPAXIQAVdgMemoryAllocator@@@Z 10061df0 f i physics:dgMeshEffect.obj
 0001:00060e10       ??_GdgMeshEffectSolidTree@@QAEPAXI@Z 10061e10 f i physics:dgMeshEffect.obj
 0001:00060e40       ??3dgMeshEffectSolidTree@@SAXQAX@Z 10061e40 f i physics:dgMeshEffect.obj
 0001:00060e60       ?Scale@dgBigPlane@@QBE?AV1@N@Z 10061e60 f i physics:dgMeshEffect.obj
 0001:00060ec0       ??0dgBigPlane@@QAE@NNNN@Z  10061ec0 f i physics:dgMeshEffect.obj
 0001:00060f00       ?AddRef@dgRefCounter@@QAEXXZ 10061f00 f i physics:dgMeshEffect.obj
 0001:00060f20       ?Set@Iterator@?$dgTree@VdgEdge@@_J@@QAEXQAVdgTreeNode@2@@Z 10061f20 f i physics:dgMeshEffect.obj
 0001:00060f40       ??FIterator@?$dgTree@VdgEdge@@_J@@QAEXH@Z 10061f40 f i physics:dgMeshEffect.obj
 0001:00060f90       ??2?$dgList@VdgHugeVector@@@@SAPAXIQAVdgMemoryAllocator@@@Z 10061f90 f i physics:dgMeshEffect.obj
 0001:00060fb0       ?GetKey@dgTreeNode@?$dgTree@HH@@QBEABHXZ 10061fb0 f i physics:dgMeshEffect.obj
 0001:00060fd0       ?GetInfo@dgTreeNode@?$dgTree@HH@@QAEAAHXZ 10061fd0 f i physics:dgMeshEffect.obj
 0001:00060ff0       ??0Iterator@?$dgTree@HH@@QAE@ABV1@@Z 10061ff0 f i physics:dgMeshEffect.obj
 0001:00061020       ??1Iterator@?$dgTree@HH@@QAE@XZ 10062020 f i physics:dgMeshEffect.obj
 0001:00061030       ?Begin@Iterator@?$dgTree@HH@@QAEXXZ 10062030 f i physics:dgMeshEffect.obj
 0001:00061050       ??BIterator@?$dgTree@HH@@QBEHXZ 10062050 f i physics:dgMeshEffect.obj
 0001:00061070       ??EIterator@?$dgTree@HH@@QAEXH@Z 10062070 f i physics:dgMeshEffect.obj
 0001:000610c0       ?GetNode@Iterator@?$dgTree@HH@@QBEPAVdgTreeNode@2@XZ 100620c0 f i physics:dgMeshEffect.obj
 0001:000610d0       ?GetInfo@dgListNode@?$dgList@VdgHugeVector@@@@QAEAAVdgHugeVector@@XZ 100620d0 f i physics:dgMeshEffect.obj
 0001:000610f0       ?GetNext@dgListNode@?$dgList@VdgHugeVector@@@@QBEPAV12@XZ 100620f0 f i physics:dgMeshEffect.obj
 0001:00061110       ?GetInfo@dgListNode@?$dgList@PAVdgMeshTreeCSGFace@@@@QAEAAPAVdgMeshTreeCSGFace@@XZ 10062110 f i physics:dgMeshEffect.obj
 0001:00061130       ?GetNext@dgListNode@?$dgList@PAVdgMeshTreeCSGFace@@@@QBEPAV12@XZ 10062130 f i physics:dgMeshEffect.obj
 0001:00061150       ?FindGreaterEqual@?$dgTree@VdgEdge@@_J@@QBEPAVdgTreeNode@1@_J@Z 10062150 f i physics:dgMeshEffect.obj
 0001:000611f0       ?GetFirst@?$dgList@VdgHugeVector@@@@QBEPAVdgListNode@1@XZ 100621f0 f i physics:dgMeshEffect.obj
 0001:00061210       ??A?$dgTemplateVector@N@@QBEABNH@Z 10062210 f i physics:dgMeshEffect.obj
 0001:00061280       ??H?$dgTemplateVector@N@@QBE?AV0@ABV0@@Z 10062280 f i physics:dgMeshEffect.obj
 0001:000612e0       ??Z?$dgTemplateVector@N@@QAEAAV0@ABV0@@Z 100622e0 f i physics:dgMeshEffect.obj
 0001:00061450       ?CompProduct@?$dgTemplateVector@N@@QBE?AV1@ABV1@@Z 10062450 f i physics:dgMeshEffect.obj
 0001:000614b0       ?GetSizeInBytes@?$dgStack@H@@QBEHXZ 100624b0 f i physics:dgMeshEffect.obj
 0001:000614d0       ??0?$dgStack@VdgVertexAtribute@dgMeshEffect@@@@QAE@H@Z 100624d0 f i physics:dgMeshEffect.obj
 0001:00061500       ??1?$dgStack@VdgVertexAtribute@dgMeshEffect@@@@QAE@XZ 10062500 f i physics:dgMeshEffect.obj
 0001:00061520       ??A?$dgStack@VdgVertexAtribute@dgMeshEffect@@@@QAEAAVdgVertexAtribute@dgMeshEffect@@H@Z 10062520 f i physics:dgMeshEffect.obj
 0001:000615a0       ??0?$dgTree@HH@@QAE@QAVdgMemoryAllocator@@@Z 100625a0 f i physics:dgMeshEffect.obj
 0001:000615e0       ??1?$dgTree@HH@@UAE@XZ     100625e0 f i physics:dgMeshEffect.obj
 0001:00061600       ?Minimum@?$dgTree@HH@@QBEPAVdgTreeNode@1@XZ 10062600 f i physics:dgMeshEffect.obj
 0001:00061630       ?Find@?$dgTree@HH@@QBEPAVdgTreeNode@1@H@Z 10062630 f i physics:dgMeshEffect.obj
 0001:00061750       ?Insert@?$dgTree@HH@@QAEPAVdgTreeNode@1@ABHH@Z 10062750 f i physics:dgMeshEffect.obj
 0001:00061790       ??0?$dgStack@VdgVector@@@@QAE@H@Z 10062790 f i physics:dgMeshEffect.obj
 0001:000617c0       ??1?$dgStack@VdgVector@@@@QAE@XZ 100627c0 f i physics:dgMeshEffect.obj
 0001:000617e0       ?GetElementsCount@?$dgStack@VdgVector@@@@QBEHXZ 100627e0 f i physics:dgMeshEffect.obj
 0001:00061800       ??A?$dgStack@VdgVector@@@@QAEAAVdgVector@@H@Z 10062800 f i physics:dgMeshEffect.obj
 0001:00061880       ??0?$dgTree@VdgFlatClipEdgeAttr@@PAVdgEdge@@@@QAE@QAVdgMemoryAllocator@@@Z 10062880 f i physics:dgMeshEffect.obj
 0001:000618c0       ??1?$dgTree@VdgFlatClipEdgeAttr@@PAVdgEdge@@@@UAE@XZ 100628c0 f i physics:dgMeshEffect.obj
 0001:000618e0       ??0?$dgList@PAVdgMeshTreeCSGFace@@@@QAE@QAVdgMemoryAllocator@@@Z 100628e0 f i physics:dgMeshEffect.obj
 0001:00061920       ??1?$dgList@PAVdgMeshTreeCSGFace@@@@UAE@XZ 10062920 f i physics:dgMeshEffect.obj
 0001:00061940       ?GetCount@?$dgList@PAVdgMeshTreeCSGFace@@@@QBEHXZ 10062940 f i physics:dgMeshEffect.obj
 0001:00061960       ?GetFirst@?$dgList@PAVdgMeshTreeCSGFace@@@@QBEPAVdgListNode@1@XZ 10062960 f i physics:dgMeshEffect.obj
 0001:00061980       ?Append@?$dgList@PAVdgMeshTreeCSGFace@@@@QAEPAVdgListNode@1@ABQAVdgMeshTreeCSGFace@@@Z 10062980 f i physics:dgMeshEffect.obj
 0001:00061a40       ??_E?$dgTree@HH@@UAEPAXI@Z 10062a40 f i physics:dgMeshEffect.obj
 0001:00061a40       ??_G?$dgTree@HH@@UAEPAXI@Z 10062a40 f i physics:dgMeshEffect.obj
 0001:00061a70       ??_E?$dgTree@VdgFlatClipEdgeAttr@@PAVdgEdge@@@@UAEPAXI@Z 10062a70 f i physics:dgMeshEffect.obj
 0001:00061a70       ??_G?$dgTree@VdgFlatClipEdgeAttr@@PAVdgEdge@@@@UAEPAXI@Z 10062a70 f i physics:dgMeshEffect.obj
 0001:00061aa0       ??_G?$dgList@PAVdgMeshTreeCSGFace@@@@UAEPAXI@Z 10062aa0 f i physics:dgMeshEffect.obj
 0001:00061aa0       ??_E?$dgList@PAVdgMeshTreeCSGFace@@@@UAEPAXI@Z 10062aa0 f i physics:dgMeshEffect.obj
 0001:00061ad0       ??3?$dgTree@HH@@SAXQAX@Z   10062ad0 f i physics:dgMeshEffect.obj
 0001:00061af0       ?GetLeft@dgTreeNode@?$dgTree@HH@@ABEPAV12@XZ 10062af0 f i physics:dgMeshEffect.obj
 0001:00061b10       ?GetRight@dgTreeNode@?$dgTree@HH@@ABEPAV12@XZ 10062b10 f i physics:dgMeshEffect.obj
 0001:00061b30       ??3?$dgTree@VdgFlatClipEdgeAttr@@PAVdgEdge@@@@SAXQAX@Z 10062b30 f i physics:dgMeshEffect.obj
 0001:00061b50       ??3?$dgList@PAVdgMeshTreeCSGFace@@@@SAXQAX@Z 10062b50 f i physics:dgMeshEffect.obj
 0001:00061b70       ??2dgListNode@?$dgList@PAVdgMeshTreeCSGFace@@@@CAPAXIQAVdgMemoryAllocator@@@Z 10062b70 f i physics:dgMeshEffect.obj
 0001:00061b90       ??0dgListNode@?$dgList@PAVdgMeshTreeCSGFace@@@@AAE@ABQAVdgMeshTreeCSGFace@@QAV01@1@Z 10062b90 f i physics:dgMeshEffect.obj
 0001:00061bf0       ??_EdgListNode@?$dgList@PAVdgMeshTreeCSGFace@@@@EAEPAXI@Z 10062bf0 f i physics:dgMeshEffect.obj
 0001:00061bf0       ??_GdgListNode@?$dgList@PAVdgMeshTreeCSGFace@@@@EAEPAXI@Z 10062bf0 f i physics:dgMeshEffect.obj
 0001:00061c20       ??1dgListNode@?$dgList@PAVdgMeshTreeCSGFace@@@@EAE@XZ 10062c20 f i physics:dgMeshEffect.obj
 0001:00061c40       ??3dgListNode@?$dgList@PAVdgMeshTreeCSGFace@@@@CAXQAX@Z 10062c40 f i physics:dgMeshEffect.obj
 0001:00061c60       ?Insert@?$dgTree@HH@@QAEPAVdgTreeNode@1@ABHHAA_N@Z 10062c60 f i physics:dgMeshEffect.obj
 0001:00061e60       ?RemoveAll@?$dgTree@HH@@QAEXXZ 10062e60 f i physics:dgMeshEffect.obj
 0001:00061ea0       ?CompareKeys@?$dgTree@HH@@ABEHABH0@Z 10062ea0 f i physics:dgMeshEffect.obj
 0001:00061ee0       ?RemoveAll@?$dgTree@VdgFlatClipEdgeAttr@@PAVdgEdge@@@@QAEXXZ 10062ee0 f i physics:dgMeshEffect.obj
 0001:00061f20       ?RemoveAll@?$dgList@PAVdgMeshTreeCSGFace@@@@QAEXXZ 10062f20 f i physics:dgMeshEffect.obj
 0001:00061fe0       ??0dgTreeNode@?$dgTree@HH@@AAE@ABH0PAV01@@Z 10062fe0 f i physics:dgMeshEffect.obj
 0001:00062020       ??_EdgTreeNode@?$dgTree@HH@@EAEPAXI@Z 10063020 f i physics:dgMeshEffect.obj
 0001:00062020       ??_GdgTreeNode@?$dgTree@HH@@EAEPAXI@Z 10063020 f i physics:dgMeshEffect.obj
 0001:00062050       ??1dgTreeNode@?$dgTree@HH@@EAE@XZ 10063050 f i physics:dgMeshEffect.obj
 0001:00062070       ?Unlink@dgListNode@?$dgList@PAVdgMeshTreeCSGFace@@@@AAEXXZ 10063070 f i physics:dgMeshEffect.obj
 0001:000620c0       ??_EdgMeshEffect@@WBM@AEPAXI@Z 100630c0 f i physics:dgMeshEffect.obj
 0001:000620d0       ??0dgCollisionConvexIntance@dgCollisionCompoundBreakable@@QAE@PAVdgCollisionConvex@@PAVdgListNode@?$dgList@V?$dgGraphNode@VdgDebriNodeInfo@dgCollisionCompoundBreakable@@VdgSharedNodeMesh@2@@@@@M@Z 100630d0 f   physics:dgCollisionCompoundBreakable.obj
 0001:00062230       ??0dgCollisionConvexIntance@dgCollisionCompoundBreakable@@QAE@ABV01@PAVdgListNode@?$dgList@V?$dgGraphNode@VdgDebriNodeInfo@dgCollisionCompoundBreakable@@VdgSharedNodeMesh@2@@@@@@Z 10063230 f   physics:dgCollisionCompoundBreakable.obj
 0001:00062310       ??0dgCollisionConvexIntance@dgCollisionCompoundBreakable@@QAE@QAVdgWorld@@P6AXQAXPAXI@Z1@Z 10063310 f   physics:dgCollisionCompoundBreakable.obj
 0001:00062400       ??1dgCollisionConvexIntance@dgCollisionCompoundBreakable@@UAE@XZ 10063400 f   physics:dgCollisionCompoundBreakable.obj
 0001:00062440       ?GetVolume@dgCollisionConvexIntance@dgCollisionCompoundBreakable@@MBEMXZ 10063440 f   physics:dgCollisionCompoundBreakable.obj
 0001:00062470       ?OOBBTest@dgCollisionConvexIntance@dgCollisionCompoundBreakable@@MBE_NABVdgMatrix@@QBVdgCollisionConvex@@QAX@Z 10063470 f   physics:dgCollisionCompoundBreakable.obj
 0001:000624b0       ?SupportVertex@dgCollisionConvexIntance@dgCollisionCompoundBreakable@@MBE?AVdgVector@@ABV3@@Z 100634b0 f   physics:dgCollisionCompoundBreakable.obj
 0001:000624f0       ?SupportVertexSimd@dgCollisionConvexIntance@dgCollisionCompoundBreakable@@MBE?AVdgVector@@ABV3@@Z 100634f0 f   physics:dgCollisionCompoundBreakable.obj
 0001:00062530       ?CalcAABB@dgCollisionConvexIntance@dgCollisionCompoundBreakable@@MBEXABVdgMatrix@@AAVdgVector@@1@Z 10063530 f   physics:dgCollisionCompoundBreakable.obj
 0001:00062570       ?CalcAABBSimd@dgCollisionConvexIntance@dgCollisionCompoundBreakable@@MBEXABVdgMatrix@@AAVdgVector@@1@Z 10063570 f   physics:dgCollisionCompoundBreakable.obj
 0001:000625b0       ?DebugCollision@dgCollisionConvexIntance@dgCollisionCompoundBreakable@@MBEXABVdgMatrix@@P6AXPAXHPBMH@ZQAX@Z 100635b0 f   physics:dgCollisionCompoundBreakable.obj
 0001:000625f0       ?RayCast@dgCollisionConvexIntance@dgCollisionCompoundBreakable@@MBEMABVdgVector@@0AAVdgContactPoint@@P6AIQBVdgBody@@QBVdgCollision@@QAX@Z24@Z 100635f0 f   physics:dgCollisionCompoundBreakable.obj
 0001:00062630       ?RayCastSimd@dgCollisionConvexIntance@dgCollisionCompoundBreakable@@MBEMABVdgVector@@0AAVdgContactPoint@@P6AIQBVdgBody@@QBVdgCollision@@QAX@Z24@Z 10063630 f   physics:dgCollisionCompoundBreakable.obj
 0001:00062670       ?CalculateVolumeIntegral@dgCollisionConvexIntance@dgCollisionCompoundBreakable@@MBE?AVdgVector@@ABVdgMatrix@@P6AIPAX10AAVdgPlane@@@ZQAX@Z 10063670 f   physics:dgCollisionCompoundBreakable.obj
 0001:000626b0       ?CalculateSignature@dgCollisionConvexIntance@dgCollisionCompoundBreakable@@EBEHXZ 100636b0 f   physics:dgCollisionCompoundBreakable.obj
 0001:000626c0       ?SetCollisionBBox@dgCollisionConvexIntance@dgCollisionCompoundBreakable@@EAEXABVdgVector@@0@Z 100636c0 f   physics:dgCollisionCompoundBreakable.obj
 0001:000626f0       ?GetBoxMinRadius@dgCollisionConvexIntance@dgCollisionCompoundBreakable@@EBEMXZ 100636f0 f   physics:dgCollisionCompoundBreakable.obj
 0001:00062720       ?GetBoxMaxRadius@dgCollisionConvexIntance@dgCollisionCompoundBreakable@@EBEMXZ 10063720 f   physics:dgCollisionCompoundBreakable.obj
 0001:00062750       ?CalculatePlaneIntersection@dgCollisionConvexIntance@dgCollisionCompoundBreakable@@EBEHABVdgVector@@0QAV3@@Z 10063750 f   physics:dgCollisionCompoundBreakable.obj
 0001:00062790       ?CalculatePlaneIntersectionSimd@dgCollisionConvexIntance@dgCollisionCompoundBreakable@@EBEHABVdgVector@@0QAV3@@Z 10063790 f   physics:dgCollisionCompoundBreakable.obj
 0001:000627d0       ?GetCollisionInfo@dgCollisionConvexIntance@dgCollisionCompoundBreakable@@EBEXPAVdgCollisionInfo@@@Z 100637d0 f   physics:dgCollisionCompoundBreakable.obj
 0001:00062800       ?Serialize@dgCollisionConvexIntance@dgCollisionCompoundBreakable@@EBEXP6AXQAXQBXI@Z0@Z 10063800 f   physics:dgCollisionCompoundBreakable.obj
 0001:00062890       ?SetBreakImpulse@dgCollisionConvexIntance@dgCollisionCompoundBreakable@@EAEXM@Z 10063890 f   physics:dgCollisionCompoundBreakable.obj
 0001:000628b0       ?GetBreakImpulse@dgCollisionConvexIntance@dgCollisionCompoundBreakable@@EBEMXZ 100638b0 f   physics:dgCollisionCompoundBreakable.obj
 0001:000628d0       ??0dgVertexBuffer@dgCollisionCompoundBreakable@@QAE@HPAVdgMemoryAllocator@@@Z 100638d0 f   physics:dgCollisionCompoundBreakable.obj
 0001:00062960       ??1dgVertexBuffer@dgCollisionCompoundBreakable@@UAE@XZ 10063960 f   physics:dgCollisionCompoundBreakable.obj
 0001:000629c0       ??0dgVertexBuffer@dgCollisionCompoundBreakable@@QAE@QAVdgMemoryAllocator@@P6AXQAXPAXI@Z1@Z 100639c0 f   physics:dgCollisionCompoundBreakable.obj
 0001:00062ab0       ?Serialize@dgVertexBuffer@dgCollisionCompoundBreakable@@QBEXP6AXQAXQBXI@Z0@Z 10063ab0 f   physics:dgCollisionCompoundBreakable.obj
 0001:00062b30       ?GetVertexStreams@dgVertexBuffer@dgCollisionCompoundBreakable@@QBEXHPAMH0H0@Z 10063b30 f   physics:dgCollisionCompoundBreakable.obj
 0001:00062c80       ??0dgSubMesh@dgCollisionCompoundBreakable@@QAE@QAVdgMemoryAllocator@@@Z 10063c80 f   physics:dgCollisionCompoundBreakable.obj
 0001:00062cd0       ??1dgSubMesh@dgCollisionCompoundBreakable@@QAE@XZ 10063cd0 f   physics:dgCollisionCompoundBreakable.obj
 0001:00062d00       ?Serialize@dgSubMesh@dgCollisionCompoundBreakable@@QBEXP6AXQAXQBXI@Z0@Z 10063d00 f   physics:dgCollisionCompoundBreakable.obj
 0001:00062d80       ??0dgMesh@dgCollisionCompoundBreakable@@QAE@QAVdgMemoryAllocator@@@Z 10063d80 f   physics:dgCollisionCompoundBreakable.obj
 0001:00062dd0       ??1dgMesh@dgCollisionCompoundBreakable@@UAE@XZ 10063dd0 f   physics:dgCollisionCompoundBreakable.obj
 0001:00062e10       ??0dgMesh@dgCollisionCompoundBreakable@@QAE@QAVdgMemoryAllocator@@P6AXQAXPAXI@Z1@Z 10063e10 f   physics:dgCollisionCompoundBreakable.obj
 0001:00062f20       ?Serialize@dgMesh@dgCollisionCompoundBreakable@@QBEXP6AXQAXQBXI@Z0@Z 10063f20 f   physics:dgCollisionCompoundBreakable.obj
 0001:00062fa0       ?AddgSubMesh@dgMesh@dgCollisionCompoundBreakable@@QAEPAVdgSubMesh@2@HH@Z 10063fa0 f   physics:dgCollisionCompoundBreakable.obj
 0001:00063030       ??0dgDebriNodeInfo@dgCollisionCompoundBreakable@@QAE@XZ 10064030 f   physics:dgCollisionCompoundBreakable.obj
 0001:00063070       ??1dgDebriNodeInfo@dgCollisionCompoundBreakable@@QAE@XZ 10064070 f   physics:dgCollisionCompoundBreakable.obj
 0001:000630b0       ??0dgSharedNodeMesh@dgCollisionCompoundBreakable@@QAE@XZ 100640b0 f   physics:dgCollisionCompoundBreakable.obj
 0001:000630c0       ??1dgSharedNodeMesh@dgCollisionCompoundBreakable@@QAE@XZ 100640c0 f   physics:dgCollisionCompoundBreakable.obj
 0001:000630d0       ??0dgDebriGraph@dgCollisionCompoundBreakable@@QAE@QAVdgMemoryAllocator@@@Z 100640d0 f   physics:dgCollisionCompoundBreakable.obj
 0001:00063100       ??0dgDebriGraph@dgCollisionCompoundBreakable@@QAE@QAVdgMemoryAllocator@@P6AXQAXPAXI@Z1@Z 10064100 f   physics:dgCollisionCompoundBreakable.obj
 0001:000632f0       ??0dgDebriGraph@dgCollisionCompoundBreakable@@QAE@ABV01@@Z 100642f0 f   physics:dgCollisionCompoundBreakable.obj
 0001:000634b0       ??1dgDebriGraph@dgCollisionCompoundBreakable@@UAE@XZ 100644b0 f   physics:dgCollisionCompoundBreakable.obj
 0001:000634d0       ?Serialize@dgDebriGraph@dgCollisionCompoundBreakable@@QBEXP6AXQAXQBXI@Z0@Z 100644d0 f   physics:dgCollisionCompoundBreakable.obj
 0001:000636f0       ?AddNode@dgDebriGraph@dgCollisionCompoundBreakable@@QAEXAAVdgFlatVertexArray@2@PAVdgMeshEffect@@HHMM@Z 100646f0 f   physics:dgCollisionCompoundBreakable.obj
 0001:00063730       ?AddMeshes@dgDebriGraph@dgCollisionCompoundBreakable@@QAEXAAVdgFlatVertexArray@2@HQBQBVdgMeshEffect@@QBHQBM2M@Z 10064730 f   physics:dgCollisionCompoundBreakable.obj
 0001:000637b0       ??0dgCollisionCompoundBreakable@@QAE@HQBQBVdgMeshEffect@@QBHQBM1HMPAVdgWorld@@@Z 100647b0 f   physics:dgCollisionCompoundBreakable.obj
 0001:00064510       ??0dgCollisionCompoundBreakable@@QAE@ABV0@@Z 10065510 f   physics:dgCollisionCompoundBreakable.obj
 0001:00064a70       ??0dgCollisionCompoundBreakable@@QAE@QAVdgWorld@@P6AXQAXPAXI@Z1@Z 10065a70 f   physics:dgCollisionCompoundBreakable.obj
 0001:00064c80       ??1dgCollisionCompoundBreakable@@UAE@XZ 10065c80 f   physics:dgCollisionCompoundBreakable.obj
 0001:00064d10       ?LinkNodes@dgCollisionCompoundBreakable@@AAEXXZ 10065d10 f   physics:dgCollisionCompoundBreakable.obj
 0001:00064e20       ?Serialize@dgCollisionCompoundBreakable@@EBEXP6AXQAXQBXI@Z0@Z 10065e20 f   physics:dgCollisionCompoundBreakable.obj
 0001:00064ef0       ?GetCollisionInfo@dgCollisionCompoundBreakable@@EBEXPAVdgCollisionInfo@@@Z 10065ef0 f   physics:dgCollisionCompoundBreakable.obj
 0001:00064f20       ?GetSegmentIndexStreamShort@dgCollisionCompoundBreakable@@QBEHQAVdgListNode@?$dgList@V?$dgGraphNode@VdgDebriNodeInfo@dgCollisionCompoundBreakable@@VdgSharedNodeMesh@2@@@@@PAV2?$dgList@VdgSubMesh@dgCollisionCompoundBreakable@@@@QAF@Z 10065f20 f   physics:dgCollisionCompoundBreakable.obj
 0001:00065060       ?GetSegmentIndexStream@dgCollisionCompoundBreakable@@QBEHQAVdgListNode@?$dgList@V?$dgGraphNode@VdgDebriNodeInfo@dgCollisionCompoundBreakable@@VdgSharedNodeMesh@2@@@@@PAV2?$dgList@VdgSubMesh@dgCollisionCompoundBreakable@@@@QAH@Z 10066060 f   physics:dgCollisionCompoundBreakable.obj
 0001:00065190       ?GetSegmentsInRadius@dgCollisionCompoundBreakable@@QAEHABVdgVector@@MPAPAVdgListNode@?$dgList@V?$dgGraphNode@VdgDebriNodeInfo@dgCollisionCompoundBreakable@@VdgSharedNodeMesh@2@@@@@H@Z 10066190 f   physics:dgCollisionCompoundBreakable.obj
 0001:000654a0       ?EnumerateIslands@dgCollisionCompoundBreakable@@QAEXXZ 100664a0 f   physics:dgCollisionCompoundBreakable.obj
 0001:000656a0       ?ResetAnchor@dgCollisionCompoundBreakable@@QAEXXZ 100666a0 f   physics:dgCollisionCompoundBreakable.obj
 0001:00065710       ?SetAnchoredParts@dgCollisionCompoundBreakable@@QAEXHQBVdgMatrix@@PAPBVdgCollision@@@Z 10066710 f   physics:dgCollisionCompoundBreakable.obj
 0001:00065a20       ?DeleteComponent@dgCollisionCompoundBreakable@@QAEXPAVdgListNode@?$dgList@V?$dgGraphNode@VdgDebriNodeInfo@dgCollisionCompoundBreakable@@VdgSharedNodeMesh@2@@@@@@Z 10066a20 f   physics:dgCollisionCompoundBreakable.obj
 0001:00065cb0       ?CreateComponentBody@dgCollisionCompoundBreakable@@QBEPAVdgBody@@PAVdgListNode@?$dgList@V?$dgGraphNode@VdgDebriNodeInfo@dgCollisionCompoundBreakable@@VdgSharedNodeMesh@2@@@@@@Z 10066cb0 f   physics:dgCollisionCompoundBreakable.obj
 0001:00065cf0       ?DeleteComponentBegin@dgCollisionCompoundBreakable@@QAEXXZ 10066cf0 f   physics:dgCollisionCompoundBreakable.obj
 0001:00065d20       ?DeleteComponentEnd@dgCollisionCompoundBreakable@@QAEXXZ 10066d20 f   physics:dgCollisionCompoundBreakable.obj
 0001:000661f0       ??_GdgCollisionConvexIntance@dgCollisionCompoundBreakable@@UAEPAXI@Z 100671f0 f i physics:dgCollisionCompoundBreakable.obj
 0001:000661f0       ??_EdgCollisionConvexIntance@dgCollisionCompoundBreakable@@UAEPAXI@Z 100671f0 f i physics:dgCollisionCompoundBreakable.obj
 0001:00066220       ??_EdgVertexBuffer@dgCollisionCompoundBreakable@@UAEPAXI@Z 10067220 f i physics:dgCollisionCompoundBreakable.obj
 0001:00066220       ??_GdgVertexBuffer@dgCollisionCompoundBreakable@@UAEPAXI@Z 10067220 f i physics:dgCollisionCompoundBreakable.obj
 0001:00066250       ??3dgVertexBuffer@dgCollisionCompoundBreakable@@SAXQAX@Z 10067250 f i physics:dgCollisionCompoundBreakable.obj
 0001:00066270       ??_GdgMesh@dgCollisionCompoundBreakable@@UAEPAXI@Z 10067270 f i physics:dgCollisionCompoundBreakable.obj
 0001:00066270       ??_EdgMesh@dgCollisionCompoundBreakable@@UAEPAXI@Z 10067270 f i physics:dgCollisionCompoundBreakable.obj
 0001:000662a0       ??_GdgDebriGraph@dgCollisionCompoundBreakable@@UAEPAXI@Z 100672a0 f i physics:dgCollisionCompoundBreakable.obj
 0001:000662a0       ??_EdgDebriGraph@dgCollisionCompoundBreakable@@UAEPAXI@Z 100672a0 f i physics:dgCollisionCompoundBreakable.obj
 0001:000662d0       ?SetAsTriggerVolume@dgCollision@@UAEX_N@Z 100672d0 f i physics:dgCollisionCompoundBreakable.obj
 0001:000662e0       ?IsTriggerVolume@dgCollision@@UBE_NXZ 100672e0 f i physics:dgCollisionCompoundBreakable.obj
 0001:000662f0       ??0dgFlatVertexArray@dgCollisionCompoundBreakable@@QAE@QAVdgMemoryAllocator@@@Z 100672f0 f i physics:dgCollisionCompoundBreakable.obj
 0001:00066320       ??2dgVertexBuffer@dgCollisionCompoundBreakable@@SAPAXIQAVdgMemoryAllocator@@@Z 10067320 f i physics:dgCollisionCompoundBreakable.obj
 0001:00066340       ??0dgIsland@dgCollisionCompoundBreakable@@QAE@QAVdgMemoryAllocator@@@Z 10067340 f i physics:dgCollisionCompoundBreakable.obj
 0001:00066370       ??_EdgIsland@dgCollisionCompoundBreakable@@UAEPAXI@Z 10067370 f i physics:dgCollisionCompoundBreakable.obj
 0001:00066370       ??_GdgIsland@dgCollisionCompoundBreakable@@UAEPAXI@Z 10067370 f i physics:dgCollisionCompoundBreakable.obj
 0001:000663a0       ??1dgIsland@dgCollisionCompoundBreakable@@UAE@XZ 100673a0 f i physics:dgCollisionCompoundBreakable.obj
 0001:000663c0       ??_EdgCollisionCompoundBreakable@@UAEPAXI@Z 100673c0 f i physics:dgCollisionCompoundBreakable.obj
 0001:000663c0       ??_GdgCollisionCompoundBreakable@@UAEPAXI@Z 100673c0 f i physics:dgCollisionCompoundBreakable.obj
 0001:000663f0       ??1dgFlatVertexArray@dgCollisionCompoundBreakable@@QAE@XZ 100673f0 f i physics:dgCollisionCompoundBreakable.obj
 0001:00066410       ??2?$dgList@VdgSubMesh@dgCollisionCompoundBreakable@@@@SAPAXIQAVdgMemoryAllocator@@@Z 10067410 f i physics:dgCollisionCompoundBreakable.obj
 0001:00066430       ??3?$dgList@VdgSubMesh@dgCollisionCompoundBreakable@@@@SAXQAX@Z 10067430 f i physics:dgCollisionCompoundBreakable.obj
 0001:00066450       ??3?$dgList@V?$dgGraphNode@VdgDebriNodeInfo@dgCollisionCompoundBreakable@@VdgSharedNodeMesh@2@@@@@SAXQAX@Z 10067450 f i physics:dgCollisionCompoundBreakable.obj
 0001:00066470       ??3?$dgList@PAVdgListNode@?$dgList@V?$dgGraphNode@VdgDebriNodeInfo@dgCollisionCompoundBreakable@@VdgSharedNodeMesh@2@@@@@@@SAXQAX@Z 10067470 f i physics:dgCollisionCompoundBreakable.obj
 0001:00066490       ?GetInfo@dgTreeNode@?$dgTree@PAVdgListNode@?$dgList@V?$dgGraphNode@VdgDebriNodeInfo@dgCollisionCompoundBreakable@@VdgSharedNodeMesh@2@@@@@PAV12@@@QAEAAPAVdgListNode@?$dgList@V?$dgGraphNode@VdgDebriNodeInfo@dgCollisionCompoundBreakable@@VdgSharedNodeMesh@2@@@@@XZ 10067490 f i physics:dgCollisionCompoundBreakable.obj
 0001:000664b0       ?GetInfo@dgListNode@?$dgList@V?$dgGraphEdge@VdgDebriNodeInfo@dgCollisionCompoundBreakable@@VdgSharedNodeMesh@2@@@@@QAEAAV?$dgGraphEdge@VdgDebriNodeInfo@dgCollisionCompoundBreakable@@VdgSharedNodeMesh@2@@@XZ 100674b0 f i physics:dgCollisionCompoundBreakable.obj
 0001:000664d0       ?GetNext@dgListNode@?$dgList@V?$dgGraphEdge@VdgDebriNodeInfo@dgCollisionCompoundBreakable@@VdgSharedNodeMesh@2@@@@@QBEPAV12@XZ 100674d0 f i physics:dgCollisionCompoundBreakable.obj
 0001:000664f0       ?GetInfo@dgTreeNode@?$dgTree@HPAVdgListNode@?$dgList@V?$dgGraphNode@VdgDebriNodeInfo@dgCollisionCompoundBreakable@@VdgSharedNodeMesh@2@@@@@@@QAEAAHXZ 100674f0 f i physics:dgCollisionCompoundBreakable.obj
 0001:00066510       ?GetInfo@dgTreeNode@?$dgTree@VdgCompoundBreakableFilterData@dgCollisionCompoundBreakable@@PAVdgCollisionConvex@@@@QAEAAVdgCompoundBreakableFilterData@dgCollisionCompoundBreakable@@XZ 10067510 f i physics:dgCollisionCompoundBreakable.obj
 0001:00066530       ?GetInfo@dgListNode@?$dgList@PAVdgListNode@?$dgList@V?$dgGraphNode@VdgDebriNodeInfo@dgCollisionCompoundBreakable@@VdgSharedNodeMesh@2@@@@@@@QAEAAPAV1?$dgList@V?$dgGraphNode@VdgDebriNodeInfo@dgCollisionCompoundBreakable@@VdgSharedNodeMesh@2@@@@@XZ 10067530 f i physics:dgCollisionCompoundBreakable.obj
 0001:00066550       ?GetNext@dgListNode@?$dgList@PAVdgListNode@?$dgList@V?$dgGraphNode@VdgDebriNodeInfo@dgCollisionCompoundBreakable@@VdgSharedNodeMesh@2@@@@@@@QBEPAV12@XZ 10067550 f i physics:dgCollisionCompoundBreakable.obj
 0001:00066570       ??0?$dgArray@VdgFlatVertex@dgCollisionCompoundBreakable@@@@QAE@HQAVdgMemoryAllocator@@@Z 10067570 f i physics:dgCollisionCompoundBreakable.obj
 0001:000665b0       ??1?$dgArray@VdgFlatVertex@dgCollisionCompoundBreakable@@@@QAE@XZ 100675b0 f i physics:dgCollisionCompoundBreakable.obj
 0001:000665e0       ??A?$dgArray@VdgFlatVertex@dgCollisionCompoundBreakable@@@@QAEAAVdgFlatVertex@dgCollisionCompoundBreakable@@H@Z 100675e0 f i physics:dgCollisionCompoundBreakable.obj
 0001:00066640       ??0?$dgList@VdgSubMesh@dgCollisionCompoundBreakable@@@@QAE@QAVdgMemoryAllocator@@@Z 10067640 f i physics:dgCollisionCompoundBreakable.obj
 0001:00066680       ??1?$dgList@VdgSubMesh@dgCollisionCompoundBreakable@@@@UAE@XZ 10067680 f i physics:dgCollisionCompoundBreakable.obj
 0001:000666a0       ?GetAllocator@?$dgList@VdgSubMesh@dgCollisionCompoundBreakable@@@@QBEPAVdgMemoryAllocator@@XZ 100676a0 f i physics:dgCollisionCompoundBreakable.obj
 0001:000666c0       ?GetCount@?$dgList@VdgSubMesh@dgCollisionCompoundBreakable@@@@QBEHXZ 100676c0 f i physics:dgCollisionCompoundBreakable.obj
 0001:000666e0       ?Append@?$dgList@VdgSubMesh@dgCollisionCompoundBreakable@@@@QAEPAVdgListNode@1@ABVdgSubMesh@dgCollisionCompoundBreakable@@@Z 100676e0 f i physics:dgCollisionCompoundBreakable.obj
 0001:000667a0       ?GetAllocator@?$dgList@V?$dgGraphNode@VdgDebriNodeInfo@dgCollisionCompoundBreakable@@VdgSharedNodeMesh@2@@@@@QBEPAVdgMemoryAllocator@@XZ 100677a0 f i physics:dgCollisionCompoundBreakable.obj
 0001:000667c0       ??0?$dgGraph@VdgDebriNodeInfo@dgCollisionCompoundBreakable@@VdgSharedNodeMesh@2@@@QAE@QAVdgMemoryAllocator@@@Z 100677c0 f i physics:dgCollisionCompoundBreakable.obj
 0001:000667f0       ??1?$dgGraph@VdgDebriNodeInfo@dgCollisionCompoundBreakable@@VdgSharedNodeMesh@2@@@UAE@XZ 100677f0 f i physics:dgCollisionCompoundBreakable.obj
 0001:00066810       ??1?$dgList@V?$dgGraphNode@VdgDebriNodeInfo@dgCollisionCompoundBreakable@@VdgSharedNodeMesh@2@@@@@UAE@XZ 10067810 f i physics:dgCollisionCompoundBreakable.obj
 0001:00066830       ?AddNode@?$dgGraph@VdgDebriNodeInfo@dgCollisionCompoundBreakable@@VdgSharedNodeMesh@2@@@QAEPAVdgListNode@?$dgList@V?$dgGraphNode@VdgDebriNodeInfo@dgCollisionCompoundBreakable@@VdgSharedNodeMesh@2@@@@@XZ 10067830 f i physics:dgCollisionCompoundBreakable.obj
 0001:00066890       ?DeleteNode@?$dgGraph@VdgDebriNodeInfo@dgCollisionCompoundBreakable@@VdgSharedNodeMesh@2@@@QAEXQAVdgListNode@?$dgList@V?$dgGraphNode@VdgDebriNodeInfo@dgCollisionCompoundBreakable@@VdgSharedNodeMesh@2@@@@@@Z 10067890 f i physics:dgCollisionCompoundBreakable.obj
 0001:00066930       ??0?$dgList@PAVdgListNode@?$dgList@V?$dgGraphNode@VdgDebriNodeInfo@dgCollisionCompoundBreakable@@VdgSharedNodeMesh@2@@@@@@@QAE@QAVdgMemoryAllocator@@@Z 10067930 f i physics:dgCollisionCompoundBreakable.obj
 0001:00066970       ??1?$dgList@PAVdgListNode@?$dgList@V?$dgGraphNode@VdgDebriNodeInfo@dgCollisionCompoundBreakable@@VdgSharedNodeMesh@2@@@@@@@UAE@XZ 10067970 f i physics:dgCollisionCompoundBreakable.obj
 0001:00066990       ?GetFirst@?$dgList@PAVdgListNode@?$dgList@V?$dgGraphNode@VdgDebriNodeInfo@dgCollisionCompoundBreakable@@VdgSharedNodeMesh@2@@@@@@@QBEPAVdgListNode@1@XZ 10067990 f i physics:dgCollisionCompoundBreakable.obj
 0001:000669b0       ?Append@?$dgList@PAVdgListNode@?$dgList@V?$dgGraphNode@VdgDebriNodeInfo@dgCollisionCompoundBreakable@@VdgSharedNodeMesh@2@@@@@@@QAEPAVdgListNode@1@ABQAV2?$dgList@V?$dgGraphNode@VdgDebriNodeInfo@dgCollisionCompoundBreakable@@VdgSharedNodeMesh@2@@@@@@Z 100679b0 f i physics:dgCollisionCompoundBreakable.obj
 0001:00066a70       ?Remove@?$dgList@PAVdgListNode@?$dgList@V?$dgGraphNode@VdgDebriNodeInfo@dgCollisionCompoundBreakable@@VdgSharedNodeMesh@2@@@@@@@QAEXABQAVdgListNode@?$dgList@V?$dgGraphNode@VdgDebriNodeInfo@dgCollisionCompoundBreakable@@VdgSharedNodeMesh@2@@@@@@Z 10067a70 f i physics:dgCollisionCompoundBreakable.obj
 0001:00066aa0       ?Remove@?$dgList@PAVdgListNode@?$dgList@V?$dgGraphNode@VdgDebriNodeInfo@dgCollisionCompoundBreakable@@VdgSharedNodeMesh@2@@@@@@@QAEXQAVdgListNode@1@@Z 10067aa0 f i physics:dgCollisionCompoundBreakable.obj
 0001:00066af0       ?RemoveAll@?$dgList@PAVdgListNode@?$dgList@V?$dgGraphNode@VdgDebriNodeInfo@dgCollisionCompoundBreakable@@VdgSharedNodeMesh@2@@@@@@@QAEXXZ 10067af0 f i physics:dgCollisionCompoundBreakable.obj
 0001:00066bb0       ?GetCount@?$dgList@V?$dgGraphEdge@VdgDebriNodeInfo@dgCollisionCompoundBreakable@@VdgSharedNodeMesh@2@@@@@QBEHXZ 10067bb0 f i physics:dgCollisionCompoundBreakable.obj
 0001:00066bd0       ?GetFirst@?$dgList@V?$dgGraphEdge@VdgDebriNodeInfo@dgCollisionCompoundBreakable@@VdgSharedNodeMesh@2@@@@@QBEPAVdgListNode@1@XZ 10067bd0 f i physics:dgCollisionCompoundBreakable.obj
 0001:00066bf0       ?AddEdge@?$dgGraphNode@VdgDebriNodeInfo@dgCollisionCompoundBreakable@@VdgSharedNodeMesh@2@@@QAEPAVdgListNode@?$dgList@V?$dgGraphEdge@VdgDebriNodeInfo@dgCollisionCompoundBreakable@@VdgSharedNodeMesh@2@@@@@QAV2?$dgList@V?$dgGraphNode@VdgDebriNodeInfo@dgCollisionCompoundBreakable@@VdgSharedNodeMesh@2@@@@@@Z 10067bf0 f i physics:dgCollisionCompoundBreakable.obj
 0001:00066c20       ?DeleteEdge@?$dgGraphNode@VdgDebriNodeInfo@dgCollisionCompoundBreakable@@VdgSharedNodeMesh@2@@@QAEXQAVdgListNode@?$dgList@V?$dgGraphEdge@VdgDebriNodeInfo@dgCollisionCompoundBreakable@@VdgSharedNodeMesh@2@@@@@@Z 10067c20 f i physics:dgCollisionCompoundBreakable.obj
 0001:00066ca0       ??0?$dgStack@PAVdgListNode@?$dgList@V?$dgGraphNode@VdgDebriNodeInfo@dgCollisionCompoundBreakable@@VdgSharedNodeMesh@2@@@@@@@QAE@H@Z 10067ca0 f i physics:dgCollisionCompoundBreakable.obj
 0001:00066cd0       ??1?$dgStack@PAVdgListNode@?$dgList@V?$dgGraphNode@VdgDebriNodeInfo@dgCollisionCompoundBreakable@@VdgSharedNodeMesh@2@@@@@@@QAE@XZ 10067cd0 f i physics:dgCollisionCompoundBreakable.obj
 0001:00066cf0       ??A?$dgStack@PAVdgListNode@?$dgList@V?$dgGraphNode@VdgDebriNodeInfo@dgCollisionCompoundBreakable@@VdgSharedNodeMesh@2@@@@@@@QAEAAPAVdgListNode@?$dgList@V?$dgGraphNode@VdgDebriNodeInfo@dgCollisionCompoundBreakable@@VdgSharedNodeMesh@2@@@@@H@Z 10067cf0 f i physics:dgCollisionCompoundBreakable.obj
 0001:00066d70       ??0?$dgTree@PAVdgListNode@?$dgList@V?$dgGraphNode@VdgDebriNodeInfo@dgCollisionCompoundBreakable@@VdgSharedNodeMesh@2@@@@@PAV12@@@QAE@QAVdgMemoryAllocator@@@Z 10067d70 f i physics:dgCollisionCompoundBreakable.obj
 0001:00066db0       ??1?$dgTree@PAVdgListNode@?$dgList@V?$dgGraphNode@VdgDebriNodeInfo@dgCollisionCompoundBreakable@@VdgSharedNodeMesh@2@@@@@PAV12@@@UAE@XZ 10067db0 f i physics:dgCollisionCompoundBreakable.obj
 0001:00066dd0       ?Find@?$dgTree@PAVdgListNode@?$dgList@V?$dgGraphNode@VdgDebriNodeInfo@dgCollisionCompoundBreakable@@VdgSharedNodeMesh@2@@@@@PAV12@@@QBEPAVdgTreeNode@1@PAVdgListNode@?$dgList@V?$dgGraphNode@VdgDebriNodeInfo@dgCollisionCompoundBreakable@@VdgSharedNodeMesh@2@@@@@@Z 10067dd0 f i physics:dgCollisionCompoundBreakable.obj
 0001:00066ef0       ?Insert@?$dgTree@PAVdgListNode@?$dgList@V?$dgGraphNode@VdgDebriNodeInfo@dgCollisionCompoundBreakable@@VdgSharedNodeMesh@2@@@@@PAV12@@@QAEPAVdgTreeNode@1@ABQAVdgListNode@?$dgList@V?$dgGraphNode@VdgDebriNodeInfo@dgCollisionCompoundBreakable@@VdgSharedNodeMesh@2@@@@@PAV34@@Z 10067ef0 f i physics:dgCollisionCompoundBreakable.obj
 0001:00066f30       ??0?$dgTree@HPAVdgListNode@?$dgList@V?$dgGraphNode@VdgDebriNodeInfo@dgCollisionCompoundBreakable@@VdgSharedNodeMesh@2@@@@@@@QAE@QAVdgMemoryAllocator@@@Z 10067f30 f i physics:dgCollisionCompoundBreakable.obj
 0001:00066f70       ??1?$dgTree@HPAVdgListNode@?$dgList@V?$dgGraphNode@VdgDebriNodeInfo@dgCollisionCompoundBreakable@@VdgSharedNodeMesh@2@@@@@@@UAE@XZ 10067f70 f i physics:dgCollisionCompoundBreakable.obj
 0001:00066f90       ?Find@?$dgTree@HPAVdgListNode@?$dgList@V?$dgGraphNode@VdgDebriNodeInfo@dgCollisionCompoundBreakable@@VdgSharedNodeMesh@2@@@@@@@QBEPAVdgTreeNode@1@PAVdgListNode@?$dgList@V?$dgGraphNode@VdgDebriNodeInfo@dgCollisionCompoundBreakable@@VdgSharedNodeMesh@2@@@@@@Z 10067f90 f i physics:dgCollisionCompoundBreakable.obj
 0001:000670b0       ?Insert@?$dgTree@HPAVdgListNode@?$dgList@V?$dgGraphNode@VdgDebriNodeInfo@dgCollisionCompoundBreakable@@VdgSharedNodeMesh@2@@@@@@@QAEPAVdgTreeNode@1@ABHPAVdgListNode@?$dgList@V?$dgGraphNode@VdgDebriNodeInfo@dgCollisionCompoundBreakable@@VdgSharedNodeMesh@2@@@@@@Z 100680b0 f i physics:dgCollisionCompoundBreakable.obj
 0001:000670f0       ??0?$dgStack@PAVdgCollisionConvex@@@@QAE@H@Z 100680f0 f i physics:dgCollisionCompoundBreakable.obj
 0001:00067120       ??1?$dgStack@PAVdgCollisionConvex@@@@QAE@XZ 10068120 f i physics:dgCollisionCompoundBreakable.obj
 0001:00067140       ??A?$dgStack@PAVdgCollisionConvex@@@@QAEAAPAVdgCollisionConvex@@H@Z 10068140 f i physics:dgCollisionCompoundBreakable.obj
 0001:000671c0       ??0?$dgTree@VdgCompoundBreakableFilterData@dgCollisionCompoundBreakable@@PAVdgCollisionConvex@@@@QAE@QAVdgMemoryAllocator@@@Z 100681c0 f i physics:dgCollisionCompoundBreakable.obj
 0001:00067200       ??1?$dgTree@VdgCompoundBreakableFilterData@dgCollisionCompoundBreakable@@PAVdgCollisionConvex@@@@UAE@XZ 10068200 f i physics:dgCollisionCompoundBreakable.obj
 0001:00067220       ?Find@?$dgTree@VdgCompoundBreakableFilterData@dgCollisionCompoundBreakable@@PAVdgCollisionConvex@@@@QBEPAVdgTreeNode@1@PAVdgCollisionConvex@@@Z 10068220 f i physics:dgCollisionCompoundBreakable.obj
 0001:00067340       ?Insert@?$dgTree@VdgCompoundBreakableFilterData@dgCollisionCompoundBreakable@@PAVdgCollisionConvex@@@@QAEPAVdgTreeNode@1@ABVdgCompoundBreakableFilterData@dgCollisionCompoundBreakable@@PAVdgCollisionConvex@@@Z 10068340 f i physics:dgCollisionCompoundBreakable.obj
 0001:00067380       ??_G?$dgList@VdgSubMesh@dgCollisionCompoundBreakable@@@@UAEPAXI@Z 10068380 f i physics:dgCollisionCompoundBreakable.obj
 0001:00067380       ??_E?$dgList@VdgSubMesh@dgCollisionCompoundBreakable@@@@UAEPAXI@Z 10068380 f i physics:dgCollisionCompoundBreakable.obj
 0001:000673b0       ??_G?$dgList@V?$dgGraphNode@VdgDebriNodeInfo@dgCollisionCompoundBreakable@@VdgSharedNodeMesh@2@@@@@UAEPAXI@Z 100683b0 f i physics:dgCollisionCompoundBreakable.obj
 0001:000673b0       ??_E?$dgList@V?$dgGraphNode@VdgDebriNodeInfo@dgCollisionCompoundBreakable@@VdgSharedNodeMesh@2@@@@@UAEPAXI@Z 100683b0 f i physics:dgCollisionCompoundBreakable.obj
 0001:000673e0       ??_E?$dgGraph@VdgDebriNodeInfo@dgCollisionCompoundBreakable@@VdgSharedNodeMesh@2@@@UAEPAXI@Z 100683e0 f i physics:dgCollisionCompoundBreakable.obj
 0001:000673e0       ??_G?$dgGraph@VdgDebriNodeInfo@dgCollisionCompoundBreakable@@VdgSharedNodeMesh@2@@@UAEPAXI@Z 100683e0 f i physics:dgCollisionCompoundBreakable.obj
 0001:00067410       ??_E?$dgList@PAVdgListNode@?$dgList@V?$dgGraphNode@VdgDebriNodeInfo@dgCollisionCompoundBreakable@@VdgSharedNodeMesh@2@@@@@@@UAEPAXI@Z 10068410 f i physics:dgCollisionCompoundBreakable.obj
 0001:00067410       ??_G?$dgList@PAVdgListNode@?$dgList@V?$dgGraphNode@VdgDebriNodeInfo@dgCollisionCompoundBreakable@@VdgSharedNodeMesh@2@@@@@@@UAEPAXI@Z 10068410 f i physics:dgCollisionCompoundBreakable.obj
 0001:00067440       ??_G?$dgTree@PAVdgListNode@?$dgList@V?$dgGraphNode@VdgDebriNodeInfo@dgCollisionCompoundBreakable@@VdgSharedNodeMesh@2@@@@@PAV12@@@UAEPAXI@Z 10068440 f i physics:dgCollisionCompoundBreakable.obj
 0001:00067440       ??_E?$dgTree@PAVdgListNode@?$dgList@V?$dgGraphNode@VdgDebriNodeInfo@dgCollisionCompoundBreakable@@VdgSharedNodeMesh@2@@@@@PAV12@@@UAEPAXI@Z 10068440 f i physics:dgCollisionCompoundBreakable.obj
 0001:00067470       ??_G?$dgTree@HPAVdgListNode@?$dgList@V?$dgGraphNode@VdgDebriNodeInfo@dgCollisionCompoundBreakable@@VdgSharedNodeMesh@2@@@@@@@UAEPAXI@Z 10068470 f i physics:dgCollisionCompoundBreakable.obj
 0001:00067470       ??_E?$dgTree@HPAVdgListNode@?$dgList@V?$dgGraphNode@VdgDebriNodeInfo@dgCollisionCompoundBreakable@@VdgSharedNodeMesh@2@@@@@@@UAEPAXI@Z 10068470 f i physics:dgCollisionCompoundBreakable.obj
 0001:000674a0       ??_G?$dgTree@VdgCompoundBreakableFilterData@dgCollisionCompoundBreakable@@PAVdgCollisionConvex@@@@UAEPAXI@Z 100684a0 f i physics:dgCollisionCompoundBreakable.obj
 0001:000674a0       ??_E?$dgTree@VdgCompoundBreakableFilterData@dgCollisionCompoundBreakable@@PAVdgCollisionConvex@@@@UAEPAXI@Z 100684a0 f i physics:dgCollisionCompoundBreakable.obj
 0001:000674d0       ??2dgListNode@?$dgList@VdgSubMesh@dgCollisionCompoundBreakable@@@@CAPAXIQAVdgMemoryAllocator@@@Z 100684d0 f i physics:dgCollisionCompoundBreakable.obj
 0001:000674f0       ??0dgListNode@?$dgList@VdgSubMesh@dgCollisionCompoundBreakable@@@@AAE@ABVdgSubMesh@dgCollisionCompoundBreakable@@QAV01@1@Z 100684f0 f i physics:dgCollisionCompoundBreakable.obj
 0001:00067570       ??_EdgListNode@?$dgList@VdgSubMesh@dgCollisionCompoundBreakable@@@@EAEPAXI@Z 10068570 f i physics:dgCollisionCompoundBreakable.obj
 0001:00067570       ??_GdgListNode@?$dgList@VdgSubMesh@dgCollisionCompoundBreakable@@@@EAEPAXI@Z 10068570 f i physics:dgCollisionCompoundBreakable.obj
 0001:000675a0       ??1dgListNode@?$dgList@VdgSubMesh@dgCollisionCompoundBreakable@@@@EAE@XZ 100685a0 f i physics:dgCollisionCompoundBreakable.obj
 0001:000675c0       ??3dgListNode@?$dgList@VdgSubMesh@dgCollisionCompoundBreakable@@@@CAXQAX@Z 100685c0 f i physics:dgCollisionCompoundBreakable.obj
 0001:000675e0       ??3?$dgTree@PAVdgListNode@?$dgList@V?$dgGraphNode@VdgDebriNodeInfo@dgCollisionCompoundBreakable@@VdgSharedNodeMesh@2@@@@@PAV12@@@SAXQAX@Z 100685e0 f i physics:dgCollisionCompoundBreakable.obj
 0001:00067600       ?GetLeft@dgTreeNode@?$dgTree@PAVdgListNode@?$dgList@V?$dgGraphNode@VdgDebriNodeInfo@dgCollisionCompoundBreakable@@VdgSharedNodeMesh@2@@@@@PAV12@@@ABEPAV12@XZ 10068600 f i physics:dgCollisionCompoundBreakable.obj
 0001:00067620       ?GetRight@dgTreeNode@?$dgTree@PAVdgListNode@?$dgList@V?$dgGraphNode@VdgDebriNodeInfo@dgCollisionCompoundBreakable@@VdgSharedNodeMesh@2@@@@@PAV12@@@ABEPAV12@XZ 10068620 f i physics:dgCollisionCompoundBreakable.obj
 0001:00067640       ??3?$dgTree@HPAVdgListNode@?$dgList@V?$dgGraphNode@VdgDebriNodeInfo@dgCollisionCompoundBreakable@@VdgSharedNodeMesh@2@@@@@@@SAXQAX@Z 10068640 f i physics:dgCollisionCompoundBreakable.obj
 0001:00067660       ?GetLeft@dgTreeNode@?$dgTree@HPAVdgListNode@?$dgList@V?$dgGraphNode@VdgDebriNodeInfo@dgCollisionCompoundBreakable@@VdgSharedNodeMesh@2@@@@@@@ABEPAV12@XZ 10068660 f i physics:dgCollisionCompoundBreakable.obj
 0001:00067680       ?GetRight@dgTreeNode@?$dgTree@HPAVdgListNode@?$dgList@V?$dgGraphNode@VdgDebriNodeInfo@dgCollisionCompoundBreakable@@VdgSharedNodeMesh@2@@@@@@@ABEPAV12@XZ 10068680 f i physics:dgCollisionCompoundBreakable.obj
 0001:000676a0       ??3?$dgTree@VdgCompoundBreakableFilterData@dgCollisionCompoundBreakable@@PAVdgCollisionConvex@@@@SAXQAX@Z 100686a0 f i physics:dgCollisionCompoundBreakable.obj
 0001:000676c0       ?GetLeft@dgTreeNode@?$dgTree@VdgCompoundBreakableFilterData@dgCollisionCompoundBreakable@@PAVdgCollisionConvex@@@@ABEPAV12@XZ 100686c0 f i physics:dgCollisionCompoundBreakable.obj
 0001:000676e0       ?GetRight@dgTreeNode@?$dgTree@VdgCompoundBreakableFilterData@dgCollisionCompoundBreakable@@PAVdgCollisionConvex@@@@ABEPAV12@XZ 100686e0 f i physics:dgCollisionCompoundBreakable.obj
 0001:00067700       ??2dgListNode@?$dgList@PAVdgListNode@?$dgList@V?$dgGraphNode@VdgDebriNodeInfo@dgCollisionCompoundBreakable@@VdgSharedNodeMesh@2@@@@@@@CAPAXIQAVdgMemoryAllocator@@@Z 10068700 f i physics:dgCollisionCompoundBreakable.obj
 0001:00067720       ??0dgListNode@?$dgList@PAVdgListNode@?$dgList@V?$dgGraphNode@VdgDebriNodeInfo@dgCollisionCompoundBreakable@@VdgSharedNodeMesh@2@@@@@@@AAE@ABQAV0?$dgList@V?$dgGraphNode@VdgDebriNodeInfo@dgCollisionCompoundBreakable@@VdgSharedNodeMesh@2@@@@@QAV01@1@Z 10068720 f i physics:dgCollisionCompoundBreakable.obj
 0001:00067780       ??_EdgListNode@?$dgList@PAVdgListNode@?$dgList@V?$dgGraphNode@VdgDebriNodeInfo@dgCollisionCompoundBreakable@@VdgSharedNodeMesh@2@@@@@@@EAEPAXI@Z 10068780 f i physics:dgCollisionCompoundBreakable.obj
 0001:00067780       ??_GdgListNode@?$dgList@PAVdgListNode@?$dgList@V?$dgGraphNode@VdgDebriNodeInfo@dgCollisionCompoundBreakable@@VdgSharedNodeMesh@2@@@@@@@EAEPAXI@Z 10068780 f i physics:dgCollisionCompoundBreakable.obj
 0001:000677b0       ??1dgListNode@?$dgList@PAVdgListNode@?$dgList@V?$dgGraphNode@VdgDebriNodeInfo@dgCollisionCompoundBreakable@@VdgSharedNodeMesh@2@@@@@@@EAE@XZ 100687b0 f i physics:dgCollisionCompoundBreakable.obj
 0001:000677d0       ??3dgListNode@?$dgList@PAVdgListNode@?$dgList@V?$dgGraphNode@VdgDebriNodeInfo@dgCollisionCompoundBreakable@@VdgSharedNodeMesh@2@@@@@@@CAXQAX@Z 100687d0 f i physics:dgCollisionCompoundBreakable.obj
 0001:000677f0       ?Unlink@dgListNode@?$dgList@PAVdgListNode@?$dgList@V?$dgGraphNode@VdgDebriNodeInfo@dgCollisionCompoundBreakable@@VdgSharedNodeMesh@2@@@@@@@AAEXXZ 100687f0 f i physics:dgCollisionCompoundBreakable.obj
 0001:00067840       ?Resize@?$dgArray@VdgFlatVertex@dgCollisionCompoundBreakable@@@@QBEXH@Z 10068840 f i physics:dgCollisionCompoundBreakable.obj
 0001:000679b0       ?RemoveAll@?$dgList@VdgSubMesh@dgCollisionCompoundBreakable@@@@QAEXXZ 100689b0 f i physics:dgCollisionCompoundBreakable.obj
 0001:00067a70       ??0?$dgList@V?$dgGraphNode@VdgDebriNodeInfo@dgCollisionCompoundBreakable@@VdgSharedNodeMesh@2@@@@@QAE@QAVdgMemoryAllocator@@@Z 10068a70 f i physics:dgCollisionCompoundBreakable.obj
 0001:00067ab0       ?Append@?$dgList@V?$dgGraphNode@VdgDebriNodeInfo@dgCollisionCompoundBreakable@@VdgSharedNodeMesh@2@@@@@QAEPAVdgListNode@1@XZ 10068ab0 f i physics:dgCollisionCompoundBreakable.obj
 0001:00067b70       ?Remove@?$dgList@V?$dgGraphNode@VdgDebriNodeInfo@dgCollisionCompoundBreakable@@VdgSharedNodeMesh@2@@@@@QAEXQAVdgListNode@1@@Z 10068b70 f i physics:dgCollisionCompoundBreakable.obj
 0001:00067bc0       ?RemoveAll@?$dgList@V?$dgGraphNode@VdgDebriNodeInfo@dgCollisionCompoundBreakable@@VdgSharedNodeMesh@2@@@@@QAEXXZ 10068bc0 f i physics:dgCollisionCompoundBreakable.obj
 0001:00067c80       ?SetAllocator@?$dgList@V?$dgGraphEdge@VdgDebriNodeInfo@dgCollisionCompoundBreakable@@VdgSharedNodeMesh@2@@@@@QAEXQAVdgMemoryAllocator@@@Z 10068c80 f i physics:dgCollisionCompoundBreakable.obj
 0001:00067cb0       ?Append@?$dgList@V?$dgGraphEdge@VdgDebriNodeInfo@dgCollisionCompoundBreakable@@VdgSharedNodeMesh@2@@@@@QAEPAVdgListNode@1@XZ 10068cb0 f i physics:dgCollisionCompoundBreakable.obj
 0001:00067d70       ?Remove@?$dgList@V?$dgGraphEdge@VdgDebriNodeInfo@dgCollisionCompoundBreakable@@VdgSharedNodeMesh@2@@@@@QAEXQAVdgListNode@1@@Z 10068d70 f i physics:dgCollisionCompoundBreakable.obj
 0001:00067dc0       ?Find@?$dgList@PAVdgListNode@?$dgList@V?$dgGraphNode@VdgDebriNodeInfo@dgCollisionCompoundBreakable@@VdgSharedNodeMesh@2@@@@@@@QBEPAVdgListNode@1@ABQAV2?$dgList@V?$dgGraphNode@VdgDebriNodeInfo@dgCollisionCompoundBreakable@@VdgSharedNodeMesh@2@@@@@@Z 10068dc0 f i physics:dgCollisionCompoundBreakable.obj
 0001:00067e00       ?Unlink@?$dgList@PAVdgListNode@?$dgList@V?$dgGraphNode@VdgDebriNodeInfo@dgCollisionCompoundBreakable@@VdgSharedNodeMesh@2@@@@@@@QAEXQAVdgListNode@1@@Z 10068e00 f i physics:dgCollisionCompoundBreakable.obj
 0001:00067eb0       ?DeleteHalfEdge@?$dgGraphNode@VdgDebriNodeInfo@dgCollisionCompoundBreakable@@VdgSharedNodeMesh@2@@@QAEXQAVdgListNode@?$dgList@V?$dgGraphEdge@VdgDebriNodeInfo@dgCollisionCompoundBreakable@@VdgSharedNodeMesh@2@@@@@@Z 10068eb0 f i physics:dgCollisionCompoundBreakable.obj
 0001:00067ed0       ?Insert@?$dgTree@PAVdgListNode@?$dgList@V?$dgGraphNode@VdgDebriNodeInfo@dgCollisionCompoundBreakable@@VdgSharedNodeMesh@2@@@@@PAV12@@@QAEPAVdgTreeNode@1@ABQAVdgListNode@?$dgList@V?$dgGraphNode@VdgDebriNodeInfo@dgCollisionCompoundBreakable@@VdgSharedNodeMesh@2@@@@@PAV34@AA_N@Z 10068ed0 f i physics:dgCollisionCompoundBreakable.obj
 0001:000680d0       ?RemoveAll@?$dgTree@PAVdgListNode@?$dgList@V?$dgGraphNode@VdgDebriNodeInfo@dgCollisionCompoundBreakable@@VdgSharedNodeMesh@2@@@@@PAV12@@@QAEXXZ 100690d0 f i physics:dgCollisionCompoundBreakable.obj
 0001:00068110       ?CompareKeys@?$dgTree@PAVdgListNode@?$dgList@V?$dgGraphNode@VdgDebriNodeInfo@dgCollisionCompoundBreakable@@VdgSharedNodeMesh@2@@@@@PAV12@@@ABEHABQAVdgListNode@?$dgList@V?$dgGraphNode@VdgDebriNodeInfo@dgCollisionCompoundBreakable@@VdgSharedNodeMesh@2@@@@@0@Z 10069110 f i physics:dgCollisionCompoundBreakable.obj
 0001:00068150       ?Insert@?$dgTree@HPAVdgListNode@?$dgList@V?$dgGraphNode@VdgDebriNodeInfo@dgCollisionCompoundBreakable@@VdgSharedNodeMesh@2@@@@@@@QAEPAVdgTreeNode@1@ABHPAVdgListNode@?$dgList@V?$dgGraphNode@VdgDebriNodeInfo@dgCollisionCompoundBreakable@@VdgSharedNodeMesh@2@@@@@AA_N@Z 10069150 f i physics:dgCollisionCompoundBreakable.obj
 0001:00068350       ?RemoveAll@?$dgTree@HPAVdgListNode@?$dgList@V?$dgGraphNode@VdgDebriNodeInfo@dgCollisionCompoundBreakable@@VdgSharedNodeMesh@2@@@@@@@QAEXXZ 10069350 f i physics:dgCollisionCompoundBreakable.obj
 0001:00068390       ?CompareKeys@?$dgTree@HPAVdgListNode@?$dgList@V?$dgGraphNode@VdgDebriNodeInfo@dgCollisionCompoundBreakable@@VdgSharedNodeMesh@2@@@@@@@ABEHABQAVdgListNode@?$dgList@V?$dgGraphNode@VdgDebriNodeInfo@dgCollisionCompoundBreakable@@VdgSharedNodeMesh@2@@@@@0@Z 10069390 f i physics:dgCollisionCompoundBreakable.obj
 0001:000683d0       ?Insert@?$dgTree@VdgCompoundBreakableFilterData@dgCollisionCompoundBreakable@@PAVdgCollisionConvex@@@@QAEPAVdgTreeNode@1@ABVdgCompoundBreakableFilterData@dgCollisionCompoundBreakable@@PAVdgCollisionConvex@@AA_N@Z 100693d0 f i physics:dgCollisionCompoundBreakable.obj
 0001:000685d0       ?RemoveAll@?$dgTree@VdgCompoundBreakableFilterData@dgCollisionCompoundBreakable@@PAVdgCollisionConvex@@@@QAEXXZ 100695d0 f i physics:dgCollisionCompoundBreakable.obj
 0001:00068610       ?CompareKeys@?$dgTree@VdgCompoundBreakableFilterData@dgCollisionCompoundBreakable@@PAVdgCollisionConvex@@@@ABEHABQAVdgCollisionConvex@@0@Z 10069610 f i physics:dgCollisionCompoundBreakable.obj
 0001:00068650       ??2dgListNode@?$dgList@V?$dgGraphNode@VdgDebriNodeInfo@dgCollisionCompoundBreakable@@VdgSharedNodeMesh@2@@@@@CAPAXIQAVdgMemoryAllocator@@@Z 10069650 f i physics:dgCollisionCompoundBreakable.obj
 0001:00068670       ??0dgListNode@?$dgList@V?$dgGraphNode@VdgDebriNodeInfo@dgCollisionCompoundBreakable@@VdgSharedNodeMesh@2@@@@@AAE@QAV01@0@Z 10069670 f i physics:dgCollisionCompoundBreakable.obj
 0001:000686d0       ??_EdgListNode@?$dgList@V?$dgGraphNode@VdgDebriNodeInfo@dgCollisionCompoundBreakable@@VdgSharedNodeMesh@2@@@@@EAEPAXI@Z 100696d0 f i physics:dgCollisionCompoundBreakable.obj
 0001:000686d0       ??_GdgListNode@?$dgList@V?$dgGraphNode@VdgDebriNodeInfo@dgCollisionCompoundBreakable@@VdgSharedNodeMesh@2@@@@@EAEPAXI@Z 100696d0 f i physics:dgCollisionCompoundBreakable.obj
 0001:00068700       ??1dgListNode@?$dgList@V?$dgGraphNode@VdgDebriNodeInfo@dgCollisionCompoundBreakable@@VdgSharedNodeMesh@2@@@@@EAE@XZ 10069700 f i physics:dgCollisionCompoundBreakable.obj
 0001:00068720       ??3dgListNode@?$dgList@V?$dgGraphNode@VdgDebriNodeInfo@dgCollisionCompoundBreakable@@VdgSharedNodeMesh@2@@@@@CAXQAX@Z 10069720 f i physics:dgCollisionCompoundBreakable.obj
 0001:00068740       ??1?$dgGraphNode@VdgDebriNodeInfo@dgCollisionCompoundBreakable@@VdgSharedNodeMesh@2@@@UAE@XZ 10069740 f i physics:dgCollisionCompoundBreakable.obj
 0001:00068770       ??1?$dgList@V?$dgGraphEdge@VdgDebriNodeInfo@dgCollisionCompoundBreakable@@VdgSharedNodeMesh@2@@@@@UAE@XZ 10069770 f i physics:dgCollisionCompoundBreakable.obj
 0001:00068790       ??_G?$dgList@V?$dgGraphEdge@VdgDebriNodeInfo@dgCollisionCompoundBreakable@@VdgSharedNodeMesh@2@@@@@UAEPAXI@Z 10069790 f i physics:dgCollisionCompoundBreakable.obj
 0001:00068790       ??_E?$dgList@V?$dgGraphEdge@VdgDebriNodeInfo@dgCollisionCompoundBreakable@@VdgSharedNodeMesh@2@@@@@UAEPAXI@Z 10069790 f i physics:dgCollisionCompoundBreakable.obj
 0001:000687c0       ??_E?$dgGraphNode@VdgDebriNodeInfo@dgCollisionCompoundBreakable@@VdgSharedNodeMesh@2@@@UAEPAXI@Z 100697c0 f i physics:dgCollisionCompoundBreakable.obj
 0001:000687c0       ??_G?$dgGraphNode@VdgDebriNodeInfo@dgCollisionCompoundBreakable@@VdgSharedNodeMesh@2@@@UAEPAXI@Z 100697c0 f i physics:dgCollisionCompoundBreakable.obj
 0001:000687f0       ??3?$dgList@V?$dgGraphEdge@VdgDebriNodeInfo@dgCollisionCompoundBreakable@@VdgSharedNodeMesh@2@@@@@SAXQAX@Z 100697f0 f i physics:dgCollisionCompoundBreakable.obj
 0001:00068810       ?RemoveAll@?$dgList@V?$dgGraphEdge@VdgDebriNodeInfo@dgCollisionCompoundBreakable@@VdgSharedNodeMesh@2@@@@@QAEXXZ 10069810 f i physics:dgCollisionCompoundBreakable.obj
 0001:000688d0       ?Unlink@dgListNode@?$dgList@V?$dgGraphNode@VdgDebriNodeInfo@dgCollisionCompoundBreakable@@VdgSharedNodeMesh@2@@@@@AAEXXZ 100698d0 f i physics:dgCollisionCompoundBreakable.obj
 0001:00068920       ?Unlink@dgListNode@?$dgList@VdgSubMesh@dgCollisionCompoundBreakable@@@@AAEXXZ 10069920 f i physics:dgCollisionCompoundBreakable.obj
 0001:00068970       ??0dgTreeNode@?$dgTree@PAVdgListNode@?$dgList@V?$dgGraphNode@VdgDebriNodeInfo@dgCollisionCompoundBreakable@@VdgSharedNodeMesh@2@@@@@PAV12@@@AAE@ABQAVdgListNode@?$dgList@V?$dgGraphNode@VdgDebriNodeInfo@dgCollisionCompoundBreakable@@VdgSharedNodeMesh@2@@@@@0PAV01@@Z 10069970 f i physics:dgCollisionCompoundBreakable.obj
 0001:000689b0       ??_GdgTreeNode@?$dgTree@PAVdgListNode@?$dgList@V?$dgGraphNode@VdgDebriNodeInfo@dgCollisionCompoundBreakable@@VdgSharedNodeMesh@2@@@@@PAV12@@@EAEPAXI@Z 100699b0 f i physics:dgCollisionCompoundBreakable.obj
 0001:000689b0       ??_EdgTreeNode@?$dgTree@PAVdgListNode@?$dgList@V?$dgGraphNode@VdgDebriNodeInfo@dgCollisionCompoundBreakable@@VdgSharedNodeMesh@2@@@@@PAV12@@@EAEPAXI@Z 100699b0 f i physics:dgCollisionCompoundBreakable.obj
 0001:000689e0       ??1dgTreeNode@?$dgTree@PAVdgListNode@?$dgList@V?$dgGraphNode@VdgDebriNodeInfo@dgCollisionCompoundBreakable@@VdgSharedNodeMesh@2@@@@@PAV12@@@EAE@XZ 100699e0 f i physics:dgCollisionCompoundBreakable.obj
 0001:00068a00       ??2dgListNode@?$dgList@V?$dgGraphEdge@VdgDebriNodeInfo@dgCollisionCompoundBreakable@@VdgSharedNodeMesh@2@@@@@CAPAXIQAVdgMemoryAllocator@@@Z 10069a00 f i physics:dgCollisionCompoundBreakable.obj
 0001:00068a20       ??0dgListNode@?$dgList@V?$dgGraphEdge@VdgDebriNodeInfo@dgCollisionCompoundBreakable@@VdgSharedNodeMesh@2@@@@@AAE@QAV01@0@Z 10069a20 f i physics:dgCollisionCompoundBreakable.obj
 0001:00068a80       ??_GdgListNode@?$dgList@V?$dgGraphEdge@VdgDebriNodeInfo@dgCollisionCompoundBreakable@@VdgSharedNodeMesh@2@@@@@EAEPAXI@Z 10069a80 f i physics:dgCollisionCompoundBreakable.obj
 0001:00068a80       ??_EdgListNode@?$dgList@V?$dgGraphEdge@VdgDebriNodeInfo@dgCollisionCompoundBreakable@@VdgSharedNodeMesh@2@@@@@EAEPAXI@Z 10069a80 f i physics:dgCollisionCompoundBreakable.obj
 0001:00068ab0       ??1dgListNode@?$dgList@V?$dgGraphEdge@VdgDebriNodeInfo@dgCollisionCompoundBreakable@@VdgSharedNodeMesh@2@@@@@EAE@XZ 10069ab0 f i physics:dgCollisionCompoundBreakable.obj
 0001:00068ad0       ??3dgListNode@?$dgList@V?$dgGraphEdge@VdgDebriNodeInfo@dgCollisionCompoundBreakable@@VdgSharedNodeMesh@2@@@@@CAXQAX@Z 10069ad0 f i physics:dgCollisionCompoundBreakable.obj
 0001:00068af0       ??1?$dgGraphEdge@VdgDebriNodeInfo@dgCollisionCompoundBreakable@@VdgSharedNodeMesh@2@@@QAE@XZ 10069af0 f i physics:dgCollisionCompoundBreakable.obj
 0001:00068b10       ?Unlink@dgListNode@?$dgList@V?$dgGraphEdge@VdgDebriNodeInfo@dgCollisionCompoundBreakable@@VdgSharedNodeMesh@2@@@@@AAEXXZ 10069b10 f i physics:dgCollisionCompoundBreakable.obj
 0001:00068b60       ??0dgTreeNode@?$dgTree@HPAVdgListNode@?$dgList@V?$dgGraphNode@VdgDebriNodeInfo@dgCollisionCompoundBreakable@@VdgSharedNodeMesh@2@@@@@@@AAE@ABHABQAVdgListNode@?$dgList@V?$dgGraphNode@VdgDebriNodeInfo@dgCollisionCompoundBreakable@@VdgSharedNodeMesh@2@@@@@PAV01@@Z 10069b60 f i physics:dgCollisionCompoundBreakable.obj
 0001:00068ba0       ??_EdgTreeNode@?$dgTree@HPAVdgListNode@?$dgList@V?$dgGraphNode@VdgDebriNodeInfo@dgCollisionCompoundBreakable@@VdgSharedNodeMesh@2@@@@@@@EAEPAXI@Z 10069ba0 f i physics:dgCollisionCompoundBreakable.obj
 0001:00068ba0       ??_GdgTreeNode@?$dgTree@HPAVdgListNode@?$dgList@V?$dgGraphNode@VdgDebriNodeInfo@dgCollisionCompoundBreakable@@VdgSharedNodeMesh@2@@@@@@@EAEPAXI@Z 10069ba0 f i physics:dgCollisionCompoundBreakable.obj
 0001:00068bd0       ??1dgTreeNode@?$dgTree@HPAVdgListNode@?$dgList@V?$dgGraphNode@VdgDebriNodeInfo@dgCollisionCompoundBreakable@@VdgSharedNodeMesh@2@@@@@@@EAE@XZ 10069bd0 f i physics:dgCollisionCompoundBreakable.obj
 0001:00068bf0       ??0dgTreeNode@?$dgTree@VdgCompoundBreakableFilterData@dgCollisionCompoundBreakable@@PAVdgCollisionConvex@@@@AAE@ABVdgCompoundBreakableFilterData@dgCollisionCompoundBreakable@@ABQAVdgCollisionConvex@@PAV01@@Z 10069bf0 f i physics:dgCollisionCompoundBreakable.obj
 0001:00068c40       ??_GdgTreeNode@?$dgTree@VdgCompoundBreakableFilterData@dgCollisionCompoundBreakable@@PAVdgCollisionConvex@@@@EAEPAXI@Z 10069c40 f i physics:dgCollisionCompoundBreakable.obj
 0001:00068c40       ??_EdgTreeNode@?$dgTree@VdgCompoundBreakableFilterData@dgCollisionCompoundBreakable@@PAVdgCollisionConvex@@@@EAEPAXI@Z 10069c40 f i physics:dgCollisionCompoundBreakable.obj
 0001:00068c70       ??1dgTreeNode@?$dgTree@VdgCompoundBreakableFilterData@dgCollisionCompoundBreakable@@PAVdgCollisionConvex@@@@EAE@XZ 10069c70 f i physics:dgCollisionCompoundBreakable.obj
 0001:00068c90       ?GetPrev@dgListNode@?$dgList@PAVdgListNode@?$dgList@V?$dgGraphNode@VdgDebriNodeInfo@dgCollisionCompoundBreakable@@VdgSharedNodeMesh@2@@@@@@@QBEPAV12@XZ 10069c90 f i physics:dgCollisionCompoundBreakable.obj
 0001:00068cb0       ?Unlink@?$dgList@V?$dgGraphNode@VdgDebriNodeInfo@dgCollisionCompoundBreakable@@VdgSharedNodeMesh@2@@@@@QAEXQAVdgListNode@1@@Z 10069cb0 f i physics:dgCollisionCompoundBreakable.obj
 0001:00068d60       ?Unlink@?$dgList@V?$dgGraphEdge@VdgDebriNodeInfo@dgCollisionCompoundBreakable@@VdgSharedNodeMesh@2@@@@@QAEXQAVdgListNode@1@@Z 10069d60 f i physics:dgCollisionCompoundBreakable.obj
 0001:00068e10       ??0?$dgGraphNode@VdgDebriNodeInfo@dgCollisionCompoundBreakable@@VdgSharedNodeMesh@2@@@QAE@XZ 10069e10 f i physics:dgCollisionCompoundBreakable.obj
 0001:00068e40       ??0?$dgGraphEdge@VdgDebriNodeInfo@dgCollisionCompoundBreakable@@VdgSharedNodeMesh@2@@@QAE@XZ 10069e40 f i physics:dgCollisionCompoundBreakable.obj
 0001:00068e60       ?GetPrev@dgListNode@?$dgList@V?$dgGraphNode@VdgDebriNodeInfo@dgCollisionCompoundBreakable@@VdgSharedNodeMesh@2@@@@@QBEPAV12@XZ 10069e60 f i physics:dgCollisionCompoundBreakable.obj
 0001:00068e80       ?GetPrev@dgListNode@?$dgList@V?$dgGraphEdge@VdgDebriNodeInfo@dgCollisionCompoundBreakable@@VdgSharedNodeMesh@2@@@@@QBEPAV12@XZ 10069e80 f i physics:dgCollisionCompoundBreakable.obj
 0001:00068ea0       ??0?$dgList@V?$dgGraphEdge@VdgDebriNodeInfo@dgCollisionCompoundBreakable@@VdgSharedNodeMesh@2@@@@@QAE@QAVdgMemoryAllocator@@@Z 10069ea0 f i physics:dgCollisionCompoundBreakable.obj
 0001:00068ee0       ??_EdgMesh@dgCollisionCompoundBreakable@@WBE@AEPAXI@Z 10069ee0 f i physics:dgCollisionCompoundBreakable.obj
 0001:00068ef0       ??0dgCollisionConvexHull@@QAE@QAVdgMemoryAllocator@@IHHMPBMABVdgMatrix@@@Z 10069ef0 f   physics:dgCollisionConvexHull.obj
 0001:00069560       ??0dgCollisionConvexHull@@QAE@QAVdgWorld@@P6AXQAXPAXI@Z1@Z 1006a560 f   physics:dgCollisionConvexHull.obj
 0001:000697c0       ??1dgCollisionConvexHull@@UAE@XZ 1006a7c0 f   physics:dgCollisionConvexHull.obj
 0001:00069800       ?GetFaceIndices@dgCollisionConvexHull@@QBEHHPAH@Z 1006a800 f   physics:dgCollisionConvexHull.obj
 0001:00069860       ?FaceNormal@dgCollisionConvexHull@@ABE?AVdgBigVector@@PBVdgEdge@@QBV2@@Z 1006a860 f   physics:dgCollisionConvexHull.obj
 0001:00069b90       ?RemoveCoplanarEdge@dgCollisionConvexHull@@ABE_NAAVdgPolyhedra@@QBVdgBigVector@@@Z 1006ab90 f   physics:dgCollisionConvexHull.obj
 0001:0006a200       ?CheckConvex@dgCollisionConvexHull@@ABE_NAAVdgPolyhedra@@PBVdgBigVector@@@Z 1006b200 f   physics:dgCollisionConvexHull.obj
 0001:0006a4b0       ?Create@dgCollisionConvexHull@@AAE_NHHQBMM@Z 1006b4b0 f   physics:dgCollisionConvexHull.obj
 0001:0006b2e0       ?CalculateSignature@dgCollisionConvexHull@@EBEHXZ 1006c2e0 f   physics:dgCollisionConvexHull.obj
 0001:0006b320       ?SetBreakImpulse@dgCollisionConvexHull@@EAEXM@Z 1006c320 f   physics:dgCollisionConvexHull.obj
 0001:0006b340       ?GetBreakImpulse@dgCollisionConvexHull@@EBEMXZ 1006c340 f   physics:dgCollisionConvexHull.obj
 0001:0006b360       ?SetCollisionBBox@dgCollisionConvexHull@@EAEXABVdgVector@@0@Z 1006c360 f   physics:dgCollisionConvexHull.obj
 0001:0006b3a0       ?DebugCollision@dgCollisionConvexHull@@EBEXABVdgMatrix@@P6AXPAXHPBMH@ZQAX@Z 1006c3a0 f   physics:dgCollisionConvexHull.obj
 0001:0006b4d0       ?GetCollisionInfo@dgCollisionConvexHull@@EBEXPAVdgCollisionInfo@@@Z 1006c4d0 f   physics:dgCollisionConvexHull.obj
 0001:0006b550       ?Serialize@dgCollisionConvexHull@@EBEXP6AXQAXQBXI@Z0@Z 1006c550 f   physics:dgCollisionConvexHull.obj
 0001:0006b720       ?OOBBTest@dgCollisionConvexHull@@EBE_NABVdgMatrix@@QBVdgCollisionConvex@@QAX@Z 1006c720 f   physics:dgCollisionConvexHull.obj
 0001:0006baf0       ??_EdgCollisionConvexHull@@UAEPAXI@Z 1006caf0 f i physics:dgCollisionConvexHull.obj
 0001:0006baf0       ??_GdgCollisionConvexHull@@UAEPAXI@Z 1006caf0 f i physics:dgCollisionConvexHull.obj
 0001:0006bb20       ??0dgPlaneLocation@@QAE@XZ 1006cb20 f i physics:dgCollisionConvexHull.obj
 0001:0006bb40       ??0dgPlane@@QAE@XZ         1006cb40 f i physics:dgCollisionConvexHull.obj
 0001:0006bb60       ??0dgPlane@@QAE@ABVdgVector@@M@Z 1006cb60 f i physics:dgCollisionConvexHull.obj
 0001:0006bba0       ?Scale@dgPlane@@QBE?AV1@M@Z 1006cba0 f i physics:dgCollisionConvexHull.obj
 0001:0006bc10       ??0dgPlane@@QAE@MMMM@Z     1006cc10 f i physics:dgCollisionConvexHull.obj
 0001:0006bc50       ?Evalue@dgPlane@@QBEMABVdgVector@@@Z 1006cc50 f i physics:dgCollisionConvexHull.obj
 0001:0006bca0       ??2?$dgList@VdgConvexHull3DFace@@@@SAPAXIQAVdgMemoryAllocator@@@Z 1006cca0 f i physics:dgCollisionConvexHull.obj
 0001:0006bcc0       ?GetInfo@dgListNode@?$dgList@VdgConvexHull3DFace@@@@QAEAAVdgConvexHull3DFace@@XZ 1006ccc0 f i physics:dgCollisionConvexHull.obj
 0001:0006bce0       ?GetCount@?$dgList@VdgConvexHull3DFace@@@@QBEHXZ 1006cce0 f i physics:dgCollisionConvexHull.obj
 0001:0006bd00       ?GetFirst@?$dgList@VdgConvexHull3DFace@@@@QBEPAVdgListNode@1@XZ 1006cd00 f i physics:dgCollisionConvexHull.obj
 0001:0006bd20       ??$Swap@PAVdgConvexSimplexEdge@@@@YAXAAPAVdgConvexSimplexEdge@@0@Z 1006cd20 f i physics:dgCollisionConvexHull.obj
 0001:0006bd50       ??0?$dgStack@N@@QAE@H@Z    1006cd50 f i physics:dgCollisionConvexHull.obj
 0001:0006bd80       ??1?$dgStack@N@@QAE@XZ     1006cd80 f i physics:dgCollisionConvexHull.obj
 0001:0006bda0       ??A?$dgStack@N@@QAEAANH@Z  1006cda0 f i physics:dgCollisionConvexHull.obj
 0001:0006be20       ??0?$dgStack@PAVdgConvexSimplexEdge@@@@QAE@H@Z 1006ce20 f i physics:dgCollisionConvexHull.obj
 0001:0006be50       ??1?$dgStack@PAVdgConvexSimplexEdge@@@@QAE@XZ 1006ce50 f i physics:dgCollisionConvexHull.obj
 0001:0006be70       ??A?$dgStack@PAVdgConvexSimplexEdge@@@@QAEAAPAVdgConvexSimplexEdge@@H@Z 1006ce70 f i physics:dgCollisionConvexHull.obj
 0001:0006bef0       ??0?$dgStack@VdgTriplex@@@@QAE@H@Z 1006cef0 f i physics:dgCollisionConvexHull.obj
 0001:0006bf20       ??1?$dgStack@VdgTriplex@@@@QAE@XZ 1006cf20 f i physics:dgCollisionConvexHull.obj
 0001:0006bf40       ??A?$dgStack@VdgTriplex@@@@QAEAAVdgTriplex@@H@Z 1006cf40 f i physics:dgCollisionConvexHull.obj
 0001:0006bfc0       ?AddFace@dgPolyhedra@@QAEPAVdgEdge@@HHH@Z 1006cfc0 f i physics:dgCollisionConvexHull.obj
 0001:0006c000       ?GetVertexCount@dgConvexHull3d@@QBEHXZ 1006d000 f i physics:dgCollisionConvexHull.obj
 0001:0006c020       ?GetVertexPool@dgConvexHull3d@@QBEPBVdgBigVector@@XZ 1006d020 f i physics:dgCollisionConvexHull.obj
 0001:0006c040       ??A?$dgArray@VdgBigVector@@@@QBEABVdgBigVector@@H@Z 1006d040 f i physics:dgCollisionConvexHull.obj
 0001:0006c0a0       ?Resize@?$dgArray@VdgBigVector@@@@QBEXH@Z 1006d0a0 f i physics:dgCollisionConvexHull.obj
 0001:0006c210       ?GetNext@dgListNode@?$dgList@VdgConvexHull3DFace@@@@QBEPAV12@XZ 1006d210 f i physics:dgCollisionConvexHull.obj
 0001:0006c230       ??0dgNode@dgCollisionScene@@QAE@XZ 1006d230 f   physics:dgCollisionScene.obj
 0001:0006c280       ??0dgNode@dgCollisionScene@@QAE@QAV01@0@Z 1006d280 f   physics:dgCollisionScene.obj
 0001:0006c4c0       ??1dgNode@dgCollisionScene@@QAE@XZ 1006d4c0 f   physics:dgCollisionScene.obj
 0001:0006c540       ??0dgProxy@dgCollisionScene@@QAE@PAVdgCollision@@ABVdgMatrix@@QAV1@@Z 1006d540 f   physics:dgCollisionScene.obj
 0001:0006c7d0       ??1dgProxy@dgCollisionScene@@QAE@XZ 1006d7d0 f   physics:dgCollisionScene.obj
 0001:0006c7f0       ??0dgCollisionScene@@QAE@QAVdgWorld@@@Z 1006d7f0 f   physics:dgCollisionScene.obj
 0001:0006c910       ??0dgCollisionScene@@QAE@QAVdgWorld@@P6AXQAXPAXI@Z1@Z 1006d910 f   physics:dgCollisionScene.obj
 0001:0006ca80       ??1dgCollisionScene@@UAE@XZ 1006da80 f   physics:dgCollisionScene.obj
 0001:0006caf0       ?Serialize@dgCollisionScene@@EBEXP6AXQAXQBXI@Z0@Z 1006daf0 f   physics:dgCollisionScene.obj
 0001:0006cbd0       ?SetProxyMatrix@dgCollisionScene@@QAEXQAXABVdgMatrix@@@Z 1006dbd0 f   physics:dgCollisionScene.obj
 0001:0006d050       ?GetProxyMatrix@dgCollisionScene@@QAE?AVdgMatrix@@QAX@Z 1006e050 f   physics:dgCollisionScene.obj
 0001:0006d0b0       ?SetProxyUserData@dgCollisionScene@@QAEXQAX0@Z 1006e0b0 f   physics:dgCollisionScene.obj
 0001:0006d0e0       ?GetProxyUserData@dgCollisionScene@@QBEPAXQAX@Z 1006e0e0 f   physics:dgCollisionScene.obj
 0001:0006d110       ?SetCollisionCallback@dgCollisionScene@@QAEXP6AXPBVdgBody@@QBV2@HHPBMH@Z@Z 1006e110 f   physics:dgCollisionScene.obj
 0001:0006d150       ?CalcAABB@dgCollisionScene@@EBEXABVdgMatrix@@AAVdgVector@@1@Z 1006e150 f   physics:dgCollisionScene.obj
 0001:0006d3e0       ?CalcAABBSimd@dgCollisionScene@@EBEXABVdgMatrix@@AAVdgVector@@1@Z 1006e3e0 f   physics:dgCollisionScene.obj
 0001:0006d410       ?DebugCollision@dgCollisionScene@@EBEXABVdgMatrix@@P6AXPAXHPBMH@ZQAX@Z 1006e410 f   physics:dgCollisionScene.obj
 0001:0006d4c0       ?GetVolume@dgCollisionScene@@EBEMXZ 1006e4c0 f   physics:dgCollisionScene.obj
 0001:0006d500       ?CalculateSignature@dgCollisionScene@@EBEHXZ 1006e500 f   physics:dgCollisionScene.obj
 0001:0006d540       ?GetBoxMinRadius@dgCollisionScene@@EBEMXZ 1006e540 f   physics:dgCollisionScene.obj
 0001:0006d550       ?GetBoxMaxRadius@dgCollisionScene@@EBEMXZ 1006e550 f   physics:dgCollisionScene.obj
 0001:0006d560       ?SetCollisionBBox@dgCollisionScene@@EAEXABVdgVector@@0@Z 1006e560 f   physics:dgCollisionScene.obj
 0001:0006d6c0       ?CalculateInertia@dgCollisionScene@@EBEXAAVdgVector@@0@Z 1006e6c0 f   physics:dgCollisionScene.obj
 0001:0006d700       ?CalculateVolumeIntegral@dgCollisionScene@@EBE?AVdgVector@@ABVdgMatrix@@P6AIPAX10AAVdgPlane@@@ZQAX@Z 1006e700 f   physics:dgCollisionScene.obj
 0001:0006d760       ?GetCollisionInfo@dgCollisionScene@@EBEXPAVdgCollisionInfo@@@Z 1006e760 f   physics:dgCollisionScene.obj
 0001:0006d7b0       ?OOBBTest@dgCollisionScene@@EBE_NABVdgMatrix@@QBVdgCollisionConvex@@QAX@Z 1006e7b0 f   physics:dgCollisionScene.obj
 0001:0006d7f0       ?SupportVertex@dgCollisionScene@@EBE?AVdgVector@@ABV2@@Z 1006e7f0 f   physics:dgCollisionScene.obj
 0001:0006d850       ?RayCastSimd@dgCollisionScene@@EBEMABVdgVector@@0AAVdgContactPoint@@P6AIQBVdgBody@@QBVdgCollision@@QAX@Z24@Z 1006e850 f   physics:dgCollisionScene.obj
 0001:0006db80       ?RayCast@dgCollisionScene@@EBEMABVdgVector@@0AAVdgContactPoint@@P6AIQBVdgBody@@QBVdgCollision@@QAX@Z24@Z 1006eb80 f   physics:dgCollisionScene.obj
 0001:0006deb0       ?CollidePairSimd@dgCollisionScene@@QBEXQAUdgPair@dgCollidingPairCollector@@AAVdgCollisionParamProxy@@@Z 1006eeb0 f   physics:dgCollisionScene.obj
 0001:0006e1d0       ?CollidePair@dgCollisionScene@@QBEXQAUdgPair@dgCollidingPairCollector@@AAVdgCollisionParamProxy@@@Z 1006f1d0 f   physics:dgCollisionScene.obj
 0001:0006e4f0       ?ImproveNodeFitness@dgCollisionScene@@AAEXQAVdgNode@1@@Z 1006f4f0 f   physics:dgCollisionScene.obj
 0001:0006ecf0       ?ImproveTotalFitness@dgCollisionScene@@QAEXXZ 1006fcf0 f   physics:dgCollisionScene.obj
 0001:0006edf0       ?CalculateSurfaceArea@dgCollisionScene@@ABEMQBVdgNode@1@0AAVdgVector@@1@Z 1006fdf0 f   physics:dgCollisionScene.obj
 0001:0006ef70       ?GetFirstProxy@dgCollisionScene@@QBEPAXXZ 1006ff70 f   physics:dgCollisionScene.obj
 0001:0006ef90       ?GetNextProxy@dgCollisionScene@@QBEPAXQAX@Z 1006ff90 f   physics:dgCollisionScene.obj
 0001:0006efb0       ?AddProxy@dgCollisionScene@@QAEPAXQAVdgCollision@@ABVdgMatrix@@@Z 1006ffb0 f   physics:dgCollisionScene.obj
 0001:0006f2c0       ?RemoveProxy@dgCollisionScene@@QAEXQAX@Z 100702c0 f   physics:dgCollisionScene.obj
 0001:0006f520       ??_GdgNode@dgCollisionScene@@QAEPAXI@Z 10070520 f i physics:dgCollisionScene.obj
 0001:0006f550       ??3dgNode@dgCollisionScene@@SAXQAX@Z 10070550 f i physics:dgCollisionScene.obj
 0001:0006f570       ??_GdgCollisionScene@@UAEPAXI@Z 10070570 f i physics:dgCollisionScene.obj
 0001:0006f570       ??_EdgCollisionScene@@UAEPAXI@Z 10070570 f i physics:dgCollisionScene.obj
 0001:0006f5a0       ?exp_2@@YAHH@Z             100705a0 f i physics:dgCollisionScene.obj
 0001:0006f5d0       ??2dgNode@dgCollisionScene@@SAPAXIQAVdgMemoryAllocator@@@Z 100705d0 f i physics:dgCollisionScene.obj
 0001:0006f5f0       ??2dgProxy@dgCollisionScene@@SAPAXIQAVdgMemoryAllocator@@@Z 100705f0 f i physics:dgCollisionScene.obj
 0001:0006f610       ?GetNext@dgListNode@?$dgList@PAVdgProxy@dgCollisionScene@@@@QBEPAV12@XZ 10070610 f i physics:dgCollisionScene.obj
 0001:0006f630       ?GetInfo@dgListNode@?$dgList@PAVdgNode@dgCollisionScene@@@@QAEAAPAVdgNode@dgCollisionScene@@XZ 10070630 f i physics:dgCollisionScene.obj
 0001:0006f650       ?GetNext@dgListNode@?$dgList@PAVdgNode@dgCollisionScene@@@@QBEPAV12@XZ 10070650 f i physics:dgCollisionScene.obj
 0001:0006f670       ??0?$dgList@PAVdgNode@dgCollisionScene@@@@QAE@QAVdgMemoryAllocator@@@Z 10070670 f i physics:dgCollisionScene.obj
 0001:0006f6b0       ??1?$dgList@PAVdgNode@dgCollisionScene@@@@UAE@XZ 100706b0 f i physics:dgCollisionScene.obj
 0001:0006f6d0       ?GetCount@?$dgList@PAVdgNode@dgCollisionScene@@@@QBEHXZ 100706d0 f i physics:dgCollisionScene.obj
 0001:0006f6f0       ?GetFirst@?$dgList@PAVdgNode@dgCollisionScene@@@@QBEPAVdgListNode@1@XZ 100706f0 f i physics:dgCollisionScene.obj
 0001:0006f710       ?Append@?$dgList@PAVdgNode@dgCollisionScene@@@@QAEPAVdgListNode@1@ABQAVdgNode@dgCollisionScene@@@Z 10070710 f i physics:dgCollisionScene.obj
 0001:0006f7d0       ?Remove@?$dgList@PAVdgNode@dgCollisionScene@@@@QAEXQAVdgListNode@1@@Z 100707d0 f i physics:dgCollisionScene.obj
 0001:0006f820       ??0?$dgList@PAVdgProxy@dgCollisionScene@@@@QAE@QAVdgMemoryAllocator@@@Z 10070820 f i physics:dgCollisionScene.obj
 0001:0006f860       ??1?$dgList@PAVdgProxy@dgCollisionScene@@@@UAE@XZ 10070860 f i physics:dgCollisionScene.obj
 0001:0006f880       ?GetCount@?$dgList@PAVdgProxy@dgCollisionScene@@@@QBEHXZ 10070880 f i physics:dgCollisionScene.obj
 0001:0006f8a0       ?GetFirst@?$dgList@PAVdgProxy@dgCollisionScene@@@@QBEPAVdgListNode@1@XZ 100708a0 f i physics:dgCollisionScene.obj
 0001:0006f8c0       ?Append@?$dgList@PAVdgProxy@dgCollisionScene@@@@QAEPAVdgListNode@1@ABQAVdgProxy@dgCollisionScene@@@Z 100708c0 f i physics:dgCollisionScene.obj
 0001:0006f980       ?Remove@?$dgList@PAVdgProxy@dgCollisionScene@@@@QAEXQAVdgListNode@1@@Z 10070980 f i physics:dgCollisionScene.obj
 0001:0006f9d0       ?RotateVectorSimd@dgMatrix@@QBE?AVdgVector@@ABV2@@Z 100709d0 f i physics:dgCollisionScene.obj
 0001:0006fae0       ??0dgVector@@QAE@ABT__m128@@@Z 10070ae0 f i physics:dgCollisionScene.obj
 0001:0006fc70       ??_E?$dgList@PAVdgNode@dgCollisionScene@@@@UAEPAXI@Z 10070c70 f i physics:dgCollisionScene.obj
 0001:0006fc70       ??_G?$dgList@PAVdgNode@dgCollisionScene@@@@UAEPAXI@Z 10070c70 f i physics:dgCollisionScene.obj
 0001:0006fca0       ??_G?$dgList@PAVdgProxy@dgCollisionScene@@@@UAEPAXI@Z 10070ca0 f i physics:dgCollisionScene.obj
 0001:0006fca0       ??_E?$dgList@PAVdgProxy@dgCollisionScene@@@@UAEPAXI@Z 10070ca0 f i physics:dgCollisionScene.obj
 0001:0006fcd0       ??3?$dgList@PAVdgNode@dgCollisionScene@@@@SAXQAX@Z 10070cd0 f i physics:dgCollisionScene.obj
 0001:0006fcf0       ??3?$dgList@PAVdgProxy@dgCollisionScene@@@@SAXQAX@Z 10070cf0 f i physics:dgCollisionScene.obj
 0001:0006fd10       ??2dgListNode@?$dgList@PAVdgProxy@dgCollisionScene@@@@CAPAXIQAVdgMemoryAllocator@@@Z 10070d10 f i physics:dgCollisionScene.obj
 0001:0006fd30       ??0dgListNode@?$dgList@PAVdgProxy@dgCollisionScene@@@@AAE@ABQAVdgProxy@dgCollisionScene@@QAV01@1@Z 10070d30 f i physics:dgCollisionScene.obj
 0001:0006fd90       ??_GdgListNode@?$dgList@PAVdgProxy@dgCollisionScene@@@@EAEPAXI@Z 10070d90 f i physics:dgCollisionScene.obj
 0001:0006fd90       ??_EdgListNode@?$dgList@PAVdgProxy@dgCollisionScene@@@@EAEPAXI@Z 10070d90 f i physics:dgCollisionScene.obj
 0001:0006fdc0       ??1dgListNode@?$dgList@PAVdgProxy@dgCollisionScene@@@@EAE@XZ 10070dc0 f i physics:dgCollisionScene.obj
 0001:0006fde0       ??3dgListNode@?$dgList@PAVdgProxy@dgCollisionScene@@@@CAXQAX@Z 10070de0 f i physics:dgCollisionScene.obj
 0001:0006fe00       ??2dgListNode@?$dgList@PAVdgNode@dgCollisionScene@@@@CAPAXIQAVdgMemoryAllocator@@@Z 10070e00 f i physics:dgCollisionScene.obj
 0001:0006fe20       ??0dgListNode@?$dgList@PAVdgNode@dgCollisionScene@@@@AAE@ABQAVdgNode@dgCollisionScene@@QAV01@1@Z 10070e20 f i physics:dgCollisionScene.obj
 0001:0006fe80       ??_GdgListNode@?$dgList@PAVdgNode@dgCollisionScene@@@@EAEPAXI@Z 10070e80 f i physics:dgCollisionScene.obj
 0001:0006fe80       ??_EdgListNode@?$dgList@PAVdgNode@dgCollisionScene@@@@EAEPAXI@Z 10070e80 f i physics:dgCollisionScene.obj
 0001:0006feb0       ??1dgListNode@?$dgList@PAVdgNode@dgCollisionScene@@@@EAE@XZ 10070eb0 f i physics:dgCollisionScene.obj
 0001:0006fed0       ??3dgListNode@?$dgList@PAVdgNode@dgCollisionScene@@@@CAXQAX@Z 10070ed0 f i physics:dgCollisionScene.obj
 0001:0006fef0       ?RemoveAll@?$dgList@PAVdgNode@dgCollisionScene@@@@QAEXXZ 10070ef0 f i physics:dgCollisionScene.obj
 0001:0006ffb0       ?Unlink@?$dgList@PAVdgNode@dgCollisionScene@@@@QAEXQAVdgListNode@1@@Z 10070fb0 f i physics:dgCollisionScene.obj
 0001:00070060       ?RemoveAll@?$dgList@PAVdgProxy@dgCollisionScene@@@@QAEXXZ 10071060 f i physics:dgCollisionScene.obj
 0001:00070120       ?Unlink@?$dgList@PAVdgProxy@dgCollisionScene@@@@QAEXQAVdgListNode@1@@Z 10071120 f i physics:dgCollisionScene.obj
 0001:000701d0       ?Unlink@dgListNode@?$dgList@PAVdgProxy@dgCollisionScene@@@@AAEXXZ 100711d0 f i physics:dgCollisionScene.obj
 0001:00070220       ?GetPrev@dgListNode@?$dgList@PAVdgProxy@dgCollisionScene@@@@QBEPAV12@XZ 10071220 f i physics:dgCollisionScene.obj
 0001:00070240       ?Unlink@dgListNode@?$dgList@PAVdgNode@dgCollisionScene@@@@AAEXXZ 10071240 f i physics:dgCollisionScene.obj
 0001:00070290       ?GetPrev@dgListNode@?$dgList@PAVdgNode@dgCollisionScene@@@@QBEPAV12@XZ 10071290 f i physics:dgCollisionScene.obj
 0001:000702b0       ?Reset@dgFastRayTest@@QAEXM@Z 100712b0 f i physics:dgCollisionScene.obj
 0001:00070320       ?dgOverlapTestSimd@@YAHABVdgVector@@000@Z 10071320 f i physics:dgCollisionScene.obj
 0001:000703a0       ??0dgCollisionConvexPolygon@dgCollisionMesh@@QAE@QAVdgMemoryAllocator@@@Z 100713a0 f   physics:dgCollisionMesh.obj
 0001:000704e0       ??1dgCollisionConvexPolygon@dgCollisionMesh@@UAE@XZ 100714e0 f   physics:dgCollisionMesh.obj
 0001:00070500       ?CalculateSignature@dgCollisionConvexPolygon@dgCollisionMesh@@UBEHXZ 10071500 f   physics:dgCollisionMesh.obj
 0001:00070510       ?SetCollisionBBox@dgCollisionConvexPolygon@dgCollisionMesh@@UAEXABVdgVector@@0@Z 10071510 f   physics:dgCollisionMesh.obj
 0001:00070540       ?Serialize@dgCollisionConvexPolygon@dgCollisionMesh@@UBEXP6AXQAXQBXI@Z0@Z 10071540 f   physics:dgCollisionMesh.obj
 0001:00070570       ?RayCast@dgCollisionConvexPolygon@dgCollisionMesh@@UBEMABVdgVector@@0AAVdgContactPoint@@P6AIQBVdgBody@@QBVdgCollision@@QAX@Z24@Z 10071570 f   physics:dgCollisionMesh.obj
 0001:000705b0       ?GetVolume@dgCollisionConvexPolygon@dgCollisionMesh@@UBEMXZ 100715b0 f   physics:dgCollisionMesh.obj
 0001:000705e0       ?GetBoxMinRadius@dgCollisionConvexPolygon@dgCollisionMesh@@UBEMXZ 100715e0 f   physics:dgCollisionMesh.obj
 0001:00070610       ?GetBoxMaxRadius@dgCollisionConvexPolygon@dgCollisionMesh@@UBEMXZ 10071610 f   physics:dgCollisionMesh.obj
 0001:00070640       ?OOBBTest@dgCollisionConvexPolygon@dgCollisionMesh@@UBE_NABVdgMatrix@@QBVdgCollisionConvex@@QAX@Z 10071640 f   physics:dgCollisionMesh.obj
 0001:00070680       ?CalculateInertia@dgCollisionConvexPolygon@dgCollisionMesh@@UBEXAAVdgVector@@0@Z 10071680 f   physics:dgCollisionMesh.obj
 0001:000706c0       ?SupportVertex@dgCollisionConvexPolygon@dgCollisionMesh@@UBE?AVdgVector@@ABV3@@Z 100716c0 f   physics:dgCollisionMesh.obj
 0001:000707c0       ?SupportVertexSimd@dgCollisionConvexPolygon@dgCollisionMesh@@UBE?AVdgVector@@ABV3@@Z 100717c0 f   physics:dgCollisionMesh.obj
 0001:00070cb0       ?CalculateNormalSimd@dgCollisionConvexPolygon@dgCollisionMesh@@QAEXXZ 10071cb0 f   physics:dgCollisionMesh.obj
 0001:00070ff0       ?CalculateNormal@dgCollisionConvexPolygon@dgCollisionMesh@@QAEXXZ 10071ff0 f   physics:dgCollisionMesh.obj
 0001:00071190       ?QuickTestContinueSimd@dgCollisionConvexPolygon@dgCollisionMesh@@QAEHQBVdgCollisionConvex@@ABVdgMatrix@@@Z 10072190 f   physics:dgCollisionMesh.obj
 0001:00071670       ?QuickTestContinue@dgCollisionConvexPolygon@dgCollisionMesh@@QAEHQBVdgCollisionConvex@@ABVdgMatrix@@@Z 10072670 f   physics:dgCollisionMesh.obj
 0001:000718e0       ?QuickTestSimd@dgCollisionConvexPolygon@dgCollisionMesh@@QAEHQBVdgCollisionConvex@@ABVdgMatrix@@@Z 100728e0 f   physics:dgCollisionMesh.obj
 0001:00071f70       ?QuickTest@dgCollisionConvexPolygon@dgCollisionMesh@@QAEHQBVdgCollisionConvex@@ABVdgMatrix@@@Z 10072f70 f   physics:dgCollisionMesh.obj
 0001:00072250       ?ClipContacts@dgCollisionConvexPolygon@dgCollisionMesh@@QBEHHQAVdgContactPoint@@ABVdgMatrix@@@Z 10073250 f   physics:dgCollisionMesh.obj
 0001:00072950       ?BeamClippingSimd@dgCollisionConvexPolygon@dgCollisionMesh@@QAEXQBVdgCollisionConvex@@ABVdgMatrix@@M@Z 10073950 f   physics:dgCollisionMesh.obj
 0001:00072bd0       ?BeamClipping@dgCollisionConvexPolygon@dgCollisionMesh@@QAEXQBVdgCollisionConvex@@ABVdgMatrix@@M@Z 10073bd0 f   physics:dgCollisionMesh.obj
 0001:00073950       ?ClosestDistanceToTriangle@dgCollisionConvexPolygon@dgCollisionMesh@@QBE?AVdgVector@@ABV3@000AA_N@Z 10074950 f   physics:dgCollisionMesh.obj
 0001:00074050       ?PointToPolygonDistance@dgCollisionConvexPolygon@dgCollisionMesh@@QAE_NABVdgVector@@MAAV3@AA_N@Z 10075050 f   physics:dgCollisionMesh.obj
 0001:000742b0       ?DistanceToOrigen@dgCollisionConvexPolygon@dgCollisionMesh@@QAE_NABVdgMatrix@@ABVdgVector@@MAAV4@AA_N@Z 100752b0 f   physics:dgCollisionMesh.obj
 0001:00074840       ?MovingSphereToEdgeContact@dgCollisionConvexPolygon@dgCollisionMesh@@QBEMABVdgVector@@0M00AAV3@@Z 10075840 f   physics:dgCollisionMesh.obj
 0001:00074ae0       ?MovingPointToPolygonContact@dgCollisionConvexPolygon@dgCollisionMesh@@QAEMABVdgVector@@0MAAVdgContactPoint@@@Z 10075ae0 f   physics:dgCollisionMesh.obj
 0001:00075590       ?IsEdgeIntersection@dgCollisionConvexPolygon@dgCollisionMesh@@UBE_NXZ 10076590 f   physics:dgCollisionMesh.obj
 0001:000755b0       ?CalculatePlaneIntersectionSimd@dgCollisionConvexPolygon@dgCollisionMesh@@UBEHABVdgVector@@0QAV3@@Z 100765b0 f   physics:dgCollisionMesh.obj
 0001:00076170       ?CalculatePlaneIntersection@dgCollisionConvexPolygon@dgCollisionMesh@@UBEHABVdgVector@@0QAV3@@Z 10077170 f   physics:dgCollisionMesh.obj
 0001:00076e00       ??0dgCollisionMesh@@QAE@QAVdgMemoryAllocator@@W4dgCollisionID@@@Z 10077e00 f   physics:dgCollisionMesh.obj
 0001:00076f40       ??0dgCollisionMesh@@QAE@QAVdgWorld@@P6AXQAXPAXI@Z1@Z 10077f40 f   physics:dgCollisionMesh.obj
 0001:00077070       ??1dgCollisionMesh@@UAE@XZ 10078070 f   physics:dgCollisionMesh.obj
 0001:000770d0       ?SetCollisionBBox@dgCollisionMesh@@MAEXABVdgVector@@0@Z 100780d0 f   physics:dgCollisionMesh.obj
 0001:00077230       ?CalculateSignature@dgCollisionMesh@@EBEHXZ 10078230 f   physics:dgCollisionMesh.obj
 0001:00077270       ?GetUserData@dgCollisionMesh@@UBEPAXXZ 10078270 f   physics:dgCollisionMesh.obj
 0001:00077280       ?SetCollisionCallback@dgCollisionMesh@@QAEXP6AXPBVdgBody@@QBV2@HHPBMH@Z@Z 10078280 f   physics:dgCollisionMesh.obj
 0001:000772a0       ?CalcAABB@dgCollisionMesh@@EBEXABVdgMatrix@@AAVdgVector@@1@Z 100782a0 f   physics:dgCollisionMesh.obj
 0001:00077530       ?CalcAABBSimd@dgCollisionMesh@@EBEXABVdgMatrix@@AAVdgVector@@1@Z 10078530 f   physics:dgCollisionMesh.obj
 0001:00077560       ?CalculatePlaneIntersection@dgCollisionMesh@@ABEHPBMPBHHHABVdgPlane@@QAVdgVector@@@Z 10078560 f   physics:dgCollisionMesh.obj
 0001:000778f0       ?CalculateVolumeIntegral@dgCollisionMesh@@EBE?AVdgVector@@ABVdgMatrix@@P6AIPAX10AAVdgPlane@@@ZQAX@Z 100788f0 f   physics:dgCollisionMesh.obj
 0001:00077920       ?DebugCollision@dgCollisionMesh@@EBEXABVdgMatrix@@P6AXPAXHPBMH@ZQAX@Z 10078920 f   physics:dgCollisionMesh.obj
 0001:00077960       ?GetVolume@dgCollisionMesh@@UBEMXZ 10078960 f   physics:dgCollisionMesh.obj
 0001:00077970       ?GetBoxMinRadius@dgCollisionMesh@@UBEMXZ 10078970 f   physics:dgCollisionMesh.obj
 0001:00077980       ?GetBoxMaxRadius@dgCollisionMesh@@UBEMXZ 10078980 f   physics:dgCollisionMesh.obj
 0001:00077990       ?CalculateInertia@dgCollisionMesh@@UBEXAAVdgVector@@0@Z 10078990 f   physics:dgCollisionMesh.obj
 0001:000779d0       ?GetCollisionInfo@dgCollisionMesh@@EBEXPAVdgCollisionInfo@@@Z 100789d0 f   physics:dgCollisionMesh.obj
 0001:00077a10       ?Serialize@dgCollisionMesh@@EBEXP6AXQAXQBXI@Z0@Z 10078a10 f   physics:dgCollisionMesh.obj
 0001:00077a50       ?SupportVertex@dgCollisionMesh@@EBE?AVdgVector@@ABV2@@Z 10078a50 f   physics:dgCollisionMesh.obj
 0001:00077ab0       ?OOBBTest@dgCollisionMesh@@EBE_NABVdgMatrix@@QBVdgCollisionConvex@@QAX@Z 10078ab0 f   physics:dgCollisionMesh.obj
 0001:00077af0       ??_EdgCollisionConvexPolygon@dgCollisionMesh@@UAEPAXI@Z 10078af0 f i physics:dgCollisionMesh.obj
 0001:00077af0       ??_GdgCollisionConvexPolygon@dgCollisionMesh@@UAEPAXI@Z 10078af0 f i physics:dgCollisionMesh.obj
 0001:00077b20       ??_EdgCollisionMesh@@UAEPAXI@Z 10078b20 f i physics:dgCollisionMesh.obj
 0001:00077b20       ??_GdgCollisionMesh@@UAEPAXI@Z 10078b20 f i physics:dgCollisionMesh.obj
 0001:00077b50       ??$GetSign@M@@YAMM@Z       10078b50 f i physics:dgCollisionMesh.obj
 0001:00077b80       ??0dgCollisionBVH@@QAE@QAVdgMemoryAllocator@@@Z 10078b80 f   physics:dgCollisionBVH.obj
 0001:00077bf0       ??0dgCollisionBVH@@QAE@QAVdgWorld@@P6AXQAXPAXI@Z1@Z 10078bf0 f   physics:dgCollisionBVH.obj
 0001:00077cd0       ??1dgCollisionBVH@@UAE@XZ  10078cd0 f   physics:dgCollisionBVH.obj
 0001:00077d10       ?Serialize@dgCollisionBVH@@EBEXP6AXQAXQBXI@Z0@Z 10078d10 f   physics:dgCollisionBVH.obj
 0001:00077d50       ?BeginBuild@dgCollisionBVH@@QAEXXZ 10078d50 f   physics:dgCollisionBVH.obj
 0001:00077dc0       ?AddFace@dgCollisionBVH@@QAEXHQBMHH@Z 10078dc0 f   physics:dgCollisionBVH.obj
 0001:00077e80       ?SetCollisionRayCastCallback@dgCollisionBVH@@QAEXP6AMQBVdgBody@@QBV1@MPAMHPAX@Z@Z 10078e80 f   physics:dgCollisionBVH.obj
 0001:00077ea0       ?EndBuild@dgCollisionBVH@@QAEXH@Z 10078ea0 f   physics:dgCollisionBVH.obj
 0001:00077f80       ?GetCollisionInfo@dgCollisionBVH@@EBEXPAVdgCollisionInfo@@@Z 10078f80 f   physics:dgCollisionBVH.obj
 0001:000780a0       ?CollectVertexListIndexList@dgCollisionBVH@@CA?AW4dgIntersectStatus@@PAXQBMHQBHH@Z 100790a0 f   physics:dgCollisionBVH.obj
 0001:000781f0       ?GetTriangleCount@dgCollisionBVH@@CA?AW4dgIntersectStatus@@PAXQBMHQBHH@Z 100791f0 f   physics:dgCollisionBVH.obj
 0001:00078270       ?GetVertexListIndexList@dgCollisionBVH@@UBEXABVdgVector@@0AAVdgGetVertexListIndexList@dgCollisionMesh@@@Z 10079270 f   physics:dgCollisionBVH.obj
 0001:000782f0       ?RayHitSimd@dgCollisionBVH@@CAMPAXQBMHQBHH@Z 100792f0 f   physics:dgCollisionBVH.obj
 0001:00078490       ?RayHit@dgCollisionBVH@@CAMPAXQBMHQBHH@Z 10079490 f   physics:dgCollisionBVH.obj
 0001:00078630       ?RayHitUserSimd@dgCollisionBVH@@CAMPAXQBMHQBHH@Z 10079630 f   physics:dgCollisionBVH.obj
 0001:000787b0       ?RayHitUser@dgCollisionBVH@@CAMPAXQBMHQBHH@Z 100797b0 f   physics:dgCollisionBVH.obj
 0001:00078930       ?RayCastSimd@dgCollisionBVH@@EBEMABVdgVector@@0AAVdgContactPoint@@P6AIQBVdgBody@@QBVdgCollision@@QAX@Z24@Z 10079930 f   physics:dgCollisionBVH.obj
 0001:00078b90       ?RayCast@dgCollisionBVH@@EBEMABVdgVector@@0AAVdgContactPoint@@P6AIQBVdgBody@@QBVdgCollision@@QAX@Z24@Z 10079b90 f   physics:dgCollisionBVH.obj
 0001:00078df0       ?GetPolygon@dgCollisionBVH@@CA?AW4dgIntersectStatus@@PAXQBMHQBHH@Z 10079df0 f   physics:dgCollisionBVH.obj
 0001:000790b0       ?GetCollidingFacesSimd@dgCollisionBVH@@EBEXQAVdgPolygonMeshDesc@@@Z 1007a0b0 f   physics:dgCollisionBVH.obj
 0001:00079190       ?GetCollidingFaces@dgCollisionBVH@@EBEXQAVdgPolygonMeshDesc@@@Z 1007a190 f   physics:dgCollisionBVH.obj
 0001:00079270       ?SupportVertex@dgCollisionBVH@@EBE?AVdgVector@@ABV2@@Z 1007a270 f   physics:dgCollisionBVH.obj
 0001:000792a0       ?ShowDebugPolygon@dgCollisionBVH@@CA?AW4dgIntersectStatus@@PAXQBMHQBHH@Z 1007a2a0 f   physics:dgCollisionBVH.obj
 0001:00079390       ?DebugCollision@dgCollisionBVH@@EBEXABVdgMatrix@@P6AXPAXHPBMH@ZQAX@Z 1007a390 f   physics:dgCollisionBVH.obj
 0001:00079460       ??_EdgCollisionBVH@@UAEPAXI@Z 1007a460 f i physics:dgCollisionBVH.obj
 0001:00079460       ??_GdgCollisionBVH@@UAEPAXI@Z 1007a460 f i physics:dgCollisionBVH.obj
 0001:00079490       ??_GdgPolygonSoupDatabaseBuilder@@QAEPAXI@Z 1007a490 f i physics:dgCollisionBVH.obj
 0001:000794c0       ?GetDebugRayCastCallback@dgCollisionBVH@@QBEP6AMQBVdgBody@@QBV1@MPAMHPAX@ZXZ 1007a4c0 f i physics:dgCollisionBVH.obj
 0001:000794e0       ??0dgBVHRay@dgCollisionBVH@@QAE@ABVdgVector@@0@Z 1007a4e0 f i physics:dgCollisionBVH.obj
 0001:00079520       ?GetCollisionMatrix@dgBody@@QBEABVdgMatrix@@XZ 1007a520 f i physics:dgCollisionBVH.obj
 0001:00079540       ?GetDebugCollisionCallback@dgCollisionMesh@@QBEP6AXPBVdgBody@@QBV2@HHPBMH@ZXZ 1007a540 f i physics:dgCollisionBVH.obj
 0001:00079560       ??0dgCollisionBVHShowPolyContext@@QAE@XZ 1007a560 f i physics:dgCollisionBVH.obj
 0001:00079580       ??_EdgCollisionBVH@@WMA@AEPAXI@Z 1007a580 f i physics:dgCollisionBVH.obj
 0001:00079590       ?Serialize@dgCollisionBVH@@GMA@BEXP6AXQAXQBXI@Z0@Z 1007a590 f i physics:dgCollisionBVH.obj
 0001:000795a0       ?GetVertexCount@dgPolygonSoupDatabase@@QBEHXZ 1007a5a0 f i physics:dgCollisionBVH.obj
 0001:000795c0       ?GetLocalVertexPool@dgPolygonSoupDatabase@@QBEPAMXZ 1007a5c0 f i physics:dgCollisionBVH.obj
 0001:000795e0       ?GetStrideInBytes@dgPolygonSoupDatabase@@QBEHXZ 1007a5e0 f i physics:dgCollisionBVH.obj
 0001:00079600       ??2dgPolygonSoupDatabaseBuilder@@SAPAXIQAVdgMemoryAllocator@@@Z 1007a600 f i physics:dgCollisionBVH.obj
 0001:00079620       ??3dgPolygonSoupDatabaseBuilder@@SAXQAX@Z 1007a620 f i physics:dgCollisionBVH.obj
 0001:00079640       ??0dgCollisionHeightField@@QAE@QAVdgWorld@@HHHQBGQBDMM@Z 1007a640 f   physics:dgCollisionHeightField.obj
 0001:00079a10       ??0dgCollisionHeightField@@QAE@QAVdgWorld@@P6AXQAXPAXI@Z1@Z 1007aa10 f   physics:dgCollisionHeightField.obj
 0001:00079ce0       ??1dgCollisionHeightField@@UAE@XZ 1007ace0 f   physics:dgCollisionHeightField.obj
 0001:00079dc0       ?Serialize@dgCollisionHeightField@@EBEXP6AXQAXQBXI@Z0@Z 1007adc0 f   physics:dgCollisionHeightField.obj
 0001:00079ed0       ?SetCollisionRayCastCallback@dgCollisionHeightField@@QAEXP6AMQBVdgBody@@QBV1@MHHQAVdgVector@@HQAX@Z@Z 1007aed0 f   physics:dgCollisionHeightField.obj
 0001:00079ef0       ?AllocateVertex@dgCollisionHeightField@@ABEXQAVdgWorld@@H@Z 1007aef0 f   physics:dgCollisionHeightField.obj
 0001:00079fc0       ?GetCollisionInfo@dgCollisionHeightField@@EBEXPAVdgCollisionInfo@@@Z 1007afc0 f   physics:dgCollisionHeightField.obj
 0001:0007a070       ?CalculateMinExtend2d@dgCollisionHeightField@@ABEXABVdgVector@@0AAV2@1@Z 1007b070 f   physics:dgCollisionHeightField.obj
 0001:0007a280       ?CalculateMinExtend3d@dgCollisionHeightField@@ABEXABVdgVector@@0AAV2@1@Z 1007b280 f   physics:dgCollisionHeightField.obj
 0001:0007a4d0       ?RayCastCellSimd@dgCollisionHeightField@@ABEMABVdgFastRayTest@@HHAAVdgVector@@@Z 1007b4d0 f   physics:dgCollisionHeightField.obj
 0001:0007abd0       ?RayCastCell@dgCollisionHeightField@@ABEMABVdgFastRayTest@@HHAAVdgVector@@@Z 1007bbd0 f   physics:dgCollisionHeightField.obj
 0001:0007b2d0       ?RayCastSimd@dgCollisionHeightField@@EBEMABVdgVector@@0AAVdgContactPoint@@P6AIQBVdgBody@@QBVdgCollision@@QAX@Z24@Z 1007c2d0 f   physics:dgCollisionHeightField.obj
 0001:0007b8d0       ?RayCast@dgCollisionHeightField@@EBEMABVdgVector@@0AAVdgContactPoint@@P6AIQBVdgBody@@QBVdgCollision@@QAX@Z24@Z 1007c8d0 f   physics:dgCollisionHeightField.obj
 0001:0007be10       ?GetVertexListIndexList@dgCollisionHeightField@@EBEXABVdgVector@@0AAVdgGetVertexListIndexList@dgCollisionMesh@@@Z 1007ce10 f   physics:dgCollisionHeightField.obj
 0001:0007be50       ?DebugCollision@dgCollisionHeightField@@EBEXABVdgMatrix@@P6AXPAXHPBMH@ZQAX@Z 1007ce50 f   physics:dgCollisionHeightField.obj
 0001:0007c400       ?GetLocalAABB@dgCollisionHeightField@@ABEXABVdgVector@@0AAV2@1@Z 1007d400 f   physics:dgCollisionHeightField.obj
 0001:0007c570       ?GetCollidingFacesSimd@dgCollisionHeightField@@EBEXQAVdgPolygonMeshDesc@@@Z 1007d570 f   physics:dgCollisionHeightField.obj
 0001:0007c590       ?GetCollidingFaces@dgCollisionHeightField@@EBEXQAVdgPolygonMeshDesc@@@Z 1007d590 f   physics:dgCollisionHeightField.obj
 0001:0007de00       ??_EdgCollisionHeightField@@UAEPAXI@Z 1007ee00 f i physics:dgCollisionHeightField.obj
 0001:0007de00       ??_GdgCollisionHeightField@@UAEPAXI@Z 1007ee00 f i physics:dgCollisionHeightField.obj
 0001:0007de30       ?GetInfo@dgTreeNode@?$dgTree@PAXI@@QAEAAPAXXZ 1007ee30 f i physics:dgCollisionHeightField.obj
 0001:0007de50       ?Find@?$dgTree@PAXI@@QBEPAVdgTreeNode@1@I@Z 1007ee50 f i physics:dgCollisionHeightField.obj
 0001:0007df70       ?Insert@?$dgTree@PAXI@@QAEPAVdgTreeNode@1@ABQAXI@Z 1007ef70 f i physics:dgCollisionHeightField.obj
 0001:0007dfb0       ?Remove@?$dgTree@PAXI@@QAEXI@Z 1007efb0 f i physics:dgCollisionHeightField.obj
 0001:0007dff0       ?GetLeft@dgTreeNode@?$dgTree@PAXI@@ABEPAV12@XZ 1007eff0 f i physics:dgCollisionHeightField.obj
 0001:0007e010       ?GetRight@dgTreeNode@?$dgTree@PAXI@@ABEPAV12@XZ 1007f010 f i physics:dgCollisionHeightField.obj
 0001:0007e030       ?Insert@?$dgTree@PAXI@@QAEPAVdgTreeNode@1@ABQAXIAA_N@Z 1007f030 f i physics:dgCollisionHeightField.obj
 0001:0007e230       ?Remove@?$dgTree@PAXI@@QAEXQAVdgTreeNode@1@@Z 1007f230 f i physics:dgCollisionHeightField.obj
 0001:0007e270       ?CompareKeys@?$dgTree@PAXI@@ABEHABI0@Z 1007f270 f i physics:dgCollisionHeightField.obj
 0001:0007e2b0       ??0dgTreeNode@?$dgTree@PAXI@@AAE@ABQAXABIPAV01@@Z 1007f2b0 f i physics:dgCollisionHeightField.obj
 0001:0007e2f0       ??_EdgTreeNode@?$dgTree@PAXI@@EAEPAXI@Z 1007f2f0 f i physics:dgCollisionHeightField.obj
 0001:0007e2f0       ??_GdgTreeNode@?$dgTree@PAXI@@EAEPAXI@Z 1007f2f0 f i physics:dgCollisionHeightField.obj
 0001:0007e320       ??1dgTreeNode@?$dgTree@PAXI@@EAE@XZ 1007f320 f i physics:dgCollisionHeightField.obj
 0001:0007e340       ??0dgBody@@QAE@XZ          1007f340 f   physics:dgBody.obj
 0001:0007e460       ??1dgBody@@QAE@XZ          1007f460 f   physics:dgBody.obj
 0001:0007e470       ?SetAparentMassMatrix@dgBody@@QAEXABVdgVector@@@Z 1007f470 f   physics:dgBody.obj
 0001:0007e520       ?SetMassMatrix@dgBody@@QAEXMMMM@Z 1007f520 f   physics:dgBody.obj
 0001:0007e7f0       ?AttachCollision@dgBody@@QAEXPAVdgCollision@@@Z 1007f7f0 f   physics:dgBody.obj
 0001:0007e9e0       ?SetMatrix@dgBody@@QAEXABVdgMatrix@@@Z 1007f9e0 f   physics:dgBody.obj
 0001:0007ea40       ?SetMatrixIgnoreSleep@dgBody@@QAEXABVdgMatrix@@@Z 1007fa40 f   physics:dgBody.obj
 0001:0007eba0       ?UpdateCollisionMatrixSimd@dgBody@@AAEXMH@Z 1007fba0 f   physics:dgBody.obj
 0001:0007f2e0       ?UpdateCollisionMatrix@dgBody@@AAEXMH@Z 100802e0 f   physics:dgBody.obj
 0001:0007fa20       ?RayCast@dgBody@@QBEMABUdgLineBox@@P6AMQBV1@ABVdgVector@@HQAXM@ZP6AI1QBVdgCollision@@3@Z3M@Z 10080a20 f   physics:dgBody.obj
 0001:0007fd60       ?AddBuoyancyForce@dgBody@@QAEXMMMABVdgVector@@P6AIPAX1ABVdgMatrix@@AAVdgPlane@@@ZQAX@Z 10080d60 f   physics:dgBody.obj
 0001:0007ffa0       ?CalcInvInertiaMatrix@dgBody@@QAEXXZ 10080fa0 f   physics:dgBody.obj
 0001:00080530       ?CalcInvInertiaMatrixSimd@dgBody@@QAEXXZ 10081530 f   physics:dgBody.obj
 0001:00080b40       ?UpdateMatrix@dgBody@@AAEXMH@Z 10081b40 f   physics:dgBody.obj
 0001:00080bb0       ?IntegrateVelocity@dgBody@@AAEXM@Z 10081bb0 f   physics:dgBody.obj
 0001:000810c0       ?CalculateContinueVelocity@dgBody@@ABEXMAAVdgVector@@0@Z 100820c0 f   physics:dgBody.obj
 0001:000811f0       ?CalculateContinueVelocitySimd@dgBody@@ABEXMAAVdgVector@@0@Z 100821f0 f   physics:dgBody.obj
 0001:00081310       ?GetTrajectory@dgBody@@ABE?AVdgVector@@ABV2@0@Z 10082310 f   physics:dgBody.obj
 0001:00081370       ?CalculateInverseDynamicForce@dgBody@@QBE?AVdgVector@@ABV2@M@Z 10082370 f   physics:dgBody.obj
 0001:00081400       ?GetFirstJoint@dgBody@@QBEPAVdgConstraint@@XZ 10082400 f   physics:dgBody.obj
 0001:00081460       ?GetNextJoint@dgBody@@QBEPAVdgConstraint@@PAV2@@Z 10082460 f   physics:dgBody.obj
 0001:000814f0       ?GetFirstContact@dgBody@@QBEPAVdgConstraint@@XZ 100824f0 f   physics:dgBody.obj
 0001:00081550       ?GetNextContact@dgBody@@QBEPAVdgConstraint@@PAV2@@Z 10082550 f   physics:dgBody.obj
 0001:000815e0       ?SetFreeze@dgBody@@QAEX_N@Z 100825e0 f   physics:dgBody.obj
 0001:00081610       ?Freeze@dgBody@@QAEXXZ     10082610 f   physics:dgBody.obj
 0001:000816a0       ?Unfreeze@dgBody@@QAEXXZ   100826a0 f   physics:dgBody.obj
 0001:00081730       ?CalculateInertiaMatrix@dgBody@@ABE?AVdgMatrix@@XZ 10082730 f   physics:dgBody.obj
 0001:00081ae0       ?CalculateInvInertiaMatrix@dgBody@@ABE?AVdgMatrix@@XZ 10082ae0 f   physics:dgBody.obj
 0001:00081e90       ?AddImpulse@dgBody@@AAEXABVdgVector@@0@Z 10082e90 f   physics:dgBody.obj
 0001:00082370       ?ApplyImpulseArray@dgBody@@AAEXHHQBM0@Z 10083370 f   physics:dgBody.obj
 0001:00082600       ?InvalidateCache@dgBody@@QAEXXZ 10083600 f   physics:dgBody.obj
 0001:00082710       ?SetMatrixOriginAndRotation@dgBody@@AAEXABVdgMatrix@@@Z 10083710 f i physics:dgBody.obj
 0001:000829e0       ?CompProductSimd@dgVector@@QBE?AV1@ABV1@@Z 100839e0 f i physics:dgBody.obj
 0001:00082a30       ?GetLink0@dgConstraint@@QBEPAVdgListNode@?$dgList@VdgBodyMasterListCell@@@@XZ 10083a30 f i physics:dgBody.obj
 0001:00082a50       ?GetLink1@dgConstraint@@QBEPAVdgListNode@?$dgList@VdgBodyMasterListCell@@@@XZ 10083a50 f i physics:dgBody.obj
 0001:00082a70       ?UnrotateVectorSimd@dgMatrix@@QBE?AVdgVector@@ABV2@@Z 10083a70 f i physics:dgBody.obj
 0001:00082ad0       ?DotProductSimd@dgVector@@QBEMABV1@@Z 10083ad0 f i physics:dgBody.obj
 0001:00082b30       ?MultiplySimd@dgMatrix@@QBE?AV1@ABV1@@Z 10083b30 f i physics:dgBody.obj
 0001:000832a0       ??0dgQuaternion@@QAE@XZ    100842a0 f i physics:dgBody.obj
 0001:000832d0       ?Scale@dgQuaternion@@QAEXM@Z 100842d0 f i physics:dgBody.obj
 0001:00083320       ?RotateToEnd@?$dgList@VdgBodyMasterListRow@@@@QAEXQAVdgListNode@1@@Z 10084320 f i physics:dgBody.obj
 0001:00083390       ?InsertAfter@?$dgList@VdgBodyMasterListRow@@@@QAEXQAVdgListNode@1@0@Z 10084390 f i physics:dgBody.obj
 0001:00083560       ??DdgQuaternion@@QBE?AV0@ABV0@@Z 10084560 f i physics:dgBody.obj
 0001:00083680       ?Unlink@dgListNode@?$dgList@VdgBodyMasterListRow@@@@AAEXXZ 10084680 f i physics:dgBody.obj
 0001:000836d0       ?AddLast@dgListNode@?$dgList@VdgBodyMasterListRow@@@@AAEXQAV12@@Z 100846d0 f i physics:dgBody.obj
 0001:000836f0       ?SanityCheck@?$dgList@VdgBodyMasterListRow@@@@QBE_NXZ 100846f0 f i physics:dgBody.obj
 0001:00083880       ??0dgBallConstraint@@AAE@XZ 10084880 f   physics:dgBallConstraint.obj
 0001:00083990       ??1dgBallConstraint@@EAE@XZ 10084990 f   physics:dgBallConstraint.obj
 0001:000839b0       ?SetJointParameterCallBack@dgBallConstraint@@QAEXP6AIABV1@M@Z@Z 100849b0 f   physics:dgBallConstraint.obj
 0001:000839d0       ?GetJointAngle@dgBallConstraint@@QBE?AVdgVector@@XZ 100849d0 f   physics:dgBallConstraint.obj
 0001:00083a10       ?GetJointOmega@dgBallConstraint@@QBE?AVdgVector@@XZ 10084a10 f   physics:dgBallConstraint.obj
 0001:00083b60       ?GetJointForce@dgBallConstraint@@QBE?AVdgVector@@XZ 10084b60 f   physics:dgBallConstraint.obj
 0001:00083c40       ?GetTwistLimitState@dgBallConstraint@@QBE_NXZ 10084c40 f   physics:dgBallConstraint.obj
 0001:00083c60       ?GetConeLimitState@dgBallConstraint@@QBE_NXZ 10084c60 f   physics:dgBallConstraint.obj
 0001:00083c80       ?GetLatealLimitState@dgBallConstraint@@QBE_NXZ 10084c80 f   physics:dgBallConstraint.obj
 0001:00083ca0       ?SetTwistLimitState@dgBallConstraint@@QAEX_N@Z 10084ca0 f   physics:dgBallConstraint.obj
 0001:00083cd0       ?SetConeLimitState@dgBallConstraint@@QAEX_N@Z 10084cd0 f   physics:dgBallConstraint.obj
 0001:00083d00       ?SetLatealLimitState@dgBallConstraint@@QAEX_N@Z 10084d00 f   physics:dgBallConstraint.obj
 0001:00083d30       ?SetPivotPoint@dgBallConstraint@@AAEXABVdgVector@@@Z 10084d30 f   physics:dgBallConstraint.obj
 0001:00083e90       ?SetLimits@dgBallConstraint@@QAEXABVdgVector@@MMM0MM@Z 10084e90 f   physics:dgBallConstraint.obj
 0001:00084300       ?JacobianDerivative@dgBallConstraint@@EAEIAAVdgContraintDescritor@@@Z 10085300 f   physics:dgBallConstraint.obj
 0001:00084c40       ??_EdgBallConstraint@@EAEPAXI@Z 10085c40 f i physics:dgBallConstraint.obj
 0001:00084c40       ??_GdgBallConstraint@@EAEPAXI@Z 10085c40 f i physics:dgBallConstraint.obj
 0001:00084c70       ?acos@@YAMM@Z              10085c70 f i physics:dgBallConstraint.obj
 0001:00084c90       _acosf                     10085c90 f i physics:dgBallConstraint.obj
 0001:00084cb0       ??0dgHingeConstraint@@AAE@XZ 10085cb0 f   physics:dgHingeConstraint.obj
 0001:00084d60       ??1dgHingeConstraint@@EAE@XZ 10085d60 f   physics:dgHingeConstraint.obj
 0001:00084d80       ?SetJointParameterCallBack@dgHingeConstraint@@QAEXP6AIABV1@PAVdgJointCallBackParam@@@Z@Z 10085d80 f   physics:dgHingeConstraint.obj
 0001:00084da0       ?GetJointAngle@dgHingeConstraint@@QBEMXZ 10085da0 f   physics:dgHingeConstraint.obj
 0001:00084dc0       ?GetJointOmega@dgHingeConstraint@@QBEMXZ 10085dc0 f   physics:dgHingeConstraint.obj
 0001:00084e90       ?CalculateStopAlpha@dgHingeConstraint@@QBEMMPBVdgJointCallBackParam@@@Z 10085e90 f   physics:dgHingeConstraint.obj
 0001:00084f80       ?GetJointForce@dgHingeConstraint@@QBE?AVdgVector@@XZ 10085f80 f   physics:dgHingeConstraint.obj
 0001:000850b0       ?JacobianDerivative@dgHingeConstraint@@EAEIAAVdgContraintDescritor@@@Z 100860b0 f   physics:dgHingeConstraint.obj
 0001:00085500       ??_GdgHingeConstraint@@EAEPAXI@Z 10086500 f i physics:dgHingeConstraint.obj
 0001:00085500       ??_EdgHingeConstraint@@EAEPAXI@Z 10086500 f i physics:dgHingeConstraint.obj
 0001:00085530       ??0dgSlidingConstraint@@AAE@XZ 10086530 f   physics:dgSlidingConstraint.obj
 0001:000855e0       ??1dgSlidingConstraint@@EAE@XZ 100865e0 f   physics:dgSlidingConstraint.obj
 0001:00085600       ?SetJointParameterCallBack@dgSlidingConstraint@@QAEXP6AIABV1@PAVdgJointCallBackParam@@@Z@Z 10086600 f   physics:dgSlidingConstraint.obj
 0001:00085620       ?GetJointPosit@dgSlidingConstraint@@QBEMXZ 10086620 f   physics:dgSlidingConstraint.obj
 0001:00085640       ?GetJointVeloc@dgSlidingConstraint@@QBEMXZ 10086640 f   physics:dgSlidingConstraint.obj
 0001:00085710       ?CalculateStopAccel@dgSlidingConstraint@@QBEMMPBVdgJointCallBackParam@@@Z 10086710 f   physics:dgSlidingConstraint.obj
 0001:00085820       ?GetJointForce@dgSlidingConstraint@@QBE?AVdgVector@@XZ 10086820 f   physics:dgSlidingConstraint.obj
 0001:00085950       ?JacobianDerivative@dgSlidingConstraint@@EAEIAAVdgContraintDescritor@@@Z 10086950 f   physics:dgSlidingConstraint.obj
 0001:00085ed0       ??_EdgSlidingConstraint@@EAEPAXI@Z 10086ed0 f i physics:dgSlidingConstraint.obj
 0001:00085ed0       ??_GdgSlidingConstraint@@EAEPAXI@Z 10086ed0 f i physics:dgSlidingConstraint.obj
 0001:00085f00       ??0dgCorkscrewConstraint@@AAE@XZ 10086f00 f   physics:dgCorkscrewConstraint.obj
 0001:00085fb0       ??1dgCorkscrewConstraint@@EAE@XZ 10086fb0 f   physics:dgCorkscrewConstraint.obj
 0001:00085fd0       ?SetJointParameterCallBack@dgCorkscrewConstraint@@QAEXP6AIABV1@PAVdgJointCallBackParam@@@Z@Z 10086fd0 f   physics:dgCorkscrewConstraint.obj
 0001:00085ff0       ?GetJointAngle@dgCorkscrewConstraint@@QBEMXZ 10086ff0 f   physics:dgCorkscrewConstraint.obj
 0001:00086010       ?GetJointPosit@dgCorkscrewConstraint@@QBEMXZ 10087010 f   physics:dgCorkscrewConstraint.obj
 0001:00086030       ?GetJointOmega@dgCorkscrewConstraint@@QBEMXZ 10087030 f   physics:dgCorkscrewConstraint.obj
 0001:00086100       ?GetJointVeloc@dgCorkscrewConstraint@@QBEMXZ 10087100 f   physics:dgCorkscrewConstraint.obj
 0001:000861d0       ?CalculateStopAlpha@dgCorkscrewConstraint@@QBEMMPBVdgJointCallBackParam@@@Z 100871d0 f   physics:dgCorkscrewConstraint.obj
 0001:000862b0       ?CalculateStopAccel@dgCorkscrewConstraint@@QBEMMPBVdgJointCallBackParam@@@Z 100872b0 f   physics:dgCorkscrewConstraint.obj
 0001:000863c0       ?GetJointForce@dgCorkscrewConstraint@@QBE?AVdgVector@@XZ 100873c0 f   physics:dgCorkscrewConstraint.obj
 0001:000864c0       ?JacobianDerivative@dgCorkscrewConstraint@@EAEIAAVdgContraintDescritor@@@Z 100874c0 f   physics:dgCorkscrewConstraint.obj
 0001:00086ae0       ??_GdgCorkscrewConstraint@@EAEPAXI@Z 10087ae0 f i physics:dgCorkscrewConstraint.obj
 0001:00086ae0       ??_EdgCorkscrewConstraint@@EAEPAXI@Z 10087ae0 f i physics:dgCorkscrewConstraint.obj
 0001:00086b10       ??0dgUniversalConstraint@@AAE@XZ 10087b10 f   physics:dgUniversalConstraint.obj
 0001:00086bc0       ??1dgUniversalConstraint@@EAE@XZ 10087bc0 f   physics:dgUniversalConstraint.obj
 0001:00086be0       ?SetJointParameterCallBack@dgUniversalConstraint@@QAEXP6AIABV1@PAVdgJointCallBackParam@@@Z@Z 10087be0 f   physics:dgUniversalConstraint.obj
 0001:00086c00       ?GetJointAngle0@dgUniversalConstraint@@QBEMXZ 10087c00 f   physics:dgUniversalConstraint.obj
 0001:00086c20       ?GetJointAngle1@dgUniversalConstraint@@QBEMXZ 10087c20 f   physics:dgUniversalConstraint.obj
 0001:00086c40       ?GetJointOmega0@dgUniversalConstraint@@QBEMXZ 10087c40 f   physics:dgUniversalConstraint.obj
 0001:00086d10       ?GetJointOmega1@dgUniversalConstraint@@QBEMXZ 10087d10 f   physics:dgUniversalConstraint.obj
 0001:00086de0       ?CalculateStopAlpha0@dgUniversalConstraint@@QBEMMPBVdgJointCallBackParam@@@Z 10087de0 f   physics:dgUniversalConstraint.obj
 0001:00086ec0       ?CalculateStopAlpha1@dgUniversalConstraint@@QBEMMPBVdgJointCallBackParam@@@Z 10087ec0 f   physics:dgUniversalConstraint.obj
 0001:00086fa0       ?GetJointForce@dgUniversalConstraint@@QBE?AVdgVector@@XZ 10087fa0 f   physics:dgUniversalConstraint.obj
 0001:000870a0       ?JacobianDerivative@dgUniversalConstraint@@EAEIAAVdgContraintDescritor@@@Z 100880a0 f   physics:dgUniversalConstraint.obj
 0001:00087690       ??_EdgUniversalConstraint@@EAEPAXI@Z 10088690 f i physics:dgUniversalConstraint.obj
 0001:00087690       ??_GdgUniversalConstraint@@EAEPAXI@Z 10088690 f i physics:dgUniversalConstraint.obj
 0001:000876c0       ??0dgUpVectorConstraint@@AAE@XZ 100886c0 f   physics:dgUpVectorConstraint.obj
 0001:00087770       ??1dgUpVectorConstraint@@EAE@XZ 10088770 f   physics:dgUpVectorConstraint.obj
 0001:00087790       ?IsBilateral@dgUpVectorConstraint@@UBE_NXZ 10088790 f   physics:dgUpVectorConstraint.obj
 0001:000877a0       ?InitPinDir@dgUpVectorConstraint@@QAEXABVdgVector@@@Z 100887a0 f   physics:dgUpVectorConstraint.obj
 0001:00087800       ?SetPinDir@dgUpVectorConstraint@@QAEXABVdgVector@@@Z 10088800 f   physics:dgUpVectorConstraint.obj
 0001:00087850       ?GetPinDir@dgUpVectorConstraint@@QBE?AVdgVector@@XZ 10088850 f   physics:dgUpVectorConstraint.obj
 0001:00087880       ?SetJointParameterCallBack@dgUpVectorConstraint@@QAEXP6AIABV1@@Z@Z 10088880 f   physics:dgUpVectorConstraint.obj
 0001:000878a0       ?JacobianDerivative@dgUpVectorConstraint@@EAEIAAVdgContraintDescritor@@@Z 100888a0 f   physics:dgUpVectorConstraint.obj
 0001:00087af0       ??_EdgUpVectorConstraint@@EAEPAXI@Z 10088af0 f i physics:dgUpVectorConstraint.obj
 0001:00087af0       ??_GdgUpVectorConstraint@@EAEPAXI@Z 10088af0 f i physics:dgUpVectorConstraint.obj
 0001:00087b20       ?GetUserData@dgConstraint@@QBEPAXXZ 10088b20 f   physics:dgConstraint.obj
 0001:00087b40       ?SetUserData@dgConstraint@@QAEXPAX@Z 10088b40 f   physics:dgConstraint.obj
 0001:00087b60       ?IsBilateral@dgConstraint@@MBE_NXZ 10088b60 f   physics:dgConstraint.obj
 0001:00087b70       ?InitPointParam@dgConstraint@@IBEXAAVdgPointParam@1@MABVdgVector@@1@Z 10088b70 f   physics:dgConstraint.obj
 0001:00087e20       ?InitInfo@dgConstraint@@IBEXQAVdgConstraintInfo@@@Z 10088e20 f   physics:dgConstraint.obj
 0001:00087f00       ?GetInfo@dgConstraint@@UBEXQAVdgConstraintInfo@@@Z 10088f00 f   physics:dgConstraint.obj
 0001:00087f30       ??0dgMeshEffect@@QAE@QAVdgMemoryAllocator@@QBNHHN@Z 10088f30 f   physics:dgMeshEffect2.obj
 0001:000882d0       ?CreateDelanayTretrahedralization@dgMeshEffect@@QBEPAV1@HAAVdgMatrix@@@Z 100892d0 f   physics:dgMeshEffect2.obj
 0001:00088310       ?CreateVoronoiPartition@dgMeshEffect@@QBEPAV1@HHQBMHAAVdgMatrix@@@Z 10089310 f   physics:dgMeshEffect2.obj
 0001:00088f10       ?MakeDelanayIntersection@dgMeshEffect@@IBEPAV1@QAVdgMeshEffectSolidTree@@QAVdgBigVector@@HHABVdgMatrix@@M@Z 10089f10 f   physics:dgMeshEffect2.obj
 0001:00089220       ??1dgHugeVector@@QAE@XZ    1008a220 f i physics:dgMeshEffect2.obj
 0001:00089240       ?GetInfo@dgListNode@?$dgList@VdgConvexHull4dTetraherum@@@@QAEAAVdgConvexHull4dTetraherum@@XZ 1008a240 f i physics:dgMeshEffect2.obj
 0001:00089260       ?GetKey@dgTreeNode@?$dgTree@V?$dgList@H@@H@@QBEABHXZ 1008a260 f i physics:dgMeshEffect2.obj
 0001:00089280       ?GetInfo@dgTreeNode@?$dgTree@V?$dgList@H@@H@@QAEAAV?$dgList@H@@XZ 1008a280 f i physics:dgMeshEffect2.obj
 0001:000892a0       ??0Iterator@?$dgTree@V?$dgList@H@@H@@QAE@ABV1@@Z 1008a2a0 f i physics:dgMeshEffect2.obj
 0001:000892d0       ??1Iterator@?$dgTree@V?$dgList@H@@H@@QAE@XZ 1008a2d0 f i physics:dgMeshEffect2.obj
 0001:000892e0       ?Begin@Iterator@?$dgTree@V?$dgList@H@@H@@QAEXXZ 1008a2e0 f i physics:dgMeshEffect2.obj
 0001:00089300       ??BIterator@?$dgTree@V?$dgList@H@@H@@QBEHXZ 1008a300 f i physics:dgMeshEffect2.obj
 0001:00089320       ??EIterator@?$dgTree@V?$dgList@H@@H@@QAEXH@Z 1008a320 f i physics:dgMeshEffect2.obj
 0001:00089370       ?GetNode@Iterator@?$dgTree@V?$dgList@H@@H@@QBEPAVdgTreeNode@2@XZ 1008a370 f i physics:dgMeshEffect2.obj
 0001:00089380       ?GetInfo@dgListNode@?$dgList@H@@QAEAAHXZ 1008a380 f i physics:dgMeshEffect2.obj
 0001:000893a0       ?GetNext@dgListNode@?$dgList@H@@QBEPAV12@XZ 1008a3a0 f i physics:dgMeshEffect2.obj
 0001:000893c0       ?GetCount@?$dgList@VdgConvexHull4dTetraherum@@@@QBEHXZ 1008a3c0 f i physics:dgMeshEffect2.obj
 0001:000893e0       ?GetFirst@?$dgList@VdgConvexHull4dTetraherum@@@@QBEPAVdgListNode@1@XZ 1008a3e0 f i physics:dgMeshEffect2.obj
 0001:00089400       ??0?$dgStack@PAVdgListNode@?$dgList@VdgConvexHull4dTetraherum@@@@@@QAE@H@Z 1008a400 f i physics:dgMeshEffect2.obj
 0001:00089430       ??0dgHugeVector@@QAE@ABVdgBigVector@@@Z 1008a430 f i physics:dgMeshEffect2.obj
 0001:00089510       ??1?$dgStack@PAVdgListNode@?$dgList@VdgConvexHull4dTetraherum@@@@@@QAE@XZ 1008a510 f i physics:dgMeshEffect2.obj
 0001:00089530       ??A?$dgStack@PAVdgListNode@?$dgList@VdgConvexHull4dTetraherum@@@@@@QAEAAPAVdgListNode@?$dgList@VdgConvexHull4dTetraherum@@@@H@Z 1008a530 f i physics:dgMeshEffect2.obj
 0001:000895b0       ??0?$dgTree@V?$dgList@H@@H@@QAE@QAVdgMemoryAllocator@@@Z 1008a5b0 f i physics:dgMeshEffect2.obj
 0001:000895f0       ??1?$dgTree@V?$dgList@H@@H@@UAE@XZ 1008a5f0 f i physics:dgMeshEffect2.obj
 0001:00089610       ?Minimum@?$dgTree@V?$dgList@H@@H@@QBEPAVdgTreeNode@1@XZ 1008a610 f i physics:dgMeshEffect2.obj
 0001:00089640       ?Find@?$dgTree@V?$dgList@H@@H@@QBEPAVdgTreeNode@1@H@Z 1008a640 f i physics:dgMeshEffect2.obj
 0001:00089760       ?Insert@?$dgTree@V?$dgList@H@@H@@QAEPAVdgTreeNode@1@ABV?$dgList@H@@H@Z 1008a760 f i physics:dgMeshEffect2.obj
 0001:000897a0       ??0?$dgList@H@@QAE@QAVdgMemoryAllocator@@@Z 1008a7a0 f i physics:dgMeshEffect2.obj
 0001:000897e0       ??1?$dgTemplateVector@VdgGoogol@@@@QAE@XZ 1008a7e0 f i physics:dgMeshEffect2.obj
 0001:00089820       ??1?$dgList@H@@UAE@XZ      1008a820 f i physics:dgMeshEffect2.obj
 0001:00089840       ?GetFirst@?$dgList@H@@QBEPAVdgListNode@1@XZ 1008a840 f i physics:dgMeshEffect2.obj
 0001:00089860       ?Append@?$dgList@H@@QAEPAVdgListNode@1@ABH@Z 1008a860 f i physics:dgMeshEffect2.obj
 0001:00089920       ??_E?$dgTree@V?$dgList@H@@H@@UAEPAXI@Z 1008a920 f i physics:dgMeshEffect2.obj
 0001:00089920       ??_G?$dgTree@V?$dgList@H@@H@@UAEPAXI@Z 1008a920 f i physics:dgMeshEffect2.obj
 0001:00089950       ??_G?$dgList@H@@UAEPAXI@Z  1008a950 f i physics:dgMeshEffect2.obj
 0001:00089950       ??_E?$dgList@H@@UAEPAXI@Z  1008a950 f i physics:dgMeshEffect2.obj
 0001:00089980       ??3?$dgTree@V?$dgList@H@@H@@SAXQAX@Z 1008a980 f i physics:dgMeshEffect2.obj
 0001:000899a0       ??3?$dgList@H@@SAXQAX@Z    1008a9a0 f i physics:dgMeshEffect2.obj
 0001:000899c0       ?GetLeft@dgTreeNode@?$dgTree@V?$dgList@H@@H@@ABEPAV12@XZ 1008a9c0 f i physics:dgMeshEffect2.obj
 0001:000899e0       ?GetRight@dgTreeNode@?$dgTree@V?$dgList@H@@H@@ABEPAV12@XZ 1008a9e0 f i physics:dgMeshEffect2.obj
 0001:00089a00       ??2dgListNode@?$dgList@H@@CAPAXIQAVdgMemoryAllocator@@@Z 1008aa00 f i physics:dgMeshEffect2.obj
 0001:00089a20       ??0dgListNode@?$dgList@H@@AAE@ABHQAV01@1@Z 1008aa20 f i physics:dgMeshEffect2.obj
 0001:00089a80       ??_GdgListNode@?$dgList@H@@EAEPAXI@Z 1008aa80 f i physics:dgMeshEffect2.obj
 0001:00089a80       ??_EdgListNode@?$dgList@H@@EAEPAXI@Z 1008aa80 f i physics:dgMeshEffect2.obj
 0001:00089ab0       ??1dgListNode@?$dgList@H@@EAE@XZ 1008aab0 f i physics:dgMeshEffect2.obj
 0001:00089ad0       ??3dgListNode@?$dgList@H@@CAXQAX@Z 1008aad0 f i physics:dgMeshEffect2.obj
 0001:00089af0       ?Insert@?$dgTree@V?$dgList@H@@H@@QAEPAVdgTreeNode@1@ABV?$dgList@H@@HAA_N@Z 1008aaf0 f i physics:dgMeshEffect2.obj
 0001:00089cf0       ?RemoveAll@?$dgTree@V?$dgList@H@@H@@QAEXXZ 1008acf0 f i physics:dgMeshEffect2.obj
 0001:00089d30       ?CompareKeys@?$dgTree@V?$dgList@H@@H@@ABEHABH0@Z 1008ad30 f i physics:dgMeshEffect2.obj
 0001:00089d70       ?RemoveAll@?$dgList@H@@QAEXXZ 1008ad70 f i physics:dgMeshEffect2.obj
 0001:00089e30       ??0dgTreeNode@?$dgTree@V?$dgList@H@@H@@AAE@ABV?$dgList@H@@ABHPAV01@@Z 1008ae30 f i physics:dgMeshEffect2.obj
 0001:00089e70       ??_GdgTreeNode@?$dgTree@V?$dgList@H@@H@@EAEPAXI@Z 1008ae70 f i physics:dgMeshEffect2.obj
 0001:00089e70       ??_EdgTreeNode@?$dgTree@V?$dgList@H@@H@@EAEPAXI@Z 1008ae70 f i physics:dgMeshEffect2.obj
 0001:00089ea0       ??1dgTreeNode@?$dgTree@V?$dgList@H@@H@@EAE@XZ 1008aea0 f i physics:dgMeshEffect2.obj
 0001:00089ed0       ?Unlink@dgListNode@?$dgList@H@@AAEXXZ 1008aed0 f i physics:dgMeshEffect2.obj
 0001:00089f20       ??0?$dgList@H@@QAE@ABV0@@Z 1008af20 f i physics:dgMeshEffect2.obj
 0001:00089f70       ?GetVertex@dgConvexHull3d@@QBEABVdgBigVector@@H@Z 1008af70 f i physics:dgMeshEffect2.obj
 0001:00089f90       ?GetVertex@dgConvexHull4d@@QBEABVdgBigVector@@H@Z 1008af90 f i physics:dgMeshEffect2.obj
 0001:0008a010       ?GetHullVertexArray@dgConvexHull4d@@QBEPBVdgHullVector@@XZ 1008b010 f i physics:dgMeshEffect2.obj
 0001:0008a030       ??0?$dgTemplateVector@VdgGoogol@@@@QAE@VdgGoogol@@000@Z 1008b030 f i physics:dgMeshEffect2.obj
 0001:0008a0b0       ??A?$dgArray@VdgHullVector@@@@QBEABVdgHullVector@@H@Z 1008b0b0 f i physics:dgMeshEffect2.obj
 0001:0008a110       ?Resize@?$dgArray@VdgHullVector@@@@QBEXH@Z 1008b110 f i physics:dgMeshEffect2.obj
 0001:0008a280       ?GetNext@dgListNode@?$dgList@VdgConvexHull4dTetraherum@@@@QBEPAV12@XZ 1008b280 f i physics:dgMeshEffect2.obj
 0001:0008a2a0       ??0dgMeshEffect@@QAE@ABV0@MH@Z 1008b2a0 f   physics:dgMeshEffect3.obj
 0001:0008b0e0       ?CreateConvexApproximation@dgMeshEffect@@QBEPAV1@MH@Z 1008c0e0 f   physics:dgMeshEffect3.obj
 0001:0008b180       ??0dgClusterList@@QAE@QAVdgMemoryAllocator@@@Z 1008c180 f i physics:dgMeshEffect3.obj
 0001:0008b1c0       ??1dgClusterList@@UAE@XZ   1008c1c0 f i physics:dgMeshEffect3.obj
 0001:0008b1e0       ?CalculateNodeCost@dgClusterList@@QAEXAAVdgMeshEffect@@HQAVdgBigVector@@QAHAAHQAV1@NNAAV?$dgList@VdgPairProxi@@@@AAV?$dgUpHeap@PAVdgListNode@?$dgList@VdgPairProxi@@@@N@@@Z 1008c1e0 f i physics:dgMeshEffect3.obj
 0001:0008b700       ?AddVertexToPool@dgClusterList@@QAEHABVdgMeshEffect@@QAVdgBigVector@@QAHH@Z 1008c700 f i physics:dgMeshEffect3.obj
 0001:0008b7c0       ?CalculateConcavity2@dgClusterList@@QAENABVdgConvexHull3d@@ABVdgMeshEffect@@@Z 1008c7c0 f i physics:dgMeshEffect3.obj
 0001:0008b8a0       ?CalculateTriangleConcavity2@dgClusterList@@QBENABVdgConvexHull3d@@AAVdgClusterFace@@HHHQBVdgBigVector@@@Z 1008c8a0 f i physics:dgMeshEffect3.obj
 0001:0008be00       ?IsClusterCoplanar@dgClusterList@@QBE_NABVdgBigPlane@@ABVdgMeshEffect@@@Z 1008ce00 f i physics:dgMeshEffect3.obj
 0001:0008beb0       ?IsEdgeConvex@dgClusterList@@QBE_NABVdgBigPlane@@ABVdgMeshEffect@@QAVdgEdge@@@Z 1008ceb0 f i physics:dgMeshEffect3.obj
 0001:0008c040       ??_EdgClusterList@@UAEPAXI@Z 1008d040 f i physics:dgMeshEffect3.obj
 0001:0008c040       ??_GdgClusterList@@UAEPAXI@Z 1008d040 f i physics:dgMeshEffect3.obj
 0001:0008c070       ??4dgClusterList@@QAEAAV0@ABV0@@Z 1008d070 f i physics:dgMeshEffect3.obj
 0001:0008c0b0       ??1?$dgUpHeap@PAVdgListNode@?$dgList@VdgPairProxi@@@@N@@QAE@XZ 1008d0b0 f i physics:dgMeshEffect3.obj
 0001:0008c0d0       ??4?$dgList@VdgClusterFace@@@@QAEAAV0@ABV0@@Z 1008d0d0 f i physics:dgMeshEffect3.obj
 0001:0008c110       ??3?$dgList@VdgClusterFace@@@@SAXQAX@Z 1008d110 f i physics:dgMeshEffect3.obj
 0001:0008c130       ?GetInfo@dgListNode@?$dgList@VdgClusterFace@@@@QAEAAVdgClusterFace@@XZ 1008d130 f i physics:dgMeshEffect3.obj
 0001:0008c150       ?GetNext@dgListNode@?$dgList@VdgClusterFace@@@@QBEPAV12@XZ 1008d150 f i physics:dgMeshEffect3.obj
 0001:0008c170       ?GetInfo@dgListNode@?$dgList@VdgPairProxi@@@@QAEAAVdgPairProxi@@XZ 1008d170 f i physics:dgMeshEffect3.obj
 0001:0008c190       ??0?$dgList@VdgClusterFace@@@@QAE@QAVdgMemoryAllocator@@@Z 1008d190 f i physics:dgMeshEffect3.obj
 0001:0008c1d0       ??1?$dgList@VdgClusterFace@@@@UAE@XZ 1008d1d0 f i physics:dgMeshEffect3.obj
 0001:0008c1f0       ?GetCount@?$dgList@VdgClusterFace@@@@QBEHXZ 1008d1f0 f i physics:dgMeshEffect3.obj
 0001:0008c210       ?GetFirst@?$dgList@VdgClusterFace@@@@QBEPAVdgListNode@1@XZ 1008d210 f i physics:dgMeshEffect3.obj
 0001:0008c230       ?Append@?$dgList@VdgClusterFace@@@@QAEPAVdgListNode@1@QAV21@@Z 1008d230 f i physics:dgMeshEffect3.obj
 0001:0008c2e0       ?Append@?$dgList@VdgClusterFace@@@@QAEPAVdgListNode@1@XZ 1008d2e0 f i physics:dgMeshEffect3.obj
 0001:0008c3a0       ?RemoveAll@?$dgList@VdgClusterFace@@@@QAEXXZ 1008d3a0 f i physics:dgMeshEffect3.obj
 0001:0008c460       ?Unlink@?$dgList@VdgClusterFace@@@@QAEXQAVdgListNode@1@@Z 1008d460 f i physics:dgMeshEffect3.obj
 0001:0008c510       ??0?$dgList@VdgPairProxi@@@@QAE@QAVdgMemoryAllocator@@@Z 1008d510 f i physics:dgMeshEffect3.obj
 0001:0008c550       ??1?$dgList@VdgPairProxi@@@@UAE@XZ 1008d550 f i physics:dgMeshEffect3.obj
 0001:0008c570       ?Append@?$dgList@VdgPairProxi@@@@QAEPAVdgListNode@1@XZ 1008d570 f i physics:dgMeshEffect3.obj
 0001:0008c630       ?Remove@?$dgList@VdgPairProxi@@@@QAEXQAVdgListNode@1@@Z 1008d630 f i physics:dgMeshEffect3.obj
 0001:0008c680       ??A?$dgArray@VdgBigVector@@@@QAEAAVdgBigVector@@H@Z 1008d680 f i physics:dgMeshEffect3.obj
 0001:0008c6e0       ??1?$dgHeapBase@PAVdgListNode@?$dgList@VdgPairProxi@@@@N@@IAE@XZ 1008d6e0 f i physics:dgMeshEffect3.obj
 0001:0008c710       ?Value@?$dgHeapBase@PAVdgListNode@?$dgList@VdgPairProxi@@@@N@@QBENH@Z 1008d710 f i physics:dgMeshEffect3.obj
 0001:0008c730       ?GetCount@?$dgHeapBase@PAVdgListNode@?$dgList@VdgPairProxi@@@@N@@QBEHXZ 1008d730 f i physics:dgMeshEffect3.obj
 0001:0008c740       ?GetMaxCount@?$dgHeapBase@PAVdgListNode@?$dgList@VdgPairProxi@@@@N@@QBEHXZ 1008d740 f i physics:dgMeshEffect3.obj
 0001:0008c760       ??A?$dgHeapBase@PAVdgListNode@?$dgList@VdgPairProxi@@@@N@@QBEABQAVdgListNode@?$dgList@VdgPairProxi@@@@H@Z 1008d760 f i physics:dgMeshEffect3.obj
 0001:0008c7b0       ??0?$dgUpHeap@PAVdgListNode@?$dgList@VdgPairProxi@@@@N@@QAE@HQAVdgMemoryAllocator@@@Z 1008d7b0 f i physics:dgMeshEffect3.obj
 0001:0008c7d0       ?Pop@?$dgUpHeap@PAVdgListNode@?$dgList@VdgPairProxi@@@@N@@QAEXXZ 1008d7d0 f i physics:dgMeshEffect3.obj
 0001:0008c900       ?Push@?$dgUpHeap@PAVdgListNode@?$dgList@VdgPairProxi@@@@N@@QAEXAAPAVdgListNode@?$dgList@VdgPairProxi@@@@N@Z 1008d900 f i physics:dgMeshEffect3.obj
 0001:0008ca30       ?Remove@?$dgUpHeap@PAVdgListNode@?$dgList@VdgPairProxi@@@@N@@QAEXH@Z 1008da30 f i physics:dgMeshEffect3.obj
 0001:0008cb60       ??0?$dgStack@VdgClusterList@@@@QAE@H@Z 1008db60 f i physics:dgMeshEffect3.obj
 0001:0008cb90       ??1?$dgStack@VdgClusterList@@@@QAE@XZ 1008db90 f i physics:dgMeshEffect3.obj
 0001:0008cbb0       ??A?$dgStack@VdgClusterList@@@@QAEAAVdgClusterList@@H@Z 1008dbb0 f i physics:dgMeshEffect3.obj
 0001:0008cc30       ??$Swap@PAVdgClusterList@@@@YAXAAPAVdgClusterList@@0@Z 1008dc30 f i physics:dgMeshEffect3.obj
 0001:0008cc60       ??_E?$dgList@VdgClusterFace@@@@UAEPAXI@Z 1008dc60 f i physics:dgMeshEffect3.obj
 0001:0008cc60       ??_G?$dgList@VdgClusterFace@@@@UAEPAXI@Z 1008dc60 f i physics:dgMeshEffect3.obj
 0001:0008cc90       ??_G?$dgList@VdgPairProxi@@@@UAEPAXI@Z 1008dc90 f i physics:dgMeshEffect3.obj
 0001:0008cc90       ??_E?$dgList@VdgPairProxi@@@@UAEPAXI@Z 1008dc90 f i physics:dgMeshEffect3.obj
 0001:0008ccc0       ??3?$dgList@VdgPairProxi@@@@SAXQAX@Z 1008dcc0 f i physics:dgMeshEffect3.obj
 0001:0008cce0       ??2dgListNode@?$dgList@VdgClusterFace@@@@CAPAXIQAVdgMemoryAllocator@@@Z 1008dce0 f i physics:dgMeshEffect3.obj
 0001:0008cd00       ??0dgListNode@?$dgList@VdgClusterFace@@@@AAE@QAV01@0@Z 1008dd00 f i physics:dgMeshEffect3.obj
 0001:0008cd60       ??0dgClusterFace@@QAE@XZ   1008dd60 f i physics:dgMeshEffect3.obj
 0001:0008cd80       ??_GdgListNode@?$dgList@VdgClusterFace@@@@EAEPAXI@Z 1008dd80 f i physics:dgMeshEffect3.obj
 0001:0008cd80       ??_EdgListNode@?$dgList@VdgClusterFace@@@@EAEPAXI@Z 1008dd80 f i physics:dgMeshEffect3.obj
 0001:0008cdb0       ??1dgListNode@?$dgList@VdgClusterFace@@@@EAE@XZ 1008ddb0 f i physics:dgMeshEffect3.obj
 0001:0008cdd0       ??1dgClusterFace@@QAE@XZ   1008ddd0 f i physics:dgMeshEffect3.obj
 0001:0008cde0       ??3dgListNode@?$dgList@VdgClusterFace@@@@CAXQAX@Z 1008dde0 f i physics:dgMeshEffect3.obj
 0001:0008ce00       ?Unlink@dgListNode@?$dgList@VdgClusterFace@@@@AAEXXZ 1008de00 f i physics:dgMeshEffect3.obj
 0001:0008ce50       ?AddLast@dgListNode@?$dgList@VdgClusterFace@@@@AAEXQAV12@@Z 1008de50 f i physics:dgMeshEffect3.obj
 0001:0008ce70       ?GetPrev@dgListNode@?$dgList@VdgClusterFace@@@@QBEPAV12@XZ 1008de70 f i physics:dgMeshEffect3.obj
 0001:0008ce90       ??2dgListNode@?$dgList@VdgPairProxi@@@@CAPAXIQAVdgMemoryAllocator@@@Z 1008de90 f i physics:dgMeshEffect3.obj
 0001:0008ceb0       ??0dgListNode@?$dgList@VdgPairProxi@@@@AAE@QAV01@0@Z 1008deb0 f i physics:dgMeshEffect3.obj
 0001:0008cf10       ??0dgPairProxi@@QAE@XZ     1008df10 f i physics:dgMeshEffect3.obj
 0001:0008cf50       ??_GdgListNode@?$dgList@VdgPairProxi@@@@EAEPAXI@Z 1008df50 f i physics:dgMeshEffect3.obj
 0001:0008cf50       ??_EdgListNode@?$dgList@VdgPairProxi@@@@EAEPAXI@Z 1008df50 f i physics:dgMeshEffect3.obj
 0001:0008cf80       ??1dgListNode@?$dgList@VdgPairProxi@@@@EAE@XZ 1008df80 f i physics:dgMeshEffect3.obj
 0001:0008cfa0       ??1dgPairProxi@@QAE@XZ     1008dfa0 f i physics:dgMeshEffect3.obj
 0001:0008cfb0       ??3dgListNode@?$dgList@VdgPairProxi@@@@CAXQAX@Z 1008dfb0 f i physics:dgMeshEffect3.obj
 0001:0008cfd0       ?RemoveAll@?$dgList@VdgPairProxi@@@@QAEXXZ 1008dfd0 f i physics:dgMeshEffect3.obj
 0001:0008d090       ?Unlink@?$dgList@VdgPairProxi@@@@QAEXQAVdgListNode@1@@Z 1008e090 f i physics:dgMeshEffect3.obj
 0001:0008d140       ??0?$dgHeapBase@PAVdgListNode@?$dgList@VdgPairProxi@@@@N@@IAE@HQAVdgMemoryAllocator@@@Z 1008e140 f i physics:dgMeshEffect3.obj
 0001:0008d190       ?Unlink@dgListNode@?$dgList@VdgPairProxi@@@@AAEXXZ 1008e190 f i physics:dgMeshEffect3.obj
 0001:0008d1e0       ?GetNext@dgListNode@?$dgList@VdgPairProxi@@@@QBEPAV12@XZ 1008e1e0 f i physics:dgMeshEffect3.obj
 0001:0008d200       ?GetPrev@dgListNode@?$dgList@VdgPairProxi@@@@QBEPAV12@XZ 1008e200 f i physics:dgMeshEffect3.obj
 0001:0008d220       ?GetDiagonal@dgConvexHull3d@@QBENXZ 1008e220 f i physics:dgMeshEffect3.obj
 0001:0008d240       ?Flush@?$dgHeapBase@PAVdgListNode@?$dgList@VdgPairProxi@@@@N@@QAEXXZ 1008e240 f i physics:dgMeshEffect3.obj
 0001:0008d260       ??0?$dgArray@VdgBigVector@@@@QAE@HQAVdgMemoryAllocator@@@Z 1008e260 f i physics:dgMeshEffect3.obj
 0001:0008d2a0       ??1?$dgArray@VdgBigVector@@@@QAE@XZ 1008e2a0 f i physics:dgMeshEffect3.obj
 0001:0008d2d0       ??0dgUserConstraint@@IAE@QAVdgWorld@@QAVdgBody@@1H@Z 1008e2d0 f   physics:dgUserConstraint.obj
 0001:0008d380       ??1dgUserConstraint@@MAE@XZ 1008e380 f   physics:dgUserConstraint.obj
 0001:0008d3a0       ?GetInfo@dgUserConstraint@@MBEXQAVdgConstraintInfo@@@Z 1008e3a0 f   physics:dgUserConstraint.obj
 0001:0008d3c0       ??_EdgUserConstraint@@MAEPAXI@Z 1008e3c0 f i physics:dgUserConstraint.obj
 0001:0008d3c0       ??_GdgUserConstraint@@MAEPAXI@Z 1008e3c0 f i physics:dgUserConstraint.obj
 0001:0008d3f0       ??0dgBilateralConstraint@@IAE@XZ 1008e3f0 f   physics:dgBilateralConstraint.obj
 0001:0008d510       ??1dgBilateralConstraint@@MAE@XZ 1008e510 f   physics:dgBilateralConstraint.obj
 0001:0008d550       ?IsBilateral@dgBilateralConstraint@@MBE_NXZ 1008e550 f   physics:dgBilateralConstraint.obj
 0001:0008d560       ?GetStiffness@dgBilateralConstraint@@MBEMXZ 1008e560 f   physics:dgBilateralConstraint.obj
 0001:0008d590       ?SetStiffness@dgBilateralConstraint@@MAEXM@Z 1008e590 f   physics:dgBilateralConstraint.obj
 0001:0008d5e0       ?SetDestructorCallback@dgBilateralConstraint@@UAEXP6AXAAVdgConstraint@@@Z@Z 1008e5e0 f   physics:dgBilateralConstraint.obj
 0001:0008d600       ?CalculateMatrixOffset@dgBilateralConstraint@@IAEXABVdgVector@@0AAVdgMatrix@@1@Z 1008e600 f   physics:dgBilateralConstraint.obj
 0001:0008d7d0       ?SetPivotAndPinDir@dgBilateralConstraint@@IAEXABVdgVector@@0@Z 1008e7d0 f   physics:dgBilateralConstraint.obj
 0001:0008d800       ?SetPivotAndPinDir@dgBilateralConstraint@@IAEXABVdgVector@@00@Z 1008e800 f   physics:dgBilateralConstraint.obj
 0001:0008dac0       ?CalculateGlobalMatrixAndAngle@dgBilateralConstraint@@IBE?AVdgVector@@AAVdgMatrix@@0@Z 1008eac0 f   physics:dgBilateralConstraint.obj
 0001:0008dcf0       ?SetMotorAcceleration@dgBilateralConstraint@@IAEXHMAAVdgContraintDescritor@@@Z 1008ecf0 f   physics:dgBilateralConstraint.obj
 0001:0008dd40       ?SetJacobianDerivative@dgBilateralConstraint@@IAEXHAAVdgContraintDescritor@@PBM1PAM@Z 1008ed40 f   physics:dgBilateralConstraint.obj
 0001:0008df10       ?CalculateSpringDamperAcceleration@dgBilateralConstraint@@IAEMHABVdgContraintDescritor@@MABVdgVector@@1MM@Z 1008ef10 f   physics:dgBilateralConstraint.obj
 0001:0008e140       ?CalculateAngularDerivative@dgBilateralConstraint@@IAEXHAAVdgContraintDescritor@@ABVdgVector@@MMPAM@Z 1008f140 f   physics:dgBilateralConstraint.obj
 0001:0008e490       ?CalculatePointDerivative@dgBilateralConstraint@@IAEXHAAVdgContraintDescritor@@ABVdgVector@@ABVdgPointParam@dgConstraint@@PAM@Z 1008f490 f   physics:dgBilateralConstraint.obj
 0001:0008e8e0       ?JointAccelerationsSimd@dgBilateralConstraint@@MAEXABVdgJointAccelerationDecriptor@@@Z 1008f8e0 f   physics:dgBilateralConstraint.obj
 0001:0008eb30       ?JointAccelerations@dgBilateralConstraint@@MAEXABVdgJointAccelerationDecriptor@@@Z 1008fb30 f   physics:dgBilateralConstraint.obj
 0001:0008ed80       ?JointVelocityCorrection@dgBilateralConstraint@@MAEXABVdgJointAccelerationDecriptor@@@Z 1008fd80 f   physics:dgBilateralConstraint.obj
 0001:0008ed90       ??0dgConstraint@@IAE@XZ    1008fd90 f i physics:dgBilateralConstraint.obj
 0001:0008ee80       ??_EdgConstraint@@MAEPAXI@Z 1008fe80 f i physics:dgBilateralConstraint.obj
 0001:0008ee80       ??_GdgConstraint@@MAEPAXI@Z 1008fe80 f i physics:dgBilateralConstraint.obj
 0001:0008eeb0       ??1dgConstraint@@MAE@XZ    1008feb0 f i physics:dgBilateralConstraint.obj
 0001:0008eed0       ?GetStiffness@dgConstraint@@UBEMXZ 1008fed0 f i physics:dgBilateralConstraint.obj
 0001:0008eee0       ?SetStiffness@dgConstraint@@UAEXM@Z 1008fee0 f i physics:dgBilateralConstraint.obj
 0001:0008eef0       ??_GdgBilateralConstraint@@MAEPAXI@Z 1008fef0 f i physics:dgBilateralConstraint.obj
 0001:0008eef0       ??_EdgBilateralConstraint@@MAEPAXI@Z 1008fef0 f i physics:dgBilateralConstraint.obj
 0001:0008ef20       ??0dgContactMaterial@@QAE@XZ 1008ff20 f   physics:dgContact.obj
 0001:0008f020       ??0dgContact@@AAE@PAVdgWorld@@@Z 10090020 f   physics:dgContact.obj
 0001:0008f170       ?GetInfo@dgContact@@EBEXQAVdgConstraintInfo@@@Z 10090170 f   physics:dgContact.obj
 0001:0008f1d0       ?CalculatePointDerivative@dgContact@@ABEXHAAVdgContraintDescritor@@ABVdgVector@@ABVdgPointParam@dgConstraint@@@Z 100901d0 f   physics:dgContact.obj
 0001:0008f3d0       ?JacobianDerivative@dgContact@@EAEIAAVdgContraintDescritor@@@Z 100903d0 f   physics:dgContact.obj
 0001:0008f460       ?JacobianContactDerivative@dgContact@@AAEXAAVdgContraintDescritor@@ABVdgContactMaterial@@HAAH@Z 10090460 f   physics:dgContact.obj
 0001:0008fae0       ?JointAccelerationsSimd@dgContact@@EAEXABVdgJointAccelerationDecriptor@@@Z 10090ae0 f   physics:dgContact.obj
 0001:000900b0       ?JointAccelerations@dgContact@@EAEXABVdgJointAccelerationDecriptor@@@Z 100910b0 f   physics:dgContact.obj
 0001:00090350       ?JointVelocityCorrection@dgContact@@EAEXABVdgJointAccelerationDecriptor@@@Z 10091350 f   physics:dgContact.obj
 0001:00090390       ??0dgCollidingPairCollector@@QAE@XZ 10091390 f   physics:dgContact.obj
 0001:000903d0       ??1dgCollidingPairCollector@@QAE@XZ 100913d0 f   physics:dgContact.obj
 0001:000903e0       ?Init@dgCollidingPairCollector@@QAEXXZ 100913e0 f   physics:dgContact.obj
 0001:00090440       ?SetCaches@dgCollidingPairCollector@@QAEXQAUdgThreadPairCache@1@@Z 10091440 f   physics:dgContact.obj
 0001:00090490       ?FlushChache@dgCollidingPairCollector@@QAEXQAUdgThreadPairCache@1@@Z 10091490 f   physics:dgContact.obj
 0001:000905c0       ?AddPair@dgCollidingPairCollector@@QAEXQAVdgBody@@0H@Z 100915c0 f   physics:dgContact.obj
 0001:00090c00       ?SetDestructorCallback@dgContact@@EAEXP6AXAAVdgConstraint@@@Z@Z 10091c00 f i physics:dgContact.obj
 0001:00090c10       ??_EdgContact@@EAEPAXI@Z   10091c10 f i physics:dgContact.obj
 0001:00090c10       ??_GdgContact@@EAEPAXI@Z   10091c10 f i physics:dgContact.obj
 0001:00090c40       ??3dgContact@@CAXQAX@Z     10091c40 f i physics:dgContact.obj
 0001:00090c60       ??1dgContact@@EAE@XZ       10091c60 f i physics:dgContact.obj
 0001:00090ce0       ?Append@?$dgList@PAVdgContact@@@@QAEPAVdgListNode@1@ABQAVdgContact@@@Z 10091ce0 f i physics:dgContact.obj
 0001:00090da0       ?Remove@?$dgList@PAVdgContact@@@@QAEXQAVdgListNode@1@@Z 10091da0 f i physics:dgContact.obj
 0001:00090df0       ??0?$dgList@VdgContactMaterial@@@@QAE@QAVdgMemoryAllocator@@@Z 10091df0 f i physics:dgContact.obj
 0001:00090e30       ??1?$dgList@VdgContactMaterial@@@@UAE@XZ 10091e30 f i physics:dgContact.obj
 0001:00090e50       ?RemoveAll@?$dgList@VdgContactMaterial@@@@QAEXXZ 10091e50 f i physics:dgContact.obj
 0001:00090f10       ??_G?$dgList@VdgContactMaterial@@@@UAEPAXI@Z 10091f10 f i physics:dgContact.obj
 0001:00090f10       ??_E?$dgList@VdgContactMaterial@@@@UAEPAXI@Z 10091f10 f i physics:dgContact.obj
 0001:00090f40       ??3?$dgList@VdgContactMaterial@@@@SAXQAX@Z 10091f40 f i physics:dgContact.obj
 0001:00090f60       ??2dgListNode@?$dgList@PAVdgContact@@@@CAPAXIQAVdgMemoryAllocator@@@Z 10091f60 f i physics:dgContact.obj
 0001:00090f80       ??0dgListNode@?$dgList@PAVdgContact@@@@AAE@ABQAVdgContact@@QAV01@1@Z 10091f80 f i physics:dgContact.obj
 0001:00090fe0       ??_EdgListNode@?$dgList@PAVdgContact@@@@EAEPAXI@Z 10091fe0 f i physics:dgContact.obj
 0001:00090fe0       ??_GdgListNode@?$dgList@PAVdgContact@@@@EAEPAXI@Z 10091fe0 f i physics:dgContact.obj
 0001:00091010       ??1dgListNode@?$dgList@PAVdgContact@@@@EAE@XZ 10092010 f i physics:dgContact.obj
 0001:00091030       ??3dgListNode@?$dgList@PAVdgContact@@@@CAXQAX@Z 10092030 f i physics:dgContact.obj
 0001:00091050       ?Unlink@?$dgList@PAVdgContact@@@@QAEXQAVdgListNode@1@@Z 10092050 f i physics:dgContact.obj
 0001:00091100       ?GetPrev@dgListNode@?$dgList@PAVdgContact@@@@QBEPAV12@XZ 10092100 f i physics:dgContact.obj
 0001:00091120       ??_EdgContact@@GCE@AEPAXI@Z 10092120 f i physics:dgContact.obj
 0001:00091130       ??0dgBodyMasterListRow@@QAE@XZ 10092130 f   physics:dgBodyMasterList.obj
 0001:00091160       ??1dgBodyMasterListRow@@UAE@XZ 10092160 f   physics:dgBodyMasterList.obj
 0001:000911b0       ?AddJoint@dgBodyMasterListRow@@QAEPAVdgListNode@?$dgList@VdgBodyMasterListCell@@@@QAVdgConstraint@@QAVdgBody@@@Z 100921b0 f   physics:dgBodyMasterList.obj
 0001:000911f0       ?RemoveAllJoints@dgBodyMasterListRow@@QAEXXZ 100921f0 f   physics:dgBodyMasterList.obj
 0001:00091250       ?SortList@dgBodyMasterListRow@@QAEXXZ 10092250 f   physics:dgBodyMasterList.obj
 0001:000912d0       ??0dgBodyMasterList@@QAE@QAVdgMemoryAllocator@@@Z 100922d0 f   physics:dgBodyMasterList.obj
 0001:00091300       ??1dgBodyMasterList@@UAE@XZ 10092300 f   physics:dgBodyMasterList.obj
 0001:00091320       ?AddBody@dgBodyMasterList@@QAEXQAVdgBody@@@Z 10092320 f   physics:dgBodyMasterList.obj
 0001:000913a0       ?RemoveBody@dgBodyMasterList@@QAEXQAVdgBody@@@Z 100923a0 f   physics:dgBodyMasterList.obj
 0001:00091440       ?FindConstraintLink@dgBodyMasterList@@QBEPAVdgListNode@?$dgList@VdgBodyMasterListCell@@@@QBVdgBody@@0@Z 10092440 f   physics:dgBodyMasterList.obj
 0001:00091510       ?FindConstraintLinkNext@dgBodyMasterList@@QBEPAVdgListNode@?$dgList@VdgBodyMasterListCell@@@@QBV23@QBVdgBody@@@Z 10092510 f   physics:dgBodyMasterList.obj
 0001:000915b0       ?AttachConstraint@dgBodyMasterList@@QAEXQAVdgConstraint@@QAVdgBody@@1@Z 100925b0 f   physics:dgBodyMasterList.obj
 0001:00091730       ?RemoveConstraint@dgBodyMasterList@@QAEXQAVdgConstraint@@@Z 10092730 f   physics:dgBodyMasterList.obj
 0001:00091980       ?SortMasterList@dgBodyMasterList@@QAEXXZ 10092980 f   physics:dgBodyMasterList.obj
 0001:00091b40       ??_EdgBodyMasterListRow@@UAEPAXI@Z 10092b40 f i physics:dgBodyMasterList.obj
 0001:00091b40       ??_GdgBodyMasterListRow@@UAEPAXI@Z 10092b40 f i physics:dgBodyMasterList.obj
 0001:00091b70       ??_GdgBodyMasterList@@UAEPAXI@Z 10092b70 f i physics:dgBodyMasterList.obj
 0001:00091b70       ??_EdgBodyMasterList@@UAEPAXI@Z 10092b70 f i physics:dgBodyMasterList.obj
 0001:00091ba0       ??3?$dgList@VdgBodyMasterListCell@@@@SAXQAX@Z 10092ba0 f i physics:dgBodyMasterList.obj
 0001:00091bc0       ??3?$dgList@VdgBodyMasterListRow@@@@SAXQAX@Z 10092bc0 f i physics:dgBodyMasterList.obj
 0001:00091be0       ?GetPrev@dgListNode@?$dgList@VdgBodyMasterListCell@@@@QBEPAV12@XZ 10092be0 f i physics:dgBodyMasterList.obj
 0001:00091c00       ??0?$dgList@VdgBodyMasterListCell@@@@QAE@QAVdgMemoryAllocator@@@Z 10092c00 f i physics:dgBodyMasterList.obj
 0001:00091c40       ??1?$dgList@VdgBodyMasterListCell@@@@UAE@XZ 10092c40 f i physics:dgBodyMasterList.obj
 0001:00091c60       ?SetAllocator@?$dgList@VdgBodyMasterListCell@@@@QAEXQAVdgMemoryAllocator@@@Z 10092c60 f i physics:dgBodyMasterList.obj
 0001:00091c90       ?Addtop@?$dgList@VdgBodyMasterListCell@@@@QAEPAVdgListNode@1@XZ 10092c90 f i physics:dgBodyMasterList.obj
 0001:00091d50       ?RotateToBegin@?$dgList@VdgBodyMasterListCell@@@@QAEXQAVdgListNode@1@@Z 10092d50 f i physics:dgBodyMasterList.obj
 0001:00091dc0       ?InsertAfter@?$dgList@VdgBodyMasterListCell@@@@QAEXQAVdgListNode@1@0@Z 10092dc0 f i physics:dgBodyMasterList.obj
 0001:00091f90       ?Remove@?$dgList@VdgBodyMasterListCell@@@@QAEXQAVdgListNode@1@@Z 10092f90 f i physics:dgBodyMasterList.obj
 0001:00091fe0       ??0?$dgList@VdgBodyMasterListRow@@@@QAE@QAVdgMemoryAllocator@@@Z 10092fe0 f i physics:dgBodyMasterList.obj
 0001:00092020       ??1?$dgList@VdgBodyMasterListRow@@@@UAE@XZ 10093020 f i physics:dgBodyMasterList.obj
 0001:00092040       ?Append@?$dgList@VdgBodyMasterListRow@@@@QAEPAVdgListNode@1@XZ 10093040 f i physics:dgBodyMasterList.obj
 0001:00092100       ?RotateToBegin@?$dgList@VdgBodyMasterListRow@@@@QAEXQAVdgListNode@1@@Z 10093100 f i physics:dgBodyMasterList.obj
 0001:00092170       ?Remove@?$dgList@VdgBodyMasterListRow@@@@QAEXQAVdgListNode@1@@Z 10093170 f i physics:dgBodyMasterList.obj
 0001:000921c0       ??_G?$dgList@VdgBodyMasterListCell@@@@UAEPAXI@Z 100931c0 f i physics:dgBodyMasterList.obj
 0001:000921c0       ??_E?$dgList@VdgBodyMasterListCell@@@@UAEPAXI@Z 100931c0 f i physics:dgBodyMasterList.obj
 0001:000921f0       ??_E?$dgList@VdgBodyMasterListRow@@@@UAEPAXI@Z 100931f0 f i physics:dgBodyMasterList.obj
 0001:000921f0       ??_G?$dgList@VdgBodyMasterListRow@@@@UAEPAXI@Z 100931f0 f i physics:dgBodyMasterList.obj
 0001:00092220       ??2dgListNode@?$dgList@VdgBodyMasterListCell@@@@CAPAXIQAVdgMemoryAllocator@@@Z 10093220 f i physics:dgBodyMasterList.obj
 0001:00092240       ??0dgListNode@?$dgList@VdgBodyMasterListCell@@@@AAE@QAV01@0@Z 10093240 f i physics:dgBodyMasterList.obj
 0001:000922b0       ??_GdgListNode@?$dgList@VdgBodyMasterListCell@@@@EAEPAXI@Z 100932b0 f i physics:dgBodyMasterList.obj
 0001:000922b0       ??_EdgListNode@?$dgList@VdgBodyMasterListCell@@@@EAEPAXI@Z 100932b0 f i physics:dgBodyMasterList.obj
 0001:000922e0       ??1dgListNode@?$dgList@VdgBodyMasterListCell@@@@EAE@XZ 100932e0 f i physics:dgBodyMasterList.obj
 0001:00092300       ??3dgListNode@?$dgList@VdgBodyMasterListCell@@@@CAXQAX@Z 10093300 f i physics:dgBodyMasterList.obj
 0001:00092320       ?Unlink@dgListNode@?$dgList@VdgBodyMasterListCell@@@@AAEXXZ 10093320 f i physics:dgBodyMasterList.obj
 0001:00092370       ?AddFirst@dgListNode@?$dgList@VdgBodyMasterListCell@@@@AAEXQAV12@@Z 10093370 f i physics:dgBodyMasterList.obj
 0001:00092390       ??2dgListNode@?$dgList@VdgBodyMasterListRow@@@@CAPAXIQAVdgMemoryAllocator@@@Z 10093390 f i physics:dgBodyMasterList.obj
 0001:000923b0       ??0dgListNode@?$dgList@VdgBodyMasterListRow@@@@AAE@QAV01@0@Z 100933b0 f i physics:dgBodyMasterList.obj
 0001:00092410       ??_EdgListNode@?$dgList@VdgBodyMasterListRow@@@@EAEPAXI@Z 10093410 f i physics:dgBodyMasterList.obj
 0001:00092410       ??_GdgListNode@?$dgList@VdgBodyMasterListRow@@@@EAEPAXI@Z 10093410 f i physics:dgBodyMasterList.obj
 0001:00092440       ??1dgListNode@?$dgList@VdgBodyMasterListRow@@@@EAE@XZ 10093440 f i physics:dgBodyMasterList.obj
 0001:00092460       ??3dgListNode@?$dgList@VdgBodyMasterListRow@@@@CAXQAX@Z 10093460 f i physics:dgBodyMasterList.obj
 0001:00092480       ?AddFirst@dgListNode@?$dgList@VdgBodyMasterListRow@@@@AAEXQAV12@@Z 10093480 f i physics:dgBodyMasterList.obj
 0001:000924a0       ?RemoveAll@?$dgList@VdgBodyMasterListCell@@@@QAEXXZ 100934a0 f i physics:dgBodyMasterList.obj
 0001:00092560       ?Unlink@?$dgList@VdgBodyMasterListCell@@@@QAEXQAVdgListNode@1@@Z 10093560 f i physics:dgBodyMasterList.obj
 0001:00092610       ?SanityCheck@?$dgList@VdgBodyMasterListCell@@@@QBE_NXZ 10093610 f i physics:dgBodyMasterList.obj
 0001:000927a0       ?RemoveAll@?$dgList@VdgBodyMasterListRow@@@@QAEXXZ 100937a0 f i physics:dgBodyMasterList.obj
 0001:00092860       ?Unlink@?$dgList@VdgBodyMasterListRow@@@@QAEXQAVdgListNode@1@@Z 10093860 f i physics:dgBodyMasterList.obj
 0001:00092910       ??0dgCollisionSphere@@QAE@PAVdgMemoryAllocator@@IMABVdgMatrix@@@Z 10093910 f   physics:dgCollisionSphere.obj
 0001:00092970       ??0dgCollisionSphere@@QAE@QAVdgWorld@@P6AXQAXPAXI@Z1@Z 10093970 f   physics:dgCollisionSphere.obj
 0001:00092a00       ??1dgCollisionSphere@@UAE@XZ 10093a00 f   physics:dgCollisionSphere.obj
 0001:00092a70       ?Init@dgCollisionSphere@@IAEXMPAVdgMemoryAllocator@@@Z 10093a70 f   physics:dgCollisionSphere.obj
 0001:000931a0       ?SupportVertexSimd@dgCollisionSphere@@MBE?AVdgVector@@ABV2@@Z 100941a0 f   physics:dgCollisionSphere.obj
 0001:00093230       ?SupportVertex@dgCollisionSphere@@MBE?AVdgVector@@ABV2@@Z 10094230 f   physics:dgCollisionSphere.obj
 0001:000932c0       ?TesselateTriangle@dgCollisionSphere@@IBEXHABVdgVector@@00AAHPAV2@@Z 100942c0 f   physics:dgCollisionSphere.obj
 0001:000937a0       ?SetCollisionBBox@dgCollisionSphere@@MAEXABVdgVector@@0@Z 100947a0 f   physics:dgCollisionSphere.obj
 0001:000937e0       ?CalculateSignature@dgCollisionSphere@@MBEHXZ 100947e0 f   physics:dgCollisionSphere.obj
 0001:00093860       ?CalcAABB@dgCollisionSphere@@MBEXABVdgMatrix@@AAVdgVector@@1@Z 10094860 f   physics:dgCollisionSphere.obj
 0001:00093950       ?CalculatePlaneIntersection@dgCollisionSphere@@MBEHABVdgVector@@0QAV2@@Z 10094950 f   physics:dgCollisionSphere.obj
 0001:00093a00       ?CalculatePlaneIntersectionSimd@dgCollisionSphere@@MBEHABVdgVector@@0QAV2@@Z 10094a00 f   physics:dgCollisionSphere.obj
 0001:00093ab0       ?DebugCollision@dgCollisionSphere@@MBEXABVdgMatrix@@P6AXPAXHPBMH@ZQAX@Z 10094ab0 f   physics:dgCollisionSphere.obj
 0001:00093ea0       ?GetVolume@dgCollisionPoint@@UBEMXZ 10094ea0 f   physics:dgCollisionSphere.obj
 0001:00093ee0       ?CalculateInertia@dgCollisionPoint@@UBEXAAVdgVector@@0@Z 10094ee0 f   physics:dgCollisionSphere.obj
 0001:00093f50       ?SupportVertex@dgCollisionPoint@@UBE?AVdgVector@@ABV2@@Z 10094f50 f   physics:dgCollisionSphere.obj
 0001:00093f80       ?SupportVertexSimd@dgCollisionPoint@@UBE?AVdgVector@@ABV2@@Z 10094f80 f   physics:dgCollisionSphere.obj
 0001:00093fe0       ?RayCast@dgCollisionSphere@@MBEMABVdgVector@@0AAVdgContactPoint@@P6AIQBVdgBody@@QBVdgCollision@@QAX@Z24@Z 10094fe0 f   physics:dgCollisionSphere.obj
 0001:00094200       ?RayCastSimd@dgCollisionSphere@@MBEMABVdgVector@@0AAVdgContactPoint@@P6AIQBVdgBody@@QBVdgCollision@@QAX@Z24@Z 10095200 f   physics:dgCollisionSphere.obj
 0001:00094240       ?CalculateMassProperties@dgCollisionSphere@@MBEMAAVdgVector@@00@Z 10095240 f   physics:dgCollisionSphere.obj
 0001:000943a0       ?GetCollisionInfo@dgCollisionSphere@@MBEXPAVdgCollisionInfo@@@Z 100953a0 f   physics:dgCollisionSphere.obj
 0001:00094410       ?Serialize@dgCollisionSphere@@MBEXP6AXQAXQBXI@Z0@Z 10095410 f   physics:dgCollisionSphere.obj
 0001:00094490       ??_EdgCollisionSphere@@UAEPAXI@Z 10095490 f i physics:dgCollisionSphere.obj
 0001:00094490       ??_GdgCollisionSphere@@UAEPAXI@Z 10095490 f i physics:dgCollisionSphere.obj
 0001:000944c0       ??0dgCollisionConvex@@IAE@QAVdgMemoryAllocator@@IABVdgMatrix@@W4dgCollisionID@@@Z 100954c0 f   physics:dgCollisionConvex.obj
 0001:00094660       ??0dgCollisionConvex@@IAE@QAVdgWorld@@P6AXQAXPAXI@Z1@Z 10095660 f   physics:dgCollisionConvex.obj
 0001:000947e0       ??1dgCollisionConvex@@MAE@XZ 100957e0 f   physics:dgCollisionConvex.obj
 0001:00094840       ?SerializeLow@dgCollisionConvex@@MBEXP6AXQAXQBXI@Z0@Z 10095840 f   physics:dgCollisionConvex.obj
 0001:00094890       ?GetUserData@dgCollisionConvex@@MBEPAXXZ 10095890 f   physics:dgCollisionConvex.obj
 0001:000948b0       ?SetUserData@dgCollisionConvex@@MAEXQAX@Z 100958b0 f   physics:dgCollisionConvex.obj
 0001:000948d0       ?SetVolumeAndCG@dgCollisionConvex@@IAEXXZ 100958d0 f   physics:dgCollisionConvex.obj
 0001:000950e0       ?GetDiscretedAngleStep@dgCollisionConvex@@IBEMM@Z 100960e0 f   physics:dgCollisionConvex.obj
 0001:00095140       ?SanityCheck@dgCollisionConvex@@IBE_NAAVdgPolyhedra@@@Z 10096140 f   physics:dgCollisionConvex.obj
 0001:00095460       ?DebugCollision@dgCollisionConvex@@MBEXABVdgMatrix@@P6AXPAXHPBMH@ZQAX@Z 10096460 f   physics:dgCollisionConvex.obj
 0001:00095650       ?CalcAABB@dgCollisionConvex@@UBEXABVdgMatrix@@AAVdgVector@@1@Z 10096650 f   physics:dgCollisionConvex.obj
 0001:00095900       ?CalcAABBSimd@dgCollisionConvex@@UBEXABVdgMatrix@@AAVdgVector@@1@Z 10096900 f   physics:dgCollisionConvex.obj
 0001:00095a60       ?GetSupportEdge@dgCollisionConvex@@IBEPAVdgConvexSimplexEdge@@ABVdgVector@@@Z 10096a60 f   physics:dgCollisionConvex.obj
 0001:00095b50       ?CalculateInertia@dgCollisionConvex@@CAXPAXHPBMH@Z 10096b50 f   physics:dgCollisionConvex.obj
 0001:00095b70       ?CalculateMassProperties@dgCollisionConvex@@MBEMAAVdgVector@@00@Z 10096b70 f   physics:dgCollisionConvex.obj
 0001:00095bc0       ?CalculateInertia@dgCollisionConvex@@EBEXAAVdgVector@@0@Z 10096bc0 f   physics:dgCollisionConvex.obj
 0001:00095ec0       ?GetVolume@dgCollisionConvex@@EBEMXZ 10096ec0 f   physics:dgCollisionConvex.obj
 0001:00095f60       ?GetBoxMinRadius@dgCollisionConvex@@EBEMXZ 10096f60 f   physics:dgCollisionConvex.obj
 0001:00095f80       ?GetBoxMaxRadius@dgCollisionConvex@@EBEMXZ 10096f80 f   physics:dgCollisionConvex.obj
 0001:00095fa0       ?RayCastClosestFace@dgCollisionConvex@@ABEHPAVdgVector@@ABV2@AAM@Z 10096fa0 f   physics:dgCollisionConvex.obj
 0001:00096650       ?RayHitBox@dgCollisionConvex@@ABE_NABVdgVector@@0@Z 10097650 f   physics:dgCollisionConvex.obj
 0001:00096850       ?CalculateVolumeIntegral@dgCollisionConvex@@EBE?AVdgVector@@ABVdgMatrix@@P6AIPAX10AAVdgPlane@@@ZQAX@Z 10097850 f   physics:dgCollisionConvex.obj
 0001:00096960       ?CalculateVolumeIntegral@dgCollisionConvex@@IBE?AVdgVector@@ABVdgPlane@@@Z 10097960 f   physics:dgCollisionConvex.obj
 0001:00097270       ?SupportVertex@dgCollisionConvex@@UBE?AVdgVector@@ABV2@@Z 10098270 f   physics:dgCollisionConvex.obj
 0001:00097510       ?SupportVertexSimd@dgCollisionConvex@@UBE?AVdgVector@@ABV2@@Z 10098510 f   physics:dgCollisionConvex.obj
 0001:00097cb0       ?SanityCheck@dgCollisionConvex@@IBE_NHABVdgVector@@QAV2@@Z 10098cb0 f   physics:dgCollisionConvex.obj
 0001:00098090       ?SimplifyClipPolygon@dgCollisionConvex@@ABEHHABVdgVector@@QAV2@@Z 10099090 f   physics:dgCollisionConvex.obj
 0001:000983e0       ?RectifyConvexSlice@dgCollisionConvex@@IBEHHABVdgVector@@QAV2@@Z 100993e0 f   physics:dgCollisionConvex.obj
 0001:00098930       ?CalculatePlaneIntersectionSimd@dgCollisionConvex@@UBEHABVdgVector@@0QAV2@@Z 10099930 f   physics:dgCollisionConvex.obj
 0001:00099a70       ?CalculatePlaneIntersection@dgCollisionConvex@@UBEHABVdgVector@@0QAV2@@Z 1009aa70 f   physics:dgCollisionConvex.obj
 0001:0009a420       ?RayCast@dgCollisionConvex@@UBEMABVdgVector@@0AAVdgContactPoint@@P6AIQBVdgBody@@QBVdgCollision@@QAX@Z24@Z 1009b420 f   physics:dgCollisionConvex.obj
 0001:0009b2e0       ?RayCastSimd@dgCollisionConvex@@UBEMABVdgVector@@0AAVdgContactPoint@@P6AIQBVdgBody@@QBVdgCollision@@QAX@Z24@Z 1009c2e0 f   physics:dgCollisionConvex.obj
 0001:0009b320       ?IsTriggerVolume@dgCollisionConvex@@UBE_NXZ 1009c320 f   physics:dgCollisionConvex.obj
 0001:0009b340       ?SetAsTriggerVolume@dgCollisionConvex@@MAEX_N@Z 1009c340 f   physics:dgCollisionConvex.obj
 0001:0009b370       ?OOBBTest@dgCollisionConvex@@UBE_NABVdgMatrix@@QBV1@QAX@Z 1009c370 f   physics:dgCollisionConvex.obj
 0001:0009b520       ??_GdgCollisionConvex@@MAEPAXI@Z 1009c520 f i physics:dgCollisionConvex.obj
 0001:0009b520       ??_EdgCollisionConvex@@MAEPAXI@Z 1009c520 f i physics:dgCollisionConvex.obj
 0001:0009b550       ?UntransformPlane@dgMatrix@@QBE?AVdgPlane@@ABV2@@Z 1009c550 f i physics:dgCollisionConvex.obj
 0001:0009b5b0       ??1?$dgUpHeap@HM@@QAE@XZ   1009c5b0 f i physics:dgCollisionConvex.obj
 0001:0009b5d0       ?TransformVectorSimd@dgMatrix@@QBE?AVdgVector@@ABV2@@Z 1009c5d0 f i physics:dgCollisionConvex.obj
 0001:0009b710       ??$GetMin@M@@YAMMMM@Z      1009c710 f i physics:dgCollisionConvex.obj
 0001:0009b740       ??$Swap@VdgVector@@@@YAXAAVdgVector@@0@Z 1009c740 f i physics:dgCollisionConvex.obj
 0001:0009b7b0       ??1?$dgHeapBase@HM@@IAE@XZ 1009c7b0 f i physics:dgCollisionConvex.obj
 0001:0009b7e0       ?Flush@?$dgHeapBase@HM@@QAEXXZ 1009c7e0 f i physics:dgCollisionConvex.obj
 0001:0009b800       ?GetCount@?$dgHeapBase@HM@@QBEHXZ 1009c800 f i physics:dgCollisionConvex.obj
 0001:0009b810       ??A?$dgHeapBase@HM@@QBEABHH@Z 1009c810 f i physics:dgCollisionConvex.obj
 0001:0009b860       ??0?$dgUpHeap@HM@@QAE@QBXH@Z 1009c860 f i physics:dgCollisionConvex.obj
 0001:0009b880       ?Pop@?$dgUpHeap@HM@@QAEXXZ 1009c880 f i physics:dgCollisionConvex.obj
 0001:0009b980       ?Push@?$dgUpHeap@HM@@QAEXAAHM@Z 1009c980 f i physics:dgCollisionConvex.obj
 0001:0009ba90       ??0?$dgHeapBase@HM@@IAE@QBXH@Z 1009ca90 f i physics:dgCollisionConvex.obj
 0001:0009bad0       ??0dgCollisionNull@@QAE@QAVdgMemoryAllocator@@I@Z 1009cad0 f   physics:dgCollisionNull.obj
 0001:0009bb10       ??0dgCollisionNull@@QAE@QAVdgWorld@@P6AXQAXPAXI@Z1@Z 1009cb10 f   physics:dgCollisionNull.obj
 0001:0009bb50       ?Serialize@dgCollisionNull@@EBEXP6AXQAXQBXI@Z0@Z 1009cb50 f   physics:dgCollisionNull.obj
 0001:0009bb80       ??1dgCollisionNull@@UAE@XZ 1009cb80 f   physics:dgCollisionNull.obj
 0001:0009bba0       ?SetCollisionBBox@dgCollisionNull@@EAEXABVdgVector@@0@Z 1009cba0 f   physics:dgCollisionNull.obj
 0001:0009bbd0       ?DebugCollision@dgCollisionNull@@MBEXABVdgMatrix@@P6AXPAXHPBMH@ZQAX@Z 1009cbd0 f   physics:dgCollisionNull.obj
 0001:0009bbe0       ?CalculateSignature@dgCollisionNull@@EBEHXZ 1009cbe0 f   physics:dgCollisionNull.obj
 0001:0009bc00       ?CalcAABB@dgCollisionNull@@MBEXABVdgMatrix@@AAVdgVector@@1@Z 1009cc00 f   physics:dgCollisionNull.obj
 0001:0009bcc0       ?CalcAABBSimd@dgCollisionNull@@MBEXABVdgMatrix@@AAVdgVector@@1@Z 1009ccc0 f   physics:dgCollisionNull.obj
 0001:0009bcf0       ?SupportVertex@dgCollisionNull@@MBE?AVdgVector@@ABV2@@Z 1009ccf0 f   physics:dgCollisionNull.obj
 0001:0009bd50       ?SupportVertexSimd@dgCollisionNull@@MBE?AVdgVector@@ABV2@@Z 1009cd50 f   physics:dgCollisionNull.obj
 0001:0009bdb0       ?GetVolume@dgCollisionNull@@MBEMXZ 1009cdb0 f   physics:dgCollisionNull.obj
 0001:0009bdc0       ?RayCast@dgCollisionNull@@MBEMABVdgVector@@0AAVdgContactPoint@@P6AIQBVdgBody@@QBVdgCollision@@QAX@Z24@Z 1009cdc0 f   physics:dgCollisionNull.obj
 0001:0009bde0       ?RayCastSimd@dgCollisionNull@@MBEMABVdgVector@@0AAVdgContactPoint@@P6AIQBVdgBody@@QBVdgCollision@@QAX@Z24@Z 1009cde0 f   physics:dgCollisionNull.obj
 0001:0009be00       ?CalculateVolumeIntegral@dgCollisionNull@@MBE?AVdgVector@@ABVdgMatrix@@P6AIPAX10AAVdgPlane@@@ZQAX@Z 1009ce00 f   physics:dgCollisionNull.obj
 0001:0009be60       ?CalculateInertia@dgCollisionNull@@MBEXAAVdgVector@@0@Z 1009ce60 f   physics:dgCollisionNull.obj
 0001:0009bea0       ??_EdgCollisionNull@@UAEPAXI@Z 1009cea0 f i physics:dgCollisionNull.obj
 0001:0009bea0       ??_GdgCollisionNull@@UAEPAXI@Z 1009cea0 f i physics:dgCollisionNull.obj
 0001:0009bed0       ??0dgCollisionBox@@QAE@QAVdgMemoryAllocator@@IMMMABVdgMatrix@@@Z 1009ced0 f   physics:dgCollisionBox.obj
 0001:0009bf80       ??0dgCollisionBox@@QAE@QAVdgWorld@@P6AXQAXPAXI@Z1@Z 1009cf80 f   physics:dgCollisionBox.obj
 0001:0009c050       ?Init@dgCollisionBox@@IAEXMMM@Z 1009d050 f   physics:dgCollisionBox.obj
 0001:0009c670       ??1dgCollisionBox@@UAE@XZ  1009d670 f   physics:dgCollisionBox.obj
 0001:0009c6b0       ?SetCollisionBBox@dgCollisionBox@@MAEXABVdgVector@@0@Z 1009d6b0 f   physics:dgCollisionBox.obj
 0001:0009c6f0       ?CalculateSignature@dgCollisionBox@@MBEHXZ 1009d6f0 f   physics:dgCollisionBox.obj
 0001:0009c7a0       ?SupportVertexSimd@dgCollisionBox@@MBE?AVdgVector@@ABV2@@Z 1009d7a0 f   physics:dgCollisionBox.obj
 0001:0009c860       ?SupportVertex@dgCollisionBox@@MBE?AVdgVector@@ABV2@@Z 1009d860 f   physics:dgCollisionBox.obj
 0001:0009c970       ?CalcAABB@dgCollisionBox@@MBEXABVdgMatrix@@AAVdgVector@@1@Z 1009d970 f   physics:dgCollisionBox.obj
 0001:0009cc00       ?CalcAABBSimd@dgCollisionBox@@MBEXABVdgMatrix@@AAVdgVector@@1@Z 1009dc00 f   physics:dgCollisionBox.obj
 0001:0009cd80       ?RayCast@dgCollisionBox@@MBEMABVdgVector@@0AAVdgContactPoint@@P6AIQBVdgBody@@QBVdgCollision@@QAX@Z24@Z 1009dd80 f   physics:dgCollisionBox.obj
 0001:0009d040       ?RayCastSimd@dgCollisionBox@@MBEMABVdgVector@@0AAVdgContactPoint@@P6AIQBVdgBody@@QBVdgCollision@@QAX@Z24@Z 1009e040 f   physics:dgCollisionBox.obj
 0001:0009d080       ?CalculateMassProperties@dgCollisionBox@@MBEMAAVdgVector@@00@Z 1009e080 f   physics:dgCollisionBox.obj
 0001:0009d3d0       ?SetBreakImpulse@dgCollisionBox@@MAEXM@Z 1009e3d0 f   physics:dgCollisionBox.obj
 0001:0009d3f0       ?GetBreakImpulse@dgCollisionBox@@MBEMXZ 1009e3f0 f   physics:dgCollisionBox.obj
 0001:0009d410       ?CalculatePlaneIntersection@dgCollisionBox@@MBEHABVdgVector@@0QAV2@@Z 1009e410 f   physics:dgCollisionBox.obj
 0001:0009d8a0       ?CalculatePlaneIntersectionSimd@dgCollisionBox@@MBEHABVdgVector@@0QAV2@@Z 1009e8a0 f   physics:dgCollisionBox.obj
 0001:0009e0f0       ?GetCollisionInfo@dgCollisionBox@@MBEXPAVdgCollisionInfo@@@Z 1009f0f0 f   physics:dgCollisionBox.obj
 0001:0009e160       ?Serialize@dgCollisionBox@@MBEXP6AXQAXQBXI@Z0@Z 1009f160 f   physics:dgCollisionBox.obj
 0001:0009e1e0       ??_EdgCollisionBox@@UAEPAXI@Z 1009f1e0 f i physics:dgCollisionBox.obj
 0001:0009e1e0       ??_GdgCollisionBox@@UAEPAXI@Z 1009f1e0 f i physics:dgCollisionBox.obj
 0001:0009e210       ??0dgCollision@@IAE@QAVdgMemoryAllocator@@IABVdgMatrix@@W4dgCollisionID@@@Z 1009f210 f   physics:dgCollision.obj
 0001:0009e280       ??0dgCollision@@IAE@QAVdgWorld@@P6AXQAXPAXI@Z1@Z 1009f280 f   physics:dgCollision.obj
 0001:0009e310       ??1dgCollision@@MAE@XZ     1009f310 f   physics:dgCollision.obj
 0001:0009e330       ?Quantize@dgCollision@@SAIM@Z 1009f330 f   physics:dgCollision.obj
 0001:0009e360       ?MakeCRC@dgCollision@@SAIPAXH@Z 1009f360 f   physics:dgCollision.obj
 0001:0009e380       ?SetOffsetMatrix@dgCollision@@QAEXABVdgMatrix@@@Z 1009f380 f   physics:dgCollision.obj
 0001:0009e490       ?GetUserData@dgCollision@@UBEPAXXZ 1009f490 f   physics:dgCollision.obj
 0001:0009e4a0       ?SetUserData@dgCollision@@UAEXQAX@Z 1009f4a0 f   physics:dgCollision.obj
 0001:0009e4b0       ?GetCollisionInfo@dgCollision@@UBEXPAVdgCollisionInfo@@@Z 1009f4b0 f   physics:dgCollision.obj
 0001:0009e500       ?SerializeLow@dgCollision@@UBEXP6AXQAXQBXI@Z0@Z 1009f500 f   physics:dgCollision.obj
 0001:0009e560       ?RayCastSimd@dgCollision@@UBEMABVdgVector@@0AAVdgContactPoint@@P6AIQBVdgBody@@QBV1@QAX@Z24@Z 1009f560 f i physics:dgCollision.obj
 0001:0009e5a0       ??_EdgCollision@@MAEPAXI@Z 1009f5a0 f i physics:dgCollision.obj
 0001:0009e5a0       ??_GdgCollision@@MAEPAXI@Z 1009f5a0 f i physics:dgCollision.obj
 0001:0009e5d0       ??0dgCollisionEllipse@@QAE@QAVdgMemoryAllocator@@IMMMABVdgMatrix@@@Z 1009f5d0 f   physics:dgCollisionEllipse.obj
 0001:0009e690       ??0dgCollisionEllipse@@QAE@QAVdgWorld@@P6AXQAXPAXI@Z1@Z 1009f690 f   physics:dgCollisionEllipse.obj
 0001:0009e770       ??1dgCollisionEllipse@@UAE@XZ 1009f770 f   physics:dgCollisionEllipse.obj
 0001:0009e790       ?CalculateSignature@dgCollisionEllipse@@EBEHXZ 1009f790 f   physics:dgCollisionEllipse.obj
 0001:0009e840       ?SetCollisionBBox@dgCollisionEllipse@@EAEXABVdgVector@@0@Z 1009f840 f   physics:dgCollisionEllipse.obj
 0001:0009e870       ?CalcAABB@dgCollisionEllipse@@MBEXABVdgMatrix@@AAVdgVector@@1@Z 1009f870 f   physics:dgCollisionEllipse.obj
 0001:0009e990       ?CalcAABBSimd@dgCollisionEllipse@@MBEXABVdgMatrix@@AAVdgVector@@1@Z 1009f990 f   physics:dgCollisionEllipse.obj
 0001:0009eab0       ?SupportVertex@dgCollisionEllipse@@MBE?AVdgVector@@ABV2@@Z 1009fab0 f   physics:dgCollisionEllipse.obj
 0001:0009ec20       ?SupportVertexSimd@dgCollisionEllipse@@MBE?AVdgVector@@ABV2@@Z 1009fc20 f   physics:dgCollisionEllipse.obj
 0001:0009eef0       ?CalculatePlaneIntersection@dgCollisionEllipse@@EBEHABVdgVector@@0QAV2@@Z 1009fef0 f   physics:dgCollisionEllipse.obj
 0001:0009f070       ?CalculatePlaneIntersectionSimd@dgCollisionEllipse@@EBEHABVdgVector@@0QAV2@@Z 100a0070 f   physics:dgCollisionEllipse.obj
 0001:0009f1f0       ?DebugCollision@dgCollisionEllipse@@MBEXABVdgMatrix@@P6AXPAXHPBMH@ZQAX@Z 100a01f0 f   physics:dgCollisionEllipse.obj
 0001:0009f350       ?RayCast@dgCollisionEllipse@@MBEMABVdgVector@@0AAVdgContactPoint@@P6AIQBVdgBody@@QBVdgCollision@@QAX@Z24@Z 100a0350 f   physics:dgCollisionEllipse.obj
 0001:0009f470       ?RayCastSimd@dgCollisionEllipse@@MBEMABVdgVector@@0AAVdgContactPoint@@P6AIQBVdgBody@@QBVdgCollision@@QAX@Z24@Z 100a0470 f   physics:dgCollisionEllipse.obj
 0001:0009f4b0       ?CalculateMassProperties@dgCollisionEllipse@@EBEMAAVdgVector@@00@Z 100a04b0 f   physics:dgCollisionEllipse.obj
 0001:0009f4e0       ?GetCollisionInfo@dgCollisionEllipse@@EBEXPAVdgCollisionInfo@@@Z 100a04e0 f   physics:dgCollisionEllipse.obj
 0001:0009f550       ?Serialize@dgCollisionEllipse@@EBEXP6AXQAXQBXI@Z0@Z 100a0550 f   physics:dgCollisionEllipse.obj
 0001:0009f590       ??_GdgCollisionEllipse@@UAEPAXI@Z 100a0590 f i physics:dgCollisionEllipse.obj
 0001:0009f590       ??_EdgCollisionEllipse@@UAEPAXI@Z 100a0590 f i physics:dgCollisionEllipse.obj
 0001:0009f5c0       ??0dgCollisionCapsule@@QAE@QAVdgMemoryAllocator@@IMMABVdgMatrix@@@Z 100a05c0 f   physics:dgCollisionCapsule.obj
 0001:0009f640       ??0dgCollisionCapsule@@QAE@QAVdgWorld@@P6AXQAXPAXI@Z1@Z 100a0640 f   physics:dgCollisionCapsule.obj
 0001:0009f6f0       ??1dgCollisionCapsule@@UAE@XZ 100a06f0 f   physics:dgCollisionCapsule.obj
 0001:0009f760       ?Init@dgCollisionCapsule@@AAEXMM@Z 100a0760 f   physics:dgCollisionCapsule.obj
 0001:0009ff90       ?CalculateSignature@dgCollisionCapsule@@EBEHXZ 100a0f90 f   physics:dgCollisionCapsule.obj
 0001:000a0020       ?TesselateTriangle@dgCollisionCapsule@@ABEXHMABVdgVector@@00AAHPAV2@@Z 100a1020 f   physics:dgCollisionCapsule.obj
 0001:000a0610       ?DebugCollision@dgCollisionCapsule@@EBEXABVdgMatrix@@P6AXPAXHPBMH@ZQAX@Z 100a1610 f   physics:dgCollisionCapsule.obj
 0001:000a0bf0       ?SetCollisionBBox@dgCollisionCapsule@@EAEXABVdgVector@@0@Z 100a1bf0 f   physics:dgCollisionCapsule.obj
 0001:000a0c30       ?SupportVertexSimd@dgCollisionCapsule@@EBE?AVdgVector@@ABV2@@Z 100a1c30 f   physics:dgCollisionCapsule.obj
 0001:000a0d10       ?SupportVertex@dgCollisionCapsule@@EBE?AVdgVector@@ABV2@@Z 100a1d10 f   physics:dgCollisionCapsule.obj
 0001:000a0df0       ?RayCast@dgCollisionCapsule@@EBEMABVdgVector@@0AAVdgContactPoint@@P6AIQBVdgBody@@QBVdgCollision@@QAX@Z24@Z 100a1df0 f   physics:dgCollisionCapsule.obj
 0001:000a1ac0       ?RayCastSimd@dgCollisionCapsule@@EBEMABVdgVector@@0AAVdgContactPoint@@P6AIQBVdgBody@@QBVdgCollision@@QAX@Z24@Z 100a2ac0 f   physics:dgCollisionCapsule.obj
 0001:000a1b00       ?CalculateMassProperties@dgCollisionCapsule@@EBEMAAVdgVector@@00@Z 100a2b00 f   physics:dgCollisionCapsule.obj
 0001:000a1e50       ?CalculatePlaneIntersectionSimd@dgCollisionCapsule@@EBEHABVdgVector@@0QAV2@@Z 100a2e50 f   physics:dgCollisionCapsule.obj
 0001:000a1e80       ?CalculatePlaneIntersection@dgCollisionCapsule@@EBEHABVdgVector@@0QAV2@@Z 100a2e80 f   physics:dgCollisionCapsule.obj
 0001:000a2ee0       ?GetCollisionInfo@dgCollisionCapsule@@EBEXPAVdgCollisionInfo@@@Z 100a3ee0 f   physics:dgCollisionCapsule.obj
 0001:000a2f60       ?Serialize@dgCollisionCapsule@@EBEXP6AXQAXQBXI@Z0@Z 100a3f60 f   physics:dgCollisionCapsule.obj
 0001:000a2ff0       ??_GdgCollisionCapsule@@UAEPAXI@Z 100a3ff0 f i physics:dgCollisionCapsule.obj
 0001:000a2ff0       ??_EdgCollisionCapsule@@UAEPAXI@Z 100a3ff0 f i physics:dgCollisionCapsule.obj
 0001:000a3020       ??0dgCollisionCone@@QAE@QAVdgMemoryAllocator@@IMMABVdgMatrix@@@Z 100a4020 f   physics:dgCollisionCone.obj
 0001:000a3080       ??0dgCollisionCone@@QAE@QAVdgWorld@@P6AXQAXPAXI@Z1@Z 100a4080 f   physics:dgCollisionCone.obj
 0001:000a3110       ??1dgCollisionCone@@UAE@XZ 100a4110 f   physics:dgCollisionCone.obj
 0001:000a3180       ?Init@dgCollisionCone@@AAEXMM@Z 100a4180 f   physics:dgCollisionCone.obj
 0001:000a3640       ?CalculateSignature@dgCollisionCone@@EBEHXZ 100a4640 f   physics:dgCollisionCone.obj
 0001:000a36d0       ?DebugCollision@dgCollisionCone@@EBEXABVdgMatrix@@P6AXPAXHPBMH@ZQAX@Z 100a46d0 f   physics:dgCollisionCone.obj
 0001:000a3920       ?SetCollisionBBox@dgCollisionCone@@EAEXABVdgVector@@0@Z 100a4920 f   physics:dgCollisionCone.obj
 0001:000a3960       ?SupportVertexSimd@dgCollisionCone@@EBE?AVdgVector@@ABV2@@Z 100a4960 f   physics:dgCollisionCone.obj
 0001:000a3990       ?SupportVertex@dgCollisionCone@@EBE?AVdgVector@@ABV2@@Z 100a4990 f   physics:dgCollisionCone.obj
 0001:000a3af0       ?CalculateMassProperties@dgCollisionCone@@EBEMAAVdgVector@@00@Z 100a4af0 f   physics:dgCollisionCone.obj
 0001:000a3e30       ?CalculatePlaneIntersection@dgCollisionCone@@EBEHABVdgVector@@0QAV2@@Z 100a4e30 f   physics:dgCollisionCone.obj
 0001:000a4050       ?CalculatePlaneIntersectionSimd@dgCollisionCone@@EBEHABVdgVector@@0QAV2@@Z 100a5050 f   physics:dgCollisionCone.obj
 0001:000a4370       ?GetCollisionInfo@dgCollisionCone@@EBEXPAVdgCollisionInfo@@@Z 100a5370 f   physics:dgCollisionCone.obj
 0001:000a43d0       ?Serialize@dgCollisionCone@@EBEXP6AXQAXQBXI@Z0@Z 100a53d0 f   physics:dgCollisionCone.obj
 0001:000a4450       ??_GdgCollisionCone@@UAEPAXI@Z 100a5450 f i physics:dgCollisionCone.obj
 0001:000a4450       ??_EdgCollisionCone@@UAEPAXI@Z 100a5450 f i physics:dgCollisionCone.obj
 0001:000a4480       ??0dgCollisionCylinder@@QAE@QAVdgMemoryAllocator@@IMMABVdgMatrix@@@Z 100a5480 f   physics:dgCollisionCylinder.obj
 0001:000a44e0       ??0dgCollisionCylinder@@QAE@QAVdgWorld@@P6AXQAXPAXI@Z1@Z 100a54e0 f   physics:dgCollisionCylinder.obj
 0001:000a4570       ?Init@dgCollisionCylinder@@AAEXMM@Z 100a5570 f   physics:dgCollisionCylinder.obj
 0001:000a4a40       ??1dgCollisionCylinder@@UAE@XZ 100a5a40 f   physics:dgCollisionCylinder.obj
 0001:000a4ab0       ?CalculateSignature@dgCollisionCylinder@@EBEHXZ 100a5ab0 f   physics:dgCollisionCylinder.obj
 0001:000a4b40       ?SetCollisionBBox@dgCollisionCylinder@@EAEXABVdgVector@@0@Z 100a5b40 f   physics:dgCollisionCylinder.obj
 0001:000a4b80       ?DebugCollision@dgCollisionCylinder@@EBEXABVdgMatrix@@P6AXPAXHPBMH@ZQAX@Z 100a5b80 f   physics:dgCollisionCylinder.obj
 0001:000a4e70       ?SupportVertexSimd@dgCollisionCylinder@@EBE?AVdgVector@@ABV2@@Z 100a5e70 f   physics:dgCollisionCylinder.obj
 0001:000a4ea0       ?SupportVertex@dgCollisionCylinder@@EBE?AVdgVector@@ABV2@@Z 100a5ea0 f   physics:dgCollisionCylinder.obj
 0001:000a4fd0       ?CalculateMassProperties@dgCollisionCylinder@@EBEMAAVdgVector@@00@Z 100a5fd0 f   physics:dgCollisionCylinder.obj
 0001:000a52a0       ?CalculatePlaneIntersection@dgCollisionCylinder@@EBEHABVdgVector@@0QAV2@@Z 100a62a0 f   physics:dgCollisionCylinder.obj
 0001:000a54c0       ?CalculatePlaneIntersectionSimd@dgCollisionCylinder@@EBEHABVdgVector@@0QAV2@@Z 100a64c0 f   physics:dgCollisionCylinder.obj
 0001:000a57e0       ?RayCast@dgCollisionCylinder@@EBEMABVdgVector@@0AAVdgContactPoint@@P6AIQBVdgBody@@QBVdgCollision@@QAX@Z24@Z 100a67e0 f   physics:dgCollisionCylinder.obj
 0001:000a5f60       ?RayCastSimd@dgCollisionCylinder@@EBEMABVdgVector@@0AAVdgContactPoint@@P6AIQBVdgBody@@QBVdgCollision@@QAX@Z24@Z 100a6f60 f   physics:dgCollisionCylinder.obj
 0001:000a5fa0       ?GetCollisionInfo@dgCollisionCylinder@@EBEXPAVdgCollisionInfo@@@Z 100a6fa0 f   physics:dgCollisionCylinder.obj
 0001:000a6010       ?Serialize@dgCollisionCylinder@@EBEXP6AXQAXQBXI@Z0@Z 100a7010 f   physics:dgCollisionCylinder.obj
 0001:000a60a0       ??_GdgCollisionCylinder@@UAEPAXI@Z 100a70a0 f i physics:dgCollisionCylinder.obj
 0001:000a60a0       ??_EdgCollisionCylinder@@UAEPAXI@Z 100a70a0 f i physics:dgCollisionCylinder.obj
 0001:000a60d0       ??0dgCollisionChamferCylinder@@QAE@QAVdgMemoryAllocator@@IMMABVdgMatrix@@@Z 100a70d0 f   physics:dgCollisionChamferCylinder.obj
 0001:000a6150       ??0dgCollisionChamferCylinder@@QAE@QAVdgWorld@@P6AXQAXPAXI@Z1@Z 100a7150 f   physics:dgCollisionChamferCylinder.obj
 0001:000a6200       ??1dgCollisionChamferCylinder@@UAE@XZ 100a7200 f   physics:dgCollisionChamferCylinder.obj
 0001:000a6270       ?Init@dgCollisionChamferCylinder@@IAEXMM@Z 100a7270 f   physics:dgCollisionChamferCylinder.obj
 0001:000a6a80       ?DebugCollision@dgCollisionChamferCylinder@@MBEXABVdgMatrix@@P6AXPAXHPBMH@ZQAX@Z 100a7a80 f   physics:dgCollisionChamferCylinder.obj
 0001:000a6ea0       ?CalculateSignature@dgCollisionChamferCylinder@@MBEHXZ 100a7ea0 f   physics:dgCollisionChamferCylinder.obj
 0001:000a6f30       ?SetCollisionBBox@dgCollisionChamferCylinder@@MAEXABVdgVector@@0@Z 100a7f30 f   physics:dgCollisionChamferCylinder.obj
 0001:000a6f70       ?SupportVertexSimd@dgCollisionChamferCylinder@@MBE?AVdgVector@@ABV2@@Z 100a7f70 f   physics:dgCollisionChamferCylinder.obj
 0001:000a6fa0       ?SupportVertex@dgCollisionChamferCylinder@@MBE?AVdgVector@@ABV2@@Z 100a7fa0 f   physics:dgCollisionChamferCylinder.obj
 0001:000a71c0       ?RayCast@dgCollisionChamferCylinder@@MBEMABVdgVector@@0AAVdgContactPoint@@P6AIQBVdgBody@@QBVdgCollision@@QAX@Z24@Z 100a81c0 f   physics:dgCollisionChamferCylinder.obj
 0001:000a7440       ?RayCastSimd@dgCollisionChamferCylinder@@MBEMABVdgVector@@0AAVdgContactPoint@@P6AIQBVdgBody@@QBVdgCollision@@QAX@Z24@Z 100a8440 f   physics:dgCollisionChamferCylinder.obj
 0001:000a76c0       ?CalculatePlaneIntersectionSimd@dgCollisionChamferCylinder@@MBEHABVdgVector@@0QAV2@@Z 100a86c0 f   physics:dgCollisionChamferCylinder.obj
 0001:000a76f0       ?CalculatePlaneIntersection@dgCollisionChamferCylinder@@MBEHABVdgVector@@0QAV2@@Z 100a86f0 f   physics:dgCollisionChamferCylinder.obj
 0001:000a8370       ?GetCollisionInfo@dgCollisionChamferCylinder@@MBEXPAVdgCollisionInfo@@@Z 100a9370 f   physics:dgCollisionChamferCylinder.obj
 0001:000a83e0       ?Serialize@dgCollisionChamferCylinder@@MBEXP6AXQAXQBXI@Z0@Z 100a93e0 f   physics:dgCollisionChamferCylinder.obj
 0001:000a8470       ??_EdgCollisionChamferCylinder@@UAEPAXI@Z 100a9470 f i physics:dgCollisionChamferCylinder.obj
 0001:000a8470       ??_GdgCollisionChamferCylinder@@UAEPAXI@Z 100a9470 f i physics:dgCollisionChamferCylinder.obj
 0001:000a84a0       ??0dgCollisionConvexModifier@@QAE@PAVdgCollisionConvex@@PAVdgWorld@@@Z 100a94a0 f   physics:dgCollisionConvexModifier.obj
 0001:000a8580       ??0dgCollisionConvexModifier@@QAE@QAVdgWorld@@P6AXQAXPAXI@Z1@Z 100a9580 f   physics:dgCollisionConvexModifier.obj
 0001:000a8690       ??1dgCollisionConvexModifier@@UAE@XZ 100a9690 f   physics:dgCollisionConvexModifier.obj
 0001:000a86d0       ?ModifierGetMatrix@dgCollisionConvexModifier@@UBE?AVdgMatrix@@XZ 100a96d0 f   physics:dgCollisionConvexModifier.obj
 0001:000a8740       ?GetBoxMinRadius@dgCollisionConvexModifier@@EBEMXZ 100a9740 f   physics:dgCollisionConvexModifier.obj
 0001:000a8770       ?GetBoxMaxRadius@dgCollisionConvexModifier@@EBEMXZ 100a9770 f   physics:dgCollisionConvexModifier.obj
 0001:000a87a0       ?ModifierSetMatrix@dgCollisionConvexModifier@@UAEXABVdgMatrix@@@Z 100a97a0 f   physics:dgCollisionConvexModifier.obj
 0001:000a8df0       ?CalculateSignature@dgCollisionConvexModifier@@EBEHXZ 100a9df0 f   physics:dgCollisionConvexModifier.obj
 0001:000a8e00       ?SetCollisionBBox@dgCollisionConvexModifier@@EAEXABVdgVector@@0@Z 100a9e00 f   physics:dgCollisionConvexModifier.obj
 0001:000a8e40       ?CalcAABB@dgCollisionConvexModifier@@MBEXABVdgMatrix@@AAVdgVector@@1@Z 100a9e40 f   physics:dgCollisionConvexModifier.obj
 0001:000a8fc0       ?CalcAABBSimd@dgCollisionConvexModifier@@MBEXABVdgMatrix@@AAVdgVector@@1@Z 100a9fc0 f   physics:dgCollisionConvexModifier.obj
 0001:000a9140       ?SupportVertex@dgCollisionConvexModifier@@MBE?AVdgVector@@ABV2@@Z 100aa140 f   physics:dgCollisionConvexModifier.obj
 0001:000a92b0       ?SupportVertexSimd@dgCollisionConvexModifier@@MBE?AVdgVector@@ABV2@@Z 100aa2b0 f   physics:dgCollisionConvexModifier.obj
 0001:000a9550       ?CalculatePlaneIntersection@dgCollisionConvexModifier@@EBEHABVdgVector@@0QAV2@@Z 100aa550 f   physics:dgCollisionConvexModifier.obj
 0001:000a9680       ?CalculatePlaneIntersectionSimd@dgCollisionConvexModifier@@EBEHABVdgVector@@0QAV2@@Z 100aa680 f   physics:dgCollisionConvexModifier.obj
 0001:000a96b0       ?DebugCollision@dgCollisionConvexModifier@@MBEXABVdgMatrix@@P6AXPAXHPBMH@ZQAX@Z 100aa6b0 f   physics:dgCollisionConvexModifier.obj
 0001:000a9750       ?RayCast@dgCollisionConvexModifier@@MBEMABVdgVector@@0AAVdgContactPoint@@P6AIQBVdgBody@@QBVdgCollision@@QAX@Z24@Z 100aa750 f   physics:dgCollisionConvexModifier.obj
 0001:000a98a0       ?RayCastSimd@dgCollisionConvexModifier@@MBEMABVdgVector@@0AAVdgContactPoint@@P6AIQBVdgBody@@QBVdgCollision@@QAX@Z24@Z 100aa8a0 f   physics:dgCollisionConvexModifier.obj
 0001:000a99f0       ?GetVolume@dgCollisionConvexModifier@@MBEMXZ 100aa9f0 f   physics:dgCollisionConvexModifier.obj
 0001:000a9a30       ?CalculateVolumeIntegral@dgCollisionConvexModifier@@MBE?AVdgVector@@ABVdgMatrix@@P6AIPAX10AAVdgPlane@@@ZQAX@Z 100aaa30 f   physics:dgCollisionConvexModifier.obj
 0001:000a9d10       ?GetCollisionInfo@dgCollisionConvexModifier@@EBEXPAVdgCollisionInfo@@@Z 100aad10 f   physics:dgCollisionConvexModifier.obj
 0001:000a9d60       ?Serialize@dgCollisionConvexModifier@@EBEXP6AXQAXQBXI@Z0@Z 100aad60 f   physics:dgCollisionConvexModifier.obj
 0001:000a9dc0       ?OOBBTest@dgCollisionConvexModifier@@MBE_NABVdgMatrix@@QBVdgCollisionConvex@@QAX@Z 100aadc0 f   physics:dgCollisionConvexModifier.obj
 0001:000a9dd0       ??_EdgCollisionConvexModifier@@UAEPAXI@Z 100aadd0 f i physics:dgCollisionConvexModifier.obj
 0001:000a9dd0       ??_GdgCollisionConvexModifier@@UAEPAXI@Z 100aadd0 f i physics:dgCollisionConvexModifier.obj
 0001:000a9e00       ?Transpose@dgMatrix@@QBE?AV1@XZ 100aae00 f i physics:dgCollisionConvexModifier.obj
 0001:000a9ee0       ??0OOBBTestData@dgCollisionCompound@@QAE@ABVdgMatrix@@@Z 100aaee0 f   physics:dgCollisionCompound.obj
 0001:000aa220       ??0OOBBTestData@dgCollisionCompound@@QAE@ABVdgMatrix@@ABVdgVector@@1@Z 100ab220 f   physics:dgCollisionCompound.obj
 0001:000aa8f0       ??0dgNodeBase@dgCollisionCompound@@QAE@XZ 100ab8f0 f   physics:dgCollisionCompound.obj
 0001:000aa950       ??0dgNodeBase@dgCollisionCompound@@QAE@QAVdgCollisionConvex@@H@Z 100ab950 f   physics:dgCollisionCompound.obj
 0001:000aab00       ??0dgNodeBase@dgCollisionCompound@@QAE@QAV01@0H@Z 100abb00 f   physics:dgCollisionCompound.obj
 0001:000aad50       ??1dgNodeBase@dgCollisionCompound@@QAE@XZ 100abd50 f   physics:dgCollisionCompound.obj
 0001:000aadf0       ?BoxTest@dgNodeBase@dgCollisionCompound@@QBE_NABVOOBBTestData@2@QBV12@@Z 100abdf0 f   physics:dgCollisionCompound.obj
 0001:000ab190       ?BoxTest@dgNodeBase@dgCollisionCompound@@QBE_NABVOOBBTestData@2@@Z 100ac190 f   physics:dgCollisionCompound.obj
 0001:000ab3d0       ?BoxClosestDistance@dgNodeBase@dgCollisionCompound@@QBEMQBVdgVector@@H@Z 100ac3d0 f   physics:dgCollisionCompound.obj
 0001:000ab720       ??0dgCollisionCompound@@QAE@PAVdgWorld@@@Z 100ac720 f   physics:dgCollisionCompound.obj
 0001:000ab780       ??0dgCollisionCompound@@QAE@HQBQAVdgCollisionConvex@@PAVdgWorld@@@Z 100ac780 f   physics:dgCollisionCompound.obj
 0001:000ab800       ??0dgCollisionCompound@@QAE@ABV0@@Z 100ac800 f   physics:dgCollisionCompound.obj
 0001:000aba80       ??0dgCollisionCompound@@QAE@QAVdgWorld@@P6AXQAXPAXI@Z1@Z 100aca80 f   physics:dgCollisionCompound.obj
 0001:000abec0       ??1dgCollisionCompound@@UAE@XZ 100acec0 f   physics:dgCollisionCompound.obj
 0001:000abf70       ?Init@dgCollisionCompound@@IAEXHQBQAVdgCollisionConvex@@@Z 100acf70 f   physics:dgCollisionCompound.obj
 0001:000ac090       ?LinkParentNodes@dgCollisionCompound@@IAEXXZ 100ad090 f   physics:dgCollisionCompound.obj
 0001:000ac180       ?SetCollisionBBox@dgCollisionCompound@@MAEXABVdgVector@@0@Z 100ad180 f   physics:dgCollisionCompound.obj
 0001:000ac1c0       ?CalculateSignature@dgCollisionCompound@@MBEHXZ 100ad1c0 f   physics:dgCollisionCompound.obj
 0001:000ac200       ?CalcAABB@dgCollisionCompound@@MBEXABVdgMatrix@@AAVdgVector@@1@Z 100ad200 f   physics:dgCollisionCompound.obj
 0001:000ac4d0       ?CalcAABBSimd@dgCollisionCompound@@MBEXABVdgMatrix@@AAVdgVector@@1@Z 100ad4d0 f   physics:dgCollisionCompound.obj
 0001:000ac7a0       ?DebugCollision@dgCollisionCompound@@MBEXABVdgMatrix@@P6AXPAXHPBMH@ZQAX@Z 100ad7a0 f   physics:dgCollisionCompound.obj
 0001:000ac800       ?RayCast@dgCollisionCompound@@MBEMABVdgVector@@0AAVdgContactPoint@@P6AIQBVdgBody@@QBVdgCollision@@QAX@Z24@Z 100ad800 f   physics:dgCollisionCompound.obj
 0001:000acab0       ?RayCastSimd@dgCollisionCompound@@MBEMABVdgVector@@0AAVdgContactPoint@@P6AIQBVdgBody@@QBVdgCollision@@QAX@Z24@Z 100adab0 f   physics:dgCollisionCompound.obj
 0001:000acd60       ?GetVolume@dgCollisionCompound@@MBEMXZ 100add60 f   physics:dgCollisionCompound.obj
 0001:000acdc0       ?GetBoxMinRadius@dgCollisionCompound@@MBEMXZ 100addc0 f   physics:dgCollisionCompound.obj
 0001:000acde0       ?GetBoxMaxRadius@dgCollisionCompound@@MBEMXZ 100adde0 f   physics:dgCollisionCompound.obj
 0001:000ace00       ?CalculateVolumeIntegral@dgCollisionCompound@@MBE?AVdgVector@@ABVdgMatrix@@P6AIPAX10AAVdgPlane@@@ZQAX@Z 100ade00 f   physics:dgCollisionCompound.obj
 0001:000acf50       ?CalculateInertia@dgCollisionCompound@@MBEXAAVdgVector@@0@Z 100adf50 f   physics:dgCollisionCompound.obj
 0001:000ad280       ?AddCollision@dgCollisionCompound@@QAEXPAVdgCollisionConvex@@@Z 100ae280 f   physics:dgCollisionCompound.obj
 0001:000ad2c0       ?RemoveCollision@dgCollisionCompound@@QAEXPAVdgNodeBase@1@@Z 100ae2c0 f   physics:dgCollisionCompound.obj
 0001:000ad510       ?SupportVertex@dgCollisionCompound@@MBE?AVdgVector@@ABV2@@Z 100ae510 f   physics:dgCollisionCompound.obj
 0001:000ad970       ?GetCollisionInfo@dgCollisionCompound@@MBEXPAVdgCollisionInfo@@@Z 100ae970 f   physics:dgCollisionCompound.obj
 0001:000ad9d0       ?Serialize@dgCollisionCompound@@MBEXP6AXQAXQBXI@Z0@Z 100ae9d0 f   physics:dgCollisionCompound.obj
 0001:000adb80       ?OOBBTest@dgCollisionCompound@@MBE_NABVdgMatrix@@QBVdgCollisionConvex@@QAX@Z 100aeb80 f   physics:dgCollisionCompound.obj
 0001:000adbc0       ?BuildTopDownTree@dgCollisionCompound@@IAEPAVdgNodeBase@1@HQAPAV21@AAH@Z 100aebc0 f   physics:dgCollisionCompound.obj
 0001:000adfe0       ?PushNodes@dgCollisionCompound@@IBEXQAVdgNodeBase@1@QAPAV21@AAH@Z 100aefe0 f   physics:dgCollisionCompound.obj
 0001:000ae060       ?CalculateSurfaceArea@dgCollisionCompound@@IBEMQAVdgNodeBase@1@0AAVdgVector@@1@Z 100af060 f   physics:dgCollisionCompound.obj
 0001:000ae1f0       ?ImproveNodeFitness@dgCollisionCompound@@IBEXQAVdgNodeBase@1@@Z 100af1f0 f   physics:dgCollisionCompound.obj
 0001:000aee50       ?BuildTree@dgCollisionCompound@@IAEPAVdgNodeBase@1@HQBQAVdgCollisionConvex@@@Z 100afe50 f   physics:dgCollisionCompound.obj
 0001:000af030       ?CalculateContacts@dgCollisionCompound@@IBEHQAUdgPair@dgCollidingPairCollector@@AAVdgCollisionParamProxy@@H@Z 100b0030 f   physics:dgCollisionCompound.obj
 0001:000af1c0       ?CalculateContactsToSingle@dgCollisionCompound@@IBEHQAUdgPair@dgCollidingPairCollector@@AAVdgCollisionParamProxy@@H@Z 100b01c0 f   physics:dgCollisionCompound.obj
 0001:000af730       ?CalculateContactsToCompound@dgCollisionCompound@@IBEHQAUdgPair@dgCollidingPairCollector@@AAVdgCollisionParamProxy@@H@Z 100b0730 f   physics:dgCollisionCompound.obj
 0001:000afe90       ?CalculateContactsToCollisionTree@dgCollisionCompound@@IBEHQAUdgPair@dgCollidingPairCollector@@AAVdgCollisionParamProxy@@H@Z 100b0e90 f   physics:dgCollisionCompound.obj
 0001:000b0c80       ?CalculateContactsToHeightField@dgCollisionCompound@@IBEHQAUdgPair@dgCollidingPairCollector@@AAVdgCollisionParamProxy@@H@Z 100b1c80 f   physics:dgCollisionCompound.obj
 0001:000b10c0       ?CalculateContactsBruteForce@dgCollisionCompound@@IBEHQAUdgPair@dgCollidingPairCollector@@AAVdgCollisionParamProxy@@H@Z 100b20c0 f   physics:dgCollisionCompound.obj
 0001:000b1340       ?ClosestDitance@dgCollisionCompound@@IBEHQAVdgBody@@AAVdgTriplex@@011@Z 100b2340 f   physics:dgCollisionCompound.obj
 0001:000b19e0       ??_GdgNodeBase@dgCollisionCompound@@QAEPAXI@Z 100b29e0 f i physics:dgCollisionCompound.obj
 0001:000b1a10       ??3dgNodeBase@dgCollisionCompound@@SAXQAX@Z 100b2a10 f i physics:dgCollisionCompound.obj
 0001:000b1a30       ??_EdgCollisionCompound@@UAEPAXI@Z 100b2a30 f i physics:dgCollisionCompound.obj
 0001:000b1a30       ??_GdgCollisionCompound@@UAEPAXI@Z 100b2a30 f i physics:dgCollisionCompound.obj
 0001:000b1a60       ??2dgNodeBase@dgCollisionCompound@@SAPAXIQAVdgMemoryAllocator@@@Z 100b2a60 f i physics:dgCollisionCompound.obj
 0001:000b1a80       ??$Swap@PAVdgNodeBase@dgCollisionCompound@@@@YAXAAPAVdgNodeBase@dgCollisionCompound@@0@Z 100b2a80 f i physics:dgCollisionCompound.obj
 0001:000b1ab0       ??0?$dgStack@PAVdgNodeBase@dgCollisionCompound@@@@QAE@H@Z 100b2ab0 f i physics:dgCollisionCompound.obj
 0001:000b1ae0       ??1?$dgStack@PAVdgNodeBase@dgCollisionCompound@@@@QAE@XZ 100b2ae0 f i physics:dgCollisionCompound.obj
 0001:000b1b00       ??A?$dgStack@PAVdgNodeBase@dgCollisionCompound@@@@QAEAAPAVdgNodeBase@dgCollisionCompound@@H@Z 100b2b00 f i physics:dgCollisionCompound.obj
 0001:000b1b80       ??0?$dgTree@PBVdgNodeBase@dgCollisionCompound@@PBV12@@@QAE@QAVdgMemoryAllocator@@@Z 100b2b80 f i physics:dgCollisionCompound.obj
 0001:000b1bc0       ??1?$dgTree@PBVdgNodeBase@dgCollisionCompound@@PBV12@@@UAE@XZ 100b2bc0 f i physics:dgCollisionCompound.obj
 0001:000b1be0       ?GetCount@?$dgTree@PBVdgNodeBase@dgCollisionCompound@@PBV12@@@QBEHXZ 100b2be0 f i physics:dgCollisionCompound.obj
 0001:000b1c00       ?Find@?$dgTree@PBVdgNodeBase@dgCollisionCompound@@PBV12@@@QBEPAVdgTreeNode@1@PBVdgNodeBase@dgCollisionCompound@@@Z 100b2c00 f i physics:dgCollisionCompound.obj
 0001:000b1d20       ?Insert@?$dgTree@PBVdgNodeBase@dgCollisionCompound@@PBV12@@@QAEPAVdgTreeNode@1@ABQBVdgNodeBase@dgCollisionCompound@@PBV34@@Z 100b2d20 f i physics:dgCollisionCompound.obj
 0001:000b1d60       ?RemoveAll@?$dgTree@PBVdgNodeBase@dgCollisionCompound@@PBV12@@@QAEXXZ 100b2d60 f i physics:dgCollisionCompound.obj
 0001:000b1da0       ??_G?$dgTree@PBVdgNodeBase@dgCollisionCompound@@PBV12@@@UAEPAXI@Z 100b2da0 f i physics:dgCollisionCompound.obj
 0001:000b1da0       ??_E?$dgTree@PBVdgNodeBase@dgCollisionCompound@@PBV12@@@UAEPAXI@Z 100b2da0 f i physics:dgCollisionCompound.obj
 0001:000b1dd0       ??3?$dgTree@PBVdgNodeBase@dgCollisionCompound@@PBV12@@@SAXQAX@Z 100b2dd0 f i physics:dgCollisionCompound.obj
 0001:000b1df0       ?GetLeft@dgTreeNode@?$dgTree@PBVdgNodeBase@dgCollisionCompound@@PBV12@@@ABEPAV12@XZ 100b2df0 f i physics:dgCollisionCompound.obj
 0001:000b1e10       ?GetRight@dgTreeNode@?$dgTree@PBVdgNodeBase@dgCollisionCompound@@PBV12@@@ABEPAV12@XZ 100b2e10 f i physics:dgCollisionCompound.obj
 0001:000b1e30       ?Insert@?$dgTree@PBVdgNodeBase@dgCollisionCompound@@PBV12@@@QAEPAVdgTreeNode@1@ABQBVdgNodeBase@dgCollisionCompound@@PBV34@AA_N@Z 100b2e30 f i physics:dgCollisionCompound.obj
 0001:000b2030       ?CompareKeys@?$dgTree@PBVdgNodeBase@dgCollisionCompound@@PBV12@@@ABEHABQBVdgNodeBase@dgCollisionCompound@@0@Z 100b3030 f i physics:dgCollisionCompound.obj
 0001:000b2070       ??0dgTreeNode@?$dgTree@PBVdgNodeBase@dgCollisionCompound@@PBV12@@@AAE@ABQBVdgNodeBase@dgCollisionCompound@@0PAV01@@Z 100b3070 f i physics:dgCollisionCompound.obj
 0001:000b20b0       ??_GdgTreeNode@?$dgTree@PBVdgNodeBase@dgCollisionCompound@@PBV12@@@EAEPAXI@Z 100b30b0 f i physics:dgCollisionCompound.obj
 0001:000b20b0       ??_EdgTreeNode@?$dgTree@PBVdgNodeBase@dgCollisionCompound@@PBV12@@@EAEPAXI@Z 100b30b0 f i physics:dgCollisionCompound.obj
 0001:000b20e0       ??1dgTreeNode@?$dgTree@PBVdgNodeBase@dgCollisionCompound@@PBV12@@@EAE@XZ 100b30e0 f i physics:dgCollisionCompound.obj
 0001:000b2100       ??0dgCollisionUserMesh@@QAE@PAVdgMemoryAllocator@@ABVdgVector@@1ABVdgUserMeshCreation@@@Z 100b3100 f   physics:dgCollisionUserMesh.obj
 0001:000b21b0       ??0dgCollisionUserMesh@@QAE@QAVdgWorld@@P6AXQAXPAXI@Z1@Z 100b31b0 f   physics:dgCollisionUserMesh.obj
 0001:000b2220       ??1dgCollisionUserMesh@@UAE@XZ 100b3220 f   physics:dgCollisionUserMesh.obj
 0001:000b2260       ?Serialize@dgCollisionUserMesh@@EBEXP6AXQAXQBXI@Z0@Z 100b3260 f   physics:dgCollisionUserMesh.obj
 0001:000b2290       ?GetVertexListIndexList@dgCollisionUserMesh@@UBEXABVdgVector@@0AAVdgGetVertexListIndexList@dgCollisionMesh@@@Z 100b3290 f   physics:dgCollisionUserMesh.obj
 0001:000b2310       ?GetCollisionInfo@dgCollisionUserMesh@@EBEXPAVdgCollisionInfo@@@Z 100b3310 f   physics:dgCollisionUserMesh.obj
 0001:000b2370       ?RayCastSimd@dgCollisionUserMesh@@EBEMABVdgVector@@0AAVdgContactPoint@@P6AIQBVdgBody@@QBVdgCollision@@QAX@Z24@Z 100b3370 f   physics:dgCollisionUserMesh.obj
 0001:000b23b0       ?RayCast@dgCollisionUserMesh@@EBEMABVdgVector@@0AAVdgContactPoint@@P6AIQBVdgBody@@QBVdgCollision@@QAX@Z24@Z 100b33b0 f   physics:dgCollisionUserMesh.obj
 0001:000b2510       ?GetCollidingFacesSimd@dgCollisionUserMesh@@EBEXQAVdgPolygonMeshDesc@@@Z 100b3510 f   physics:dgCollisionUserMesh.obj
 0001:000b2530       ?GetCollidingFaces@dgCollisionUserMesh@@EBEXQAVdgPolygonMeshDesc@@@Z 100b3530 f   physics:dgCollisionUserMesh.obj
 0001:000b2580       ?DebugCollision@dgCollisionUserMesh@@EBEXABVdgMatrix@@P6AXPAXHPBMH@ZQAX@Z 100b3580 f   physics:dgCollisionUserMesh.obj
 0001:000b2590       ??_EdgCollisionUserMesh@@UAEPAXI@Z 100b3590 f i physics:dgCollisionUserMesh.obj
 0001:000b2590       ??_GdgCollisionUserMesh@@UAEPAXI@Z 100b3590 f i physics:dgCollisionUserMesh.obj
 0001:000b25c0       ??0dgCollisionMeshRayHitDesc@@QAE@XZ 100b35c0 f i physics:dgCollisionUserMesh.obj
 0001:000b2610       ?InitConvexCollision@dgWorld@@CAXXZ 100b3610 f   physics:dgMinkowskiConv.obj
 0001:000b33b0       ?SphereSphereCollision@dgWorld@@ABEHABVdgVector@@M0MAAVdgCollisionParamProxy@@@Z 100b43b0 f   physics:dgMinkowskiConv.obj
 0001:000b36c0       ?CalculateSphereToSphereContacts@dgWorld@@ABEHAAVdgCollisionParamProxy@@@Z 100b46c0 f   physics:dgMinkowskiConv.obj
 0001:000b37a0       ?CalculateCapsuleToSphereContacts@dgWorld@@ABEHAAVdgCollisionParamProxy@@@Z 100b47a0 f   physics:dgMinkowskiConv.obj
 0001:000b3910       ?CalculateCapsuleToCapsuleContacts@dgWorld@@ABEHAAVdgCollisionParamProxy@@@Z 100b4910 f   physics:dgMinkowskiConv.obj
 0001:000b45f0       ?CalculateBoxToSphereContacts@dgWorld@@ABEHAAVdgCollisionParamProxy@@@Z 100b55f0 f   physics:dgMinkowskiConv.obj
 0001:000b6310       ?FilterPolygonEdgeContacts@dgWorld@@ABEHHQAVdgContactPoint@@@Z 100b7310 f   physics:dgMinkowskiConv.obj
 0001:000b65c0       ?ClosestPoint@dgWorld@@ABEHAAVdgCollisionParamProxy@@@Z 100b75c0 f   physics:dgMinkowskiConv.obj
 0001:000b66b0       ?CalculateHullToHullContactsSimd@dgWorld@@ABEHAAVdgCollisionParamProxy@@@Z 100b76b0 f   physics:dgMinkowskiConv.obj
 0001:000b6810       ?CalculateHullToHullContacts@dgWorld@@ABEHAAVdgCollisionParamProxy@@@Z 100b7810 f   physics:dgMinkowskiConv.obj
 0001:000b6970       ?CalculateConvexToConvexContactsSimd@dgWorld@@ABEHAAVdgCollisionParamProxy@@@Z 100b7970 f   physics:dgMinkowskiConv.obj
 0001:000b7220       ?CalculateConvexToConvexContacts@dgWorld@@ABEHAAVdgCollisionParamProxy@@@Z 100b8220 f   physics:dgMinkowskiConv.obj
 0001:000b7ad0       ?CalculatePolySoupToSphereContactsDescrete@dgWorld@@ABEHAAVdgCollisionParamProxy@@@Z 100b8ad0 f   physics:dgMinkowskiConv.obj
 0001:000b81a0       ?CalculatePolySoupToElipseContactsDescrete@dgWorld@@ABEHAAVdgCollisionParamProxy@@@Z 100b91a0 f   physics:dgMinkowskiConv.obj
 0001:000b88b0       ?CalculatePolySoupToSphereContactsContinue@dgWorld@@ABEHAAVdgCollisionParamProxy@@@Z 100b98b0 f   physics:dgMinkowskiConv.obj
 0001:000b8ea0       ?CalculatePolySoupToHullContactsDescreteSimd@dgWorld@@ABEHAAVdgCollisionParamProxy@@@Z 100b9ea0 f   physics:dgMinkowskiConv.obj
 0001:000b9350       ?CalculatePolySoupToHullContactsDescrete@dgWorld@@ABEHAAVdgCollisionParamProxy@@@Z 100ba350 f   physics:dgMinkowskiConv.obj
 0001:000b97f0       ?CalculateConvexToNonConvexContactsContinueSimd@dgWorld@@ABEHAAVdgCollisionParamProxy@@@Z 100ba7f0 f   physics:dgMinkowskiConv.obj
 0001:000b9ec0       ?CalculateConvexToNonConvexContactsContinue@dgWorld@@ABEHAAVdgCollisionParamProxy@@@Z 100baec0 f   physics:dgMinkowskiConv.obj
 0001:000ba590       ?CalculateConvexToNonConvexContactsSimd@dgWorld@@ABEHAAVdgCollisionParamProxy@@@Z 100bb590 f   physics:dgMinkowskiConv.obj
 0001:000bb0b0       ?CalculateConvexToNonConvexContacts@dgWorld@@ABEHAAVdgCollisionParamProxy@@@Z 100bc0b0 f   physics:dgMinkowskiConv.obj
 0001:000bbbd0       ?GetRadius@dgCollisionCapsule@@QBEMXZ 100bcbd0 f i physics:dgMinkowskiConv.obj
 0001:000bbbf0       ?GetHeight@dgCollisionCapsule@@QBEMXZ 100bcbf0 f i physics:dgMinkowskiConv.obj
 0001:000bbc10       ?CalculateClosestPoints@dgContactSolver@@AAEHXZ 100bcc10 f i physics:dgMinkowskiConv.obj
 0001:000bccf0       ?CalcSupportVertex@dgContactSolver@@AAEXABVdgVector@@H@Z 100bdcf0 f i physics:dgMinkowskiConv.obj
 0001:000bce80       ?ReduceLine@dgContactSolver@@AAE?AVdgVector@@ABV2@@Z 100bde80 f i physics:dgMinkowskiConv.obj
 0001:000bd050       ?ReduceTriangle@dgContactSolver@@AAE?AVdgVector@@ABV2@@Z 100be050 f i physics:dgMinkowskiConv.obj
 0001:000bd990       ?ReduceTetrahedrum@dgContactSolver@@AAE?AVdgVector@@ABV2@@Z 100be990 f i physics:dgMinkowskiConv.obj
 0001:000bdde0       ?CalcSeparatingPlane@dgContactSolver@@AAE?AW4dgMinkReturnCode@1@AAPAVdgMinkFace@1@ABVdgVector@@@Z 100bede0 f i physics:dgMinkowskiConv.obj
 0001:000be770       ?CheckTetraHedronVolume@dgContactSolver@@ABE_NXZ 100bf770 f i physics:dgMinkowskiConv.obj
 0001:000be850       ?UpdateSeparatingPlane@dgContactSolver@@AAE?AW4dgMinkReturnCode@1@AAPAVdgMinkFace@1@ABVdgVector@@@Z 100bf850 f i physics:dgMinkowskiConv.obj
 0001:000bf1e0       ?UpdateSeparatingPlaneFallbackSolution@dgContactSolver@@AAE?AW4dgMinkReturnCode@1@AAPAVdgMinkFace@1@ABVdgVector@@@Z 100c01e0 f i physics:dgMinkowskiConv.obj
 0001:000c0ef0       ??0dgContactSolver@@QAE@AAVdgCollisionParamProxy@@@Z 100c1ef0 f i physics:dgMinkowskiConv.obj
 0001:000c1130       ??0dgMinkFace@dgContactSolver@@QAE@XZ 100c2130 f i physics:dgMinkowskiConv.obj
 0001:000c1150       ?InverseSimd@dgMatrix@@QBE?AV1@XZ 100c2150 f i physics:dgMinkowskiConv.obj
 0001:000c14f0       ?HullHullContactsSimd@dgContactSolver@@QAEHH@Z 100c24f0 f i physics:dgMinkowskiConv.obj
 0001:000c1930       ?CalculateContactsSimd@dgContactSolver@@AAEHQAVdgMinkFace@1@HQAVdgContactPoint@@H@Z 100c2930 f i physics:dgMinkowskiConv.obj
 0001:000c2780       ?CalculateContactAlternateMethod@dgContactSolver@@AAEHQAVdgMinkFace@1@HQAVdgContactPoint@@H@Z 100c3780 f i physics:dgMinkowskiConv.obj
 0001:000c3490       ?CalculateConvexShapeIntersectionSimd@dgContactSolver@@ABEHABVdgMatrix@@ABVdgVector@@IMHQAV3@H2QAVdgContactPoint@@H@Z 100c4490 f i physics:dgMinkowskiConv.obj
 0001:000c44f0       ?CalculateConvexShapeIntersectionLine@dgContactSolver@@ABEHABVdgMatrix@@ABVdgVector@@IMHQAV3@H2QAVdgContactPoint@@@Z 100c54f0 f i physics:dgMinkowskiConv.obj
 0001:000c4a40       ?CrossProductSimd@dgVector@@QBE?AV1@ABV1@@Z 100c5a40 f i physics:dgMinkowskiConv.obj
 0001:000c4b00       ?ReduceContacts@dgContactSolver@@ABEPAUdgPerimenterEdge@1@PAU21@H@Z 100c5b00 f i physics:dgMinkowskiConv.obj
 0001:000c4de0       ?CalculateConvexShapeIntersection@dgContactSolver@@ABEHABVdgMatrix@@ABVdgVector@@IMHQAV3@H2QAVdgContactPoint@@H@Z 100c5de0 f i physics:dgMinkowskiConv.obj
 0001:000c5940       ?TransformVectorsSimd@dgMatrix@@QBEXQAVdgVector@@QBV2@H@Z 100c6940 f i physics:dgMinkowskiConv.obj
 0001:000c5ad0       ?CalcSeparatingPlaneSimd@dgContactSolver@@AAE?AW4dgMinkReturnCode@1@AAPAVdgMinkFace@1@ABVdgVector@@@Z 100c6ad0 f i physics:dgMinkowskiConv.obj
 0001:000c6460       ?CalcSupportVertexSimd@dgContactSolver@@AAEXABVdgVector@@H@Z 100c7460 f i physics:dgMinkowskiConv.obj
 0001:000c6590       ?UpdateSeparatingPlaneSimd@dgContactSolver@@AAE?AW4dgMinkReturnCode@1@AAPAVdgMinkFace@1@ABVdgVector@@@Z 100c7590 f i physics:dgMinkowskiConv.obj
 0001:000c7730       ?CalcFacePlaneSimd@dgContactSolver@@AAE_NPAVdgMinkFace@1@@Z 100c8730 f i physics:dgMinkowskiConv.obj
 0001:000c7750       ?CalcFacePlane@dgContactSolver@@AAE_NQAVdgMinkFace@1@@Z 100c8750 f i physics:dgMinkowskiConv.obj
 0001:000c7870       ??0dgPlane@@QAE@ABVdgVector@@00@Z 100c8870 f i physics:dgMinkowskiConv.obj
 0001:000c78d0       ?CalculateClipPlaneSimd@dgContactSolver@@AAEPAVdgMinkFace@1@XZ 100c88d0 f i physics:dgMinkowskiConv.obj
 0001:000c8ba0       ??0dgClosestFace@dgContactSolver@@QAE@PAXH@Z 100c9ba0 f i physics:dgMinkowskiConv.obj
 0001:000c8bc0       ?NewFace@dgContactSolver@@AAEPAVdgMinkFace@1@XZ 100c9bc0 f i physics:dgMinkowskiConv.obj
 0001:000c8c60       ?HullHullContactsLarge@dgContactSolver@@QAEHH@Z 100c9c60 f i physics:dgMinkowskiConv.obj
 0001:000c9190       ?CalculateContacts@dgContactSolver@@AAEHQAVdgMinkFace@1@HQAVdgContactPoint@@H@Z 100ca190 f i physics:dgMinkowskiConv.obj
 0001:000c9fe0       ?CalcSeparatingPlaneLarge@dgContactSolver@@AAE?AW4dgMinkReturnCode@1@AAPAVdgMinkFace@1@ABVdgBigVector@@@Z 100cafe0 f i physics:dgMinkowskiConv.obj
 0001:000ca950       ?CheckTetraHedronVolumeLarge@dgContactSolver@@ABE_NXZ 100cb950 f i physics:dgMinkowskiConv.obj
 0001:000caa50       ?CalcSupportVertexLarge@dgContactSolver@@AAEXABVdgVector@@H@Z 100cba50 f i physics:dgMinkowskiConv.obj
 0001:000cabe0       ?UpdateSeparatingPlaneLarge@dgContactSolver@@AAE?AW4dgMinkReturnCode@1@AAPAVdgMinkFace@1@ABVdgBigVector@@@Z 100cbbe0 f i physics:dgMinkowskiConv.obj
 0001:000cb590       ?UpdateSeparatingPlaneFallbackSolutionLarge@dgContactSolver@@AAE?AW4dgMinkReturnCode@1@AAPAVdgMinkFace@1@ABVdgBigVector@@@Z 100cc590 f i physics:dgMinkowskiConv.obj
 0001:000cd3e0       ?ReduceLineLarge@dgContactSolver@@AAE?AVdgBigVector@@ABV2@@Z 100ce3e0 f i physics:dgMinkowskiConv.obj
 0001:000cd5a0       ?ReduceTriangleLarge@dgContactSolver@@AAE?AVdgBigVector@@ABV2@@Z 100ce5a0 f i physics:dgMinkowskiConv.obj
 0001:000cddf0       ?ReduceTetrahedrumLarge@dgContactSolver@@AAE?AVdgBigVector@@ABV2@@Z 100cedf0 f i physics:dgMinkowskiConv.obj
 0001:000ce170       ?CalcFacePlaneLarge@dgContactSolver@@AAE_NQAVdgMinkFace@1@@Z 100cf170 f i physics:dgMinkowskiConv.obj
 0001:000ce290       ?CalculateClipPlaneLarge@dgContactSolver@@AAEPAVdgMinkFace@1@XZ 100cf290 f i physics:dgMinkowskiConv.obj
 0001:000cf5f0       ??1?$dgUpHeap@PAUdgPerimenterEdge@dgContactSolver@@M@@QAE@XZ 100d05f0 f i physics:dgMinkowskiConv.obj
 0001:000cf610       ??1dgClosestFace@dgContactSolver@@QAE@XZ 100d0610 f i physics:dgMinkowskiConv.obj
 0001:000cf630       ??1?$dgDownHeap@PAVdgMinkFace@dgContactSolver@@M@@QAE@XZ 100d0630 f i physics:dgMinkowskiConv.obj
 0001:000cf650       ?HullHullContacts@dgContactSolver@@QAEHH@Z 100d0650 f i physics:dgMinkowskiConv.obj
 0001:000cfa70       ?CalculateClipPlane@dgContactSolver@@AAEPAVdgMinkFace@1@XZ 100d0a70 f i physics:dgMinkowskiConv.obj
 0001:000d0d40       ?HullHullContinueContactsSimd@dgContactSolver@@QAEHAAMQAVdgContactPoint@@HHH@Z 100d1d40 f i physics:dgMinkowskiConv.obj
 0001:000d19d0       ?CalculateContactsContinuesSimd@dgContactSolver@@AAEHHQAVdgContactPoint@@HPBVdgVector@@1M@Z 100d29d0 f i physics:dgMinkowskiConv.obj
 0001:000d1d40       ?CalculateVelocitiesSimd@dgContactSolver@@QAEXM@Z 100d2d40 f i physics:dgMinkowskiConv.obj
 0001:000d1e10       ?HullHullContinueContacts@dgContactSolver@@QAEHAAMQAVdgContactPoint@@HHH@Z 100d2e10 f i physics:dgMinkowskiConv.obj
 0001:000d2a80       ?CalculateContactsContinues@dgContactSolver@@AAEHHQAVdgContactPoint@@HPBVdgVector@@1M@Z 100d3a80 f i physics:dgMinkowskiConv.obj
 0001:000d2cd0       ?CalculateVelocities@dgContactSolver@@QAEXM@Z 100d3cd0 f i physics:dgMinkowskiConv.obj
 0001:000d2da0       ??0dgCollisionBoundPlaneCache@@QAE@XZ 100d3da0 f i physics:dgMinkowskiConv.obj
 0001:000d2dd0       ?GetShapeClipSize@dgContactSolver@@ABEMQAVdgCollision@@@Z 100d3dd0 f i physics:dgMinkowskiConv.obj
 0001:000d2e20       ??0dgContactSolver@@QAE@AAVdgCollisionParamProxy@@PAVdgCollision@@@Z 100d3e20 f i physics:dgMinkowskiConv.obj
 0001:000d3060       ??0dgPolygonMeshDesc@@QAE@XZ 100d4060 f i physics:dgMinkowskiConv.obj
 0001:000d3090       ??1?$dgHeapBase@PAVdgMinkFace@dgContactSolver@@M@@IAE@XZ 100d4090 f i physics:dgMinkowskiConv.obj
 0001:000d30c0       ?GetCount@?$dgHeapBase@PAVdgMinkFace@dgContactSolver@@M@@QBEHXZ 100d40c0 f i physics:dgMinkowskiConv.obj
 0001:000d30d0       ??A?$dgHeapBase@PAVdgMinkFace@dgContactSolver@@M@@QBEABQAVdgMinkFace@dgContactSolver@@H@Z 100d40d0 f i physics:dgMinkowskiConv.obj
 0001:000d3120       ??0?$dgDownHeap@PAVdgMinkFace@dgContactSolver@@M@@QAE@QBXH@Z 100d4120 f i physics:dgMinkowskiConv.obj
 0001:000d3140       ?Pop@?$dgDownHeap@PAVdgMinkFace@dgContactSolver@@M@@QAEXXZ 100d4140 f i physics:dgMinkowskiConv.obj
 0001:000d3240       ?Push@?$dgDownHeap@PAVdgMinkFace@dgContactSolver@@M@@QAEXAAPAVdgMinkFace@dgContactSolver@@M@Z 100d4240 f i physics:dgMinkowskiConv.obj
 0001:000d3350       ??1?$dgHeapBase@PAUdgPerimenterEdge@dgContactSolver@@M@@IAE@XZ 100d4350 f i physics:dgMinkowskiConv.obj
 0001:000d3380       ?Flush@?$dgHeapBase@PAUdgPerimenterEdge@dgContactSolver@@M@@QAEXXZ 100d4380 f i physics:dgMinkowskiConv.obj
 0001:000d33a0       ?GetCount@?$dgHeapBase@PAUdgPerimenterEdge@dgContactSolver@@M@@QBEHXZ 100d43a0 f i physics:dgMinkowskiConv.obj
 0001:000d33b0       ??A?$dgHeapBase@PAUdgPerimenterEdge@dgContactSolver@@M@@QBEABQAUdgPerimenterEdge@dgContactSolver@@H@Z 100d43b0 f i physics:dgMinkowskiConv.obj
 0001:000d3400       ??0?$dgUpHeap@PAUdgPerimenterEdge@dgContactSolver@@M@@QAE@QBXH@Z 100d4400 f i physics:dgMinkowskiConv.obj
 0001:000d3420       ?Pop@?$dgUpHeap@PAUdgPerimenterEdge@dgContactSolver@@M@@QAEXXZ 100d4420 f i physics:dgMinkowskiConv.obj
 0001:000d3520       ?Push@?$dgUpHeap@PAUdgPerimenterEdge@dgContactSolver@@M@@QAEXAAPAUdgPerimenterEdge@dgContactSolver@@M@Z 100d4520 f i physics:dgMinkowskiConv.obj
 0001:000d3630       ?Remove@?$dgUpHeap@PAUdgPerimenterEdge@dgContactSolver@@M@@QAEXH@Z 100d4630 f i physics:dgMinkowskiConv.obj
 0001:000d3730       ??$Swap@VdgBigVector@@@@YAXAAVdgBigVector@@0@Z 100d4730 f i physics:dgMinkowskiConv.obj
 0001:000d3780       ??$Swap@VdgContactPoint@@@@YAXAAVdgContactPoint@@0@Z 100d4780 f i physics:dgMinkowskiConv.obj
 0001:000d37d0       ??0?$dgHeapBase@PAVdgMinkFace@dgContactSolver@@M@@IAE@QBXH@Z 100d47d0 f i physics:dgMinkowskiConv.obj
 0001:000d3810       ??0?$dgHeapBase@PAUdgPerimenterEdge@dgContactSolver@@M@@IAE@QBXH@Z 100d4810 f i physics:dgMinkowskiConv.obj
 0001:000d3850       ?Flush@?$dgHeapBase@PAVdgMinkFace@dgContactSolver@@M@@QAEXXZ 100d4850 f i physics:dgMinkowskiConv.obj
 0001:000d3870       ??0dgMeshTreeCSGFace@@QAE@ABVdgMeshEffect@@QAVdgEdge@@@Z 100d4870 f   physics:dgMeshEffectSolidTree.obj
 0001:000d3940       ??0dgMeshTreeCSGFace@@QAE@QAVdgMemoryAllocator@@HQBVdgHugeVector@@@Z 100d4940 f   physics:dgMeshEffectSolidTree.obj
 0001:000d39c0       ?IsPointOnEdge@dgMeshTreeCSGFace@@QBE_NABVdgHugeVector@@00@Z 100d49c0 f   physics:dgMeshEffectSolidTree.obj
 0001:000d3c90       ?CheckConvex@dgMeshTreeCSGFace@@QBE_NABVdgHugeVector@@@Z 100d4c90 f   physics:dgMeshEffectSolidTree.obj
 0001:000d3f50       ?MergeMissingVertex@dgMeshTreeCSGFace@@QAEXQBV1@@Z 100d4f50 f   physics:dgMeshEffectSolidTree.obj
 0001:000d41b0       ?RemoveDuplicates@dgMeshTreeCSGFace@@QBEHHQAVdgHugeVector@@@Z 100d51b0 f   physics:dgMeshEffectSolidTree.obj
 0001:000d44b0       ?DebugMatrix@dgMeshTreeCSGFace@@QBE?AVdgMatrix@@XZ 100d54b0 f   physics:dgMeshEffectSolidTree.obj
 0001:000d4840       ?Trace@dgMeshTreeCSGFace@@QBEXABVdgMatrix@@@Z 100d5840 f   physics:dgMeshEffectSolidTree.obj
 0001:000d4920       ?FaceNormal@dgMeshTreeCSGFace@@QBE?AVdgHugeVector@@XZ 100d5920 f   physics:dgMeshEffectSolidTree.obj
 0001:000d4ac0       ?CheckFaceArea@dgMeshTreeCSGFace@@QBE_NHQBVdgHugeVector@@@Z 100d5ac0 f   physics:dgMeshEffectSolidTree.obj
 0001:000d4c70       ?Clip@dgMeshTreeCSGFace@@QAEXABVdgHugeVector@@PAPAV1@1@Z 100d5c70 f   physics:dgMeshEffectSolidTree.obj
 0001:000d55e0       ??0dgMeshEffectSolidTree@@QAE@W4dgPlaneType@0@@Z 100d65e0 f   physics:dgMeshEffectSolidTree.obj
 0001:000d5640       ??0dgMeshEffectSolidTree@@QAE@ABVdgMeshEffect@@QAVdgEdge@@@Z 100d6640 f   physics:dgMeshEffectSolidTree.obj
 0001:000d56f0       ??0dgMeshEffectSolidTree@@QAE@ABVdgHugeVector@@QAVdgMemoryAllocator@@@Z 100d66f0 f   physics:dgMeshEffectSolidTree.obj
 0001:000d57a0       ??1dgMeshEffectSolidTree@@QAE@XZ 100d67a0 f   physics:dgMeshEffectSolidTree.obj
 0001:000d5820       ?BuildPlane@dgMeshEffectSolidTree@@QBE?AVdgHugeVector@@ABVdgMeshEffect@@QAVdgEdge@@@Z 100d6820 f   physics:dgMeshEffectSolidTree.obj
 0001:000d5a70       ?AddFace@dgMeshEffectSolidTree@@QAEXABVdgMeshEffect@@QAVdgEdge@@@Z 100d6a70 f   physics:dgMeshEffectSolidTree.obj
 0001:000d6010       ?GetPointSide@dgMeshEffectSolidTree@@QBE?AW4dgPlaneType@1@ABVdgHugeVector@@@Z 100d7010 f   physics:dgMeshEffectSolidTree.obj
 0001:000d6150       ?GetFaceSide@dgMeshEffectSolidTree@@QBE?AW4dgPlaneType@1@QBVdgMeshTreeCSGFace@@@Z 100d7150 f   physics:dgMeshEffectSolidTree.obj
 0001:000d62e0       ??_GdgMeshTreeCSGFace@@UAEPAXI@Z 100d72e0 f i physics:dgMeshEffectSolidTree.obj
 0001:000d62e0       ??_EdgMeshTreeCSGFace@@UAEPAXI@Z 100d72e0 f i physics:dgMeshEffectSolidTree.obj
 0001:000d6310       ??1dgMeshTreeCSGFace@@UAE@XZ 100d7310 f i physics:dgMeshEffectSolidTree.obj
 0001:000d6330       ?Trace@?$dgTemplateVector@M@@QBEXXZ 100d7330 f i physics:dgMeshEffectSolidTree.obj
 0001:000d6380       ??3?$dgList@VdgHugeVector@@@@SAXQAX@Z 100d7380 f i physics:dgMeshEffectSolidTree.obj
 0001:000d63a0       ?GetPrev@dgListNode@?$dgList@VdgHugeVector@@@@QBEPAV12@XZ 100d73a0 f i physics:dgMeshEffectSolidTree.obj
 0001:000d63c0       ??0?$dgList@VdgHugeVector@@@@QAE@QAVdgMemoryAllocator@@@Z 100d73c0 f i physics:dgMeshEffectSolidTree.obj
 0001:000d6400       ??1?$dgList@VdgHugeVector@@@@UAE@XZ 100d7400 f i physics:dgMeshEffectSolidTree.obj
 0001:000d6420       ?GetAllocator@?$dgList@VdgHugeVector@@@@QBEPAVdgMemoryAllocator@@XZ 100d7420 f i physics:dgMeshEffectSolidTree.obj
 0001:000d6440       ?GetCount@?$dgList@VdgHugeVector@@@@QBEHXZ 100d7440 f i physics:dgMeshEffectSolidTree.obj
 0001:000d6460       ?GetLast@?$dgList@VdgHugeVector@@@@QBEPAVdgListNode@1@XZ 100d7460 f i physics:dgMeshEffectSolidTree.obj
 0001:000d6480       ?Append@?$dgList@VdgHugeVector@@@@QAEPAVdgListNode@1@ABVdgHugeVector@@@Z 100d7480 f i physics:dgMeshEffectSolidTree.obj
 0001:000d6550       ?RotateToBegin@?$dgList@VdgHugeVector@@@@QAEXQAVdgListNode@1@@Z 100d7550 f i physics:dgMeshEffectSolidTree.obj
 0001:000d65c0       ?InsertAfter@?$dgList@VdgHugeVector@@@@QAEXQAVdgListNode@1@0@Z 100d75c0 f i physics:dgMeshEffectSolidTree.obj
 0001:000d67c0       ?Scale@?$dgTemplateVector@VdgGoogol@@@@QBE?AV1@VdgGoogol@@@Z 100d77c0 f i physics:dgMeshEffectSolidTree.obj
 0001:000d6870       ??H?$dgTemplateVector@VdgGoogol@@@@QBE?AV0@ABV0@@Z 100d7870 f i physics:dgMeshEffectSolidTree.obj
 0001:000d6920       ??G?$dgTemplateVector@VdgGoogol@@@@QBE?AV0@ABV0@@Z 100d7920 f i physics:dgMeshEffectSolidTree.obj
 0001:000d69d0       ??Y?$dgTemplateVector@VdgGoogol@@@@QAEAAV0@ABV0@@Z 100d79d0 f i physics:dgMeshEffectSolidTree.obj
 0001:000d6a40       ??D?$dgTemplateVector@VdgGoogol@@@@QBE?AV0@ABV0@@Z 100d7a40 f i physics:dgMeshEffectSolidTree.obj
 0001:000d6bc0       ??_E?$dgList@VdgHugeVector@@@@UAEPAXI@Z 100d7bc0 f i physics:dgMeshEffectSolidTree.obj
 0001:000d6bc0       ??_G?$dgList@VdgHugeVector@@@@UAEPAXI@Z 100d7bc0 f i physics:dgMeshEffectSolidTree.obj
 0001:000d6bf0       ??2dgListNode@?$dgList@VdgHugeVector@@@@CAPAXIQAVdgMemoryAllocator@@@Z 100d7bf0 f i physics:dgMeshEffectSolidTree.obj
 0001:000d6c10       ??0dgListNode@?$dgList@VdgHugeVector@@@@AAE@ABVdgHugeVector@@QAV01@1@Z 100d7c10 f i physics:dgMeshEffectSolidTree.obj
 0001:000d6ca0       ??_GdgListNode@?$dgList@VdgHugeVector@@@@EAEPAXI@Z 100d7ca0 f i physics:dgMeshEffectSolidTree.obj
 0001:000d6ca0       ??_EdgListNode@?$dgList@VdgHugeVector@@@@EAEPAXI@Z 100d7ca0 f i physics:dgMeshEffectSolidTree.obj
 0001:000d6cd0       ??1dgListNode@?$dgList@VdgHugeVector@@@@EAE@XZ 100d7cd0 f i physics:dgMeshEffectSolidTree.obj
 0001:000d6cf0       ??3dgListNode@?$dgList@VdgHugeVector@@@@CAXQAX@Z 100d7cf0 f i physics:dgMeshEffectSolidTree.obj
 0001:000d6d10       ?Unlink@dgListNode@?$dgList@VdgHugeVector@@@@AAEXXZ 100d7d10 f i physics:dgMeshEffectSolidTree.obj
 0001:000d6d80       ?AddFirst@dgListNode@?$dgList@VdgHugeVector@@@@AAEXQAV12@@Z 100d7d80 f i physics:dgMeshEffectSolidTree.obj
 0001:000d6db0       ?RemoveAll@?$dgList@VdgHugeVector@@@@QAEXXZ 100d7db0 f i physics:dgMeshEffectSolidTree.obj
 0001:000d6e70       ?SanityCheck@?$dgList@VdgHugeVector@@@@QBE_NXZ 100d7e70 f i physics:dgMeshEffectSolidTree.obj
 0001:000d7000       ??_EdgMeshTreeCSGFace@@WBE@AEPAXI@Z 100d8000 f i physics:dgMeshEffectSolidTree.obj
 0001:000d7010       ??0dgHugeVector@@QAE@XZ    100d8010 f i physics:dgMeshEffectSolidTree.obj
 0001:000d7030       ??0dgHugeVector@@QAE@ABV?$dgTemplateVector@VdgGoogol@@@@@Z 100d8030 f i physics:dgMeshEffectSolidTree.obj
 0001:000d7060       ??0dgHugeVector@@QAE@NNNN@Z 100d8060 f i physics:dgMeshEffectSolidTree.obj
 0001:000d70d0       ?EvaluePlane@dgHugeVector@@QBE?AVdgGoogol@@ABV1@@Z 100d80d0 f i physics:dgMeshEffectSolidTree.obj
 0001:000d7110       ??0?$dgTemplateVector@VdgGoogol@@@@QAE@XZ 100d8110 f i physics:dgMeshEffectSolidTree.obj
 0001:000d7150       ??L?$dgTemplateVector@VdgGoogol@@@@QBE?AVdgGoogol@@ABV0@@Z 100d8150 f i physics:dgMeshEffectSolidTree.obj
 0001:000d71f0       __ftol2_sse                100d81f0 f   MSVCRTD:ftol2.obj
 0001:000d71f9       __ftol2_pentium4           100d81f9 f   MSVCRTD:ftol2.obj
 0001:000d720c       __ftol2_sse_excpt          100d820c f   MSVCRTD:ftol2.obj
 0001:000d7226       __ftol2                    100d8226 f   MSVCRTD:ftol2.obj
 0001:000d729c       __CrtDbgReportW            100d829c f   MSVCRTD:MSVCR100D.dll
 0001:000d72a2       _sqrt                      100d82a2 f   MSVCRTD:MSVCR100D.dll
 0001:000d72a8       _ceil                      100d82a8 f   MSVCRTD:MSVCR100D.dll
 0001:000d72ae       _floor                     100d82ae f   MSVCRTD:MSVCR100D.dll
 0001:000d72b4       __isnan                    100d82b4 f   MSVCRTD:MSVCR100D.dll
 0001:000d72ba       __finite                   100d82ba f   MSVCRTD:MSVCR100D.dll
 0001:000d72c0       _cos                       100d82c0 f   MSVCRTD:MSVCR100D.dll
 0001:000d72c6       _sin                       100d82c6 f   MSVCRTD:MSVCR100D.dll
 0001:000d72cc       _malloc                    100d82cc f   MSVCRTD:MSVCR100D.dll
 0001:000d72d2       _free                      100d82d2 f   MSVCRTD:MSVCR100D.dll
 0001:000d72d8       _memset                    100d82d8 f   MSVCRTD:MSVCR100D.dll
 0001:000d7360       __CRT_INIT@12              100d8360 f   MSVCRTD:crtdll.obj
 0001:000d7650       _NtCurrentTeb              100d8650 f i MSVCRTD:crtdll.obj
 0001:000d7660       __DllMainCRTStartup@12     100d8660 f   MSVCRTD:crtdll.obj
 0001:000d7852       _vsprintf                  100d8852 f   MSVCRTD:MSVCR100D.dll
 0001:000d7860       __alloca_probe             100d8860     MSVCRTD:chkstk.obj
 0001:000d7860       __chkstk                   100d8860 f   MSVCRTD:chkstk.obj
 0001:000d7890       __onexit                   100d8890 f   MSVCRTD:atonexit.obj
 0001:000d7990       _atexit                    100d8990 f   MSVCRTD:atonexit.obj
 0001:000d79ac       _asin                      100d89ac f   MSVCRTD:MSVCR100D.dll
 0001:000d79b2       _atan2                     100d89b2 f   MSVCRTD:MSVCR100D.dll
 0001:000d79c0       __allshl                   100d89c0 f   MSVCRTD:llshl.obj
 0001:000d79e0       _fabs                      100d89e0 f   MSVCRTD:MSVCR100D.dll
 0001:000d79e6       _memcpy                    100d89e6 f   MSVCRTD:MSVCR100D.dll
 0001:000d79ec       __beginthreadex            100d89ec f   MSVCRTD:MSVCR100D.dll
 0001:000d79f2       __controlfp                100d89f2 f   MSVCRTD:MSVCR100D.dll
 0001:000d79f8       _frexp                     100d89f8 f   MSVCRTD:MSVCR100D.dll
 0001:000d79fe       _ldexp                     100d89fe f   MSVCRTD:MSVCR100D.dll
 0001:000d7a10       __aullshr                  100d8a10 f   MSVCRTD:ullshr.obj
 0001:000d7a30       __allmul                   100d8a30 f   MSVCRTD:llmul.obj
 0001:000d7a64       _sprintf                   100d8a64 f   MSVCRTD:MSVCR100D.dll
 0001:000d7a6a       __purecall                 100d8a6a f   MSVCRTD:MSVCR100D.dll
 0001:000d7a70       ??3@YAXPAX@Z               100d8a70 f   MSVCRTD:MSVCR100D.dll
 0001:000d7a76       _log                       100d8a76 f   MSVCRTD:MSVCR100D.dll
 0001:000d7a7c       _pow                       100d8a7c f   MSVCRTD:MSVCR100D.dll
 0001:000d7a82       _acos                      100d8a82 f   MSVCRTD:MSVCR100D.dll
 0001:000d7a88       _strcpy                    100d8a88 f   MSVCRTD:MSVCR100D.dll
 0001:000d7a90       ___sse2_available_init     100d8a90 f   MSVCRTD:cpu_disp.obj
 0001:000d7ab0       ___clean_type_info_names   100d8ab0 f   MSVCRTD:tncleanup.obj
 0001:000d7ad0       __RTC_Initialize           100d8ad0 f   MSVCRTD:_initsect_.obj
 0001:000d7b00       __RTC_Terminate            100d8b00 f   MSVCRTD:_initsect_.obj
 0001:000d7b26       __malloc_dbg               100d8b26 f   MSVCRTD:MSVCR100D.dll
 0001:000d7b2c       __free_dbg                 100d8b2c f   MSVCRTD:MSVCR100D.dll
 0001:000d7b32       __encoded_null             100d8b32 f   MSVCRTD:MSVCR100D.dll
 0001:000d7b38       __CrtSetCheckCount         100d8b38 f   MSVCRTD:MSVCR100D.dll
 0001:000d7b40       __ValidateImageBase        100d8b40 f   MSVCRTD:pesect.obj
 0001:000d7ba0       __FindPESection            100d8ba0 f   MSVCRTD:pesect.obj
 0001:000d7c20       __IsNonwritableInCurrentImage 100d8c20 f   MSVCRTD:pesect.obj
 0001:000d7d32       __initterm                 100d8d32 f   MSVCRTD:MSVCR100D.dll
 0001:000d7d38       __initterm_e               100d8d38 f   MSVCRTD:MSVCR100D.dll
 0001:000d7d3e       __amsg_exit                100d8d3e f   MSVCRTD:MSVCR100D.dll
 0001:000d7d50       ___security_init_cookie    100d8d50 f   MSVCRTD:gs_support.obj
 0001:000d7e30       ___CppXcptFilter           100d8e30 f   MSVCRTD:MSVCR100D.dll
 0001:000d7e40       __except_handler4          100d8e40 f   MSVCRTD:chandler4gs.obj
 0001:000d7e6a       __unlock                   100d8e6a f   MSVCRTD:MSVCR100D.dll
 0001:000d7e70       ___dllonexit               100d8e70 f   MSVCRTD:MSVCR100D.dll
 0001:000d7e76       __lock                     100d8e76 f   MSVCRTD:MSVCR100D.dll
 0001:000d7e7c       ___clean_type_info_names_internal 100d8e7c f   MSVCRTD:MSVCR100D.dll
 0001:000d7e82       __except_handler4_common   100d8e82 f   MSVCRTD:MSVCR100D.dll
 0001:000d7e90       @__security_check_cookie@4 100d8e90 f   MSVCRTD:secchk.obj
 0001:000d7ea0       ___report_gsfailure        100d8ea0 f   MSVCRTD:gs_report.obj
 0001:000d7fae       __crt_debugger_hook        100d8fae f   MSVCRTD:MSVCR100D.dll
 0001:000d7fb4       _OutputDebugStringA@4      100d8fb4 f   kernel32:KERNEL32.dll
 0001:000d7fba       _InterlockedExchangeAdd@8  100d8fba f   kernel32:KERNEL32.dll
 0001:000d7fc0       _GetSystemInfo@4           100d8fc0 f   kernel32:KERNEL32.dll
 0001:000d7fc6       _InitializeCriticalSection@4 100d8fc6 f   kernel32:KERNEL32.dll
 0001:000d7fcc       _CreateEventA@16           100d8fcc f   kernel32:KERNEL32.dll
 0001:000d7fd2       _CreateSemaphoreA@16       100d8fd2 f   kernel32:KERNEL32.dll
 0001:000d7fd8       _CloseHandle@4             100d8fd8 f   kernel32:KERNEL32.dll
 0001:000d7fde       _WaitForMultipleObjects@16 100d8fde f   kernel32:KERNEL32.dll
 0001:000d7fe4       _DeleteCriticalSection@4   100d8fe4 f   kernel32:KERNEL32.dll
 0001:000d7fea       _SetEvent@4                100d8fea f   kernel32:KERNEL32.dll
 0001:000d7ff0       _Sleep@4                   100d8ff0 f   kernel32:KERNEL32.dll
 0001:000d7ff6       _LeaveCriticalSection@4    100d8ff6 f   kernel32:KERNEL32.dll
 0001:000d7ffc       _ReleaseSemaphore@12       100d8ffc f   kernel32:KERNEL32.dll
 0001:000d8002       _EnterCriticalSection@4    100d9002 f   kernel32:KERNEL32.dll
 0001:000d8008       _WaitForSingleObject@8     100d9008 f   kernel32:KERNEL32.dll
 0001:000d800e       _InterlockedIncrement@4    100d900e f   kernel32:KERNEL32.dll
 0001:000d8014       _InterlockedDecrement@4    100d9014 f   kernel32:KERNEL32.dll
 0001:000d801a       _InterlockedExchange@8     100d901a f   kernel32:KERNEL32.dll
 0001:000d8020       _EncodePointer@4           100d9020 f   kernel32:KERNEL32.dll
 0001:000d8026       _DecodePointer@4           100d9026 f   kernel32:KERNEL32.dll
 0001:000d802c       _InterlockedCompareExchange@12 100d902c f   kernel32:KERNEL32.dll
 0001:000d8032       _IsProcessorFeaturePresent@4 100d9032 f   kernel32:KERNEL32.dll
 0001:000d8038       _QueryPerformanceCounter@4 100d9038 f   kernel32:KERNEL32.dll
 0001:000d803e       _GetTickCount@0            100d903e f   kernel32:KERNEL32.dll
 0001:000d8044       _GetCurrentThreadId@0      100d9044 f   kernel32:KERNEL32.dll
 0001:000d804a       _GetCurrentProcessId@0     100d904a f   kernel32:KERNEL32.dll
 0001:000d8050       _GetSystemTimeAsFileTime@4 100d9050 f   kernel32:KERNEL32.dll
 0001:000d8056       _TerminateProcess@8        100d9056 f   kernel32:KERNEL32.dll
 0001:000d805c       _GetCurrentProcess@0       100d905c f   kernel32:KERNEL32.dll
 0001:000d8062       _UnhandledExceptionFilter@4 100d9062 f   kernel32:KERNEL32.dll
 0001:000d8068       _SetUnhandledExceptionFilter@4 100d9068 f   kernel32:KERNEL32.dll
 0001:000d806e       _IsDebuggerPresent@0       100d906e f   kernel32:KERNEL32.dll
 0001:000d8080       ?GetMinMax@@YAXAAVdgVector@@0QBMHH@Z 100d9080 f   core:dgTypes.obj
 0001:000d8260       ?GetMinMax@@YAXAAVdgBigVector@@0QBNHH@Z 100d9260 f   core:dgTypes.obj
 0001:000d8450       ?dgGetCpuType@@YA?AW4dgCpuClass@@XZ 100d9450 f   core:dgTypes.obj
 0001:000d8620       ?dgVertexListToIndexList@@YAHQANHHHQAHN@Z 100d9620 f   core:dgTypes.obj
 0001:000d9640       ?dgVertexListToIndexList@@YAHQAMHHHHQAHM@Z 100da640 f   core:dgTypes.obj
 0001:000d97c0       ??$Swap@N@@YAXAAN0@Z       100da7c0 f i core:dgTypes.obj
 0001:000d97f0       ??0dgFastRayTest@@QAE@ABVdgVector@@0@Z 100da7f0 f   core:dgIntersections.obj
 0001:000d9bd0       ?BoxTestSimd@dgFastRayTest@@QBEHABVdgVector@@0@Z 100dabd0 f   core:dgIntersections.obj
 0001:000d9ec0       ?BoxTest@dgFastRayTest@@QBEHABVdgVector@@0@Z 100daec0 f   core:dgIntersections.obj
 0001:000da040       ?PolygonIntersectSimd@dgFastRayTest@@QBEMABVdgVector@@QBMHQBHH@Z 100db040 f   core:dgIntersections.obj
 0001:000da840       ?PolygonIntersect@dgFastRayTest@@QBEMABVdgVector@@QBMHQBHH@Z 100db840 f   core:dgIntersections.obj
 0001:000dac50       ?dgRayBoxClip@@YA_NAAVdgVector@@0ABV1@1@Z 100dbc50 f   core:dgIntersections.obj
 0001:000db010       ?dgPointToRayDistance@@YA?AVdgVector@@ABV1@00@Z 100dc010 f   core:dgIntersections.obj
 0001:000db0d0       ?dgRayToRayDistance@@YAXABVdgVector@@000AAV1@1@Z 100dc0d0 f   core:dgIntersections.obj
 0001:000db470       ?dgPointToTriangleDistance@@YA?AVdgVector@@ABV1@000@Z 100dc470 f   core:dgIntersections.obj
 0001:000dbb60       ?dgPointToTriangleDistance@@YA?AVdgBigVector@@ABV1@000@Z 100dcb60 f   core:dgIntersections.obj
 0001:000dc210       ?dgPointToPolygonDistance@@YA_NABVdgVector@@QBMHQBHHMAAV1@@Z 100dd210 f   core:dgIntersections.obj
 0001:000dc3e0       ?LineTriangleIntersection@@YA?AVdgBigVector@@ABV1@0000@Z 100dd3e0 f   core:dgIntersections.obj
 0001:000dca80       ??0dgBigVector@@QAE@PBM@Z  100dda80 f i core:dgIntersections.obj
 0001:000dcbf0       ??0dgConvexHull3DFace@@QAE@XZ 100ddbf0 f   core:dgConvexHull3d.obj
 0001:000dcc30       ?Evalue@dgConvexHull3DFace@@ABENQBVdgBigVector@@ABV2@@Z 100ddc30 f   core:dgConvexHull3d.obj
 0001:000dd000       ?GetPlaneEquation@dgConvexHull3DFace@@ABE?AVdgBigPlane@@QBVdgBigVector@@@Z 100de000 f   core:dgConvexHull3d.obj
 0001:000dd0c0       ??0dgConvexHull3d@@IAE@QAVdgMemoryAllocator@@@Z 100de0c0 f   core:dgConvexHull3d.obj
 0001:000dd110       ??0dgConvexHull3d@@QAE@QAVdgMemoryAllocator@@QBNHHNH@Z 100de110 f   core:dgConvexHull3d.obj
 0001:000dd180       ??1dgConvexHull3d@@UAE@XZ  100de180 f   core:dgConvexHull3d.obj
 0001:000dd1b0       ?BuildHull@dgConvexHull3d@@IAEXQBNHHNH@Z 100de1b0 f   core:dgConvexHull3d.obj
 0001:000dd2c0       ?ConvexCompareVertex@dgConvexHull3d@@KAHQBVdgHullVertex@@0QAX@Z 100de2c0 f   core:dgConvexHull3d.obj
 0001:000dd340       ?BuildTree@dgConvexHull3d@@IBEPAVdgAABBPointTree3d@@QAV2@QAVdgHullVertex@@HHQAPADAAH@Z 100de340 f   core:dgConvexHull3d.obj
 0001:000ddc20       ?InitVertexArray@dgConvexHull3d@@MAEHQAVdgHullVertex@@QBNHHQAXH@Z 100dec20 f   core:dgConvexHull3d.obj
 0001:000deaa0       ?TetrahedrumVolume@dgConvexHull3d@@IBENABVdgBigVector@@000@Z 100dfaa0 f   core:dgConvexHull3d.obj
 0001:000deb40       ?TessellateTriangle@dgConvexHull3d@@IBEXHABVdgVector@@00AAHQAVdgBigVector@@1@Z 100dfb40 f   core:dgConvexHull3d.obj
 0001:000df080       ?SupportVertex@dgConvexHull3d@@IBEHQAPAVdgAABBPointTree3d@@QBVdgHullVertex@@ABVdgBigVector@@@Z 100e0080 f   core:dgConvexHull3d.obj
 0001:000df7f0       ?BuildNormalList@dgConvexHull3d@@IBEHQAVdgBigVector@@@Z 100e07f0 f   core:dgConvexHull3d.obj
 0001:000dfa50       ?AddFace@dgConvexHull3d@@MAEPAVdgListNode@?$dgList@VdgConvexHull3DFace@@@@HHH@Z 100e0a50 f   core:dgConvexHull3d.obj
 0001:000dfaa0       ?DeleteFace@dgConvexHull3d@@MAEXQAVdgListNode@?$dgList@VdgConvexHull3DFace@@@@@Z 100e0aa0 f   core:dgConvexHull3d.obj
 0001:000dfac0       ?Sanity@dgConvexHull3d@@IBE_NXZ 100e0ac0 f   core:dgConvexHull3d.obj
 0001:000dfad0       ?CalculateConvexHull@dgConvexHull3d@@IAEXPAVdgAABBPointTree3d@@QAVdgHullVertex@@HNH@Z 100e0ad0 f   core:dgConvexHull3d.obj
 0001:000e0570       ?CalculateVolumeAndSurfaceArea@dgConvexHull3d@@QBEXAAN0@Z 100e1570 f   core:dgConvexHull3d.obj
 0001:000e06f0       ?FaceRayCast@dgConvexHull3d@@IBENQBVdgConvexHull3DFace@@ABVdgBigVector@@1AAN@Z 100e16f0 f   core:dgConvexHull3d.obj
 0001:000e0840       ?RayCastBruteForce@dgConvexHull3d@@QBENABVdgBigVector@@0@Z 100e1840 f   core:dgConvexHull3d.obj
 0001:000e0ab0       ?RayCast@dgConvexHull3d@@QBENABVdgBigVector@@0PAPBVdgConvexHull3DFace@@@Z 100e1ab0 f   core:dgConvexHull3d.obj
 0001:000e0e70       ??_GdgConvexHull3d@@UAEPAXI@Z 100e1e70 f i core:dgConvexHull3d.obj
 0001:000e0e70       ??_EdgConvexHull3d@@UAEPAXI@Z 100e1e70 f i core:dgConvexHull3d.obj
 0001:000e0ea0       ??2@YAPAXIPAX@Z            100e1ea0 f i core:dgConvexHull3d.obj
 0001:000e0eb0       ??0dgAABBPointTree3d@@QAE@XZ 100e1eb0 f i core:dgConvexHull3d.obj
 0001:000e0ef0       ??0dgAABBPointTree3dClump@@QAE@XZ 100e1ef0 f i core:dgConvexHull3d.obj
 0001:000e0f10       ??1?$dgDownHeap@VdgConvexHullRayCastData@@N@@QAE@XZ 100e1f10 f i core:dgConvexHull3d.obj
 0001:000e0f30       ??3?$dgList@VdgConvexHull3DFace@@@@SAXQAX@Z 100e1f30 f i core:dgConvexHull3d.obj
 0001:000e0f50       ?GetInfo@dgListNode@?$dgList@PAVdgListNode@?$dgList@VdgConvexHull3DFace@@@@@@QAEAAPAV1?$dgList@VdgConvexHull3DFace@@@@XZ 100e1f50 f i core:dgConvexHull3d.obj
 0001:000e0f70       ??0?$dgList@VdgConvexHull3DFace@@@@QAE@QAVdgMemoryAllocator@@@Z 100e1f70 f i core:dgConvexHull3d.obj
 0001:000e0fb0       ??1?$dgList@VdgConvexHull3DFace@@@@UAE@XZ 100e1fb0 f i core:dgConvexHull3d.obj
 0001:000e0fd0       ?GetAllocator@?$dgList@VdgConvexHull3DFace@@@@QBEPAVdgMemoryAllocator@@XZ 100e1fd0 f i core:dgConvexHull3d.obj
 0001:000e0ff0       ?Append@?$dgList@VdgConvexHull3DFace@@@@QAEPAVdgListNode@1@XZ 100e1ff0 f i core:dgConvexHull3d.obj
 0001:000e10b0       ?Remove@?$dgList@VdgConvexHull3DFace@@@@QAEXQAVdgListNode@1@@Z 100e20b0 f i core:dgConvexHull3d.obj
 0001:000e1100       ??0?$dgStack@VdgHullVertex@@@@QAE@H@Z 100e2100 f i core:dgConvexHull3d.obj
 0001:000e1130       ??1?$dgStack@VdgHullVertex@@@@QAE@XZ 100e2130 f i core:dgConvexHull3d.obj
 0001:000e1150       ??A?$dgStack@VdgHullVertex@@@@QAEAAVdgHullVertex@@H@Z 100e2150 f i core:dgConvexHull3d.obj
 0001:000e11d0       ??0?$dgStack@VdgAABBPointTree3dClump@@@@QAE@H@Z 100e21d0 f i core:dgConvexHull3d.obj
 0001:000e1200       ??1?$dgStack@VdgAABBPointTree3dClump@@@@QAE@XZ 100e2200 f i core:dgConvexHull3d.obj
 0001:000e1220       ?GetSizeInBytes@?$dgStack@VdgAABBPointTree3dClump@@@@QBEHXZ 100e2220 f i core:dgConvexHull3d.obj
 0001:000e1240       ??A?$dgStack@VdgAABBPointTree3dClump@@@@QAEAAVdgAABBPointTree3dClump@@H@Z 100e2240 f i core:dgConvexHull3d.obj
 0001:000e12d0       ??$Swap@VdgHullVertex@@@@YAXAAVdgHullVertex@@0@Z 100e22d0 f i core:dgConvexHull3d.obj
 0001:000e1320       ??$dgSort@VdgHullVertex@@@@YAXQAVdgHullVertex@@HP6AHQBV0@1QAX@Z2@Z 100e2320 f i core:dgConvexHull3d.obj
 0001:000e17c0       ??0?$dgList@PAVdgListNode@?$dgList@VdgConvexHull3DFace@@@@@@QAE@QAVdgMemoryAllocator@@@Z 100e27c0 f i core:dgConvexHull3d.obj
 0001:000e1800       ??1?$dgList@PAVdgListNode@?$dgList@VdgConvexHull3DFace@@@@@@UAE@XZ 100e2800 f i core:dgConvexHull3d.obj
 0001:000e1820       ?GetCount@?$dgList@PAVdgListNode@?$dgList@VdgConvexHull3DFace@@@@@@QBEHXZ 100e2820 f i core:dgConvexHull3d.obj
 0001:000e1840       ?GetFirst@?$dgList@PAVdgListNode@?$dgList@VdgConvexHull3DFace@@@@@@QBEPAVdgListNode@1@XZ 100e2840 f i core:dgConvexHull3d.obj
 0001:000e1860       ?Append@?$dgList@PAVdgListNode@?$dgList@VdgConvexHull3DFace@@@@@@QAEPAVdgListNode@1@ABQAV2?$dgList@VdgConvexHull3DFace@@@@@Z 100e2860 f i core:dgConvexHull3d.obj
 0001:000e1920       ?Addtop@?$dgList@PAVdgListNode@?$dgList@VdgConvexHull3DFace@@@@@@QAEPAVdgListNode@1@ABQAV2?$dgList@VdgConvexHull3DFace@@@@@Z 100e2920 f i core:dgConvexHull3d.obj
 0001:000e19e0       ?Remove@?$dgList@PAVdgListNode@?$dgList@VdgConvexHull3DFace@@@@@@QAEXABQAVdgListNode@?$dgList@VdgConvexHull3DFace@@@@@Z 100e29e0 f i core:dgConvexHull3d.obj
 0001:000e1a10       ??0?$dgStack@PAVdgListNode@?$dgList@VdgConvexHull3DFace@@@@@@QAE@H@Z 100e2a10 f i core:dgConvexHull3d.obj
 0001:000e1a40       ??1?$dgStack@PAVdgListNode@?$dgList@VdgConvexHull3DFace@@@@@@QAE@XZ 100e2a40 f i core:dgConvexHull3d.obj
 0001:000e1a60       ?GetElementsCount@?$dgStack@PAVdgListNode@?$dgList@VdgConvexHull3DFace@@@@@@QBEHXZ 100e2a60 f i core:dgConvexHull3d.obj
 0001:000e1a80       ??A?$dgStack@PAVdgListNode@?$dgList@VdgConvexHull3DFace@@@@@@QAEAAPAVdgListNode@?$dgList@VdgConvexHull3DFace@@@@H@Z 100e2a80 f i core:dgConvexHull3d.obj
 0001:000e1b00       ??1?$dgHeapBase@VdgConvexHullRayCastData@@N@@IAE@XZ 100e2b00 f i core:dgConvexHull3d.obj
 0001:000e1b30       ?Value@?$dgHeapBase@VdgConvexHullRayCastData@@N@@QBENH@Z 100e2b30 f i core:dgConvexHull3d.obj
 0001:000e1b50       ?GetCount@?$dgHeapBase@VdgConvexHullRayCastData@@N@@QBEHXZ 100e2b50 f i core:dgConvexHull3d.obj
 0001:000e1b60       ??A?$dgHeapBase@VdgConvexHullRayCastData@@N@@QBEABVdgConvexHullRayCastData@@H@Z 100e2b60 f i core:dgConvexHull3d.obj
 0001:000e1bb0       ??0?$dgDownHeap@VdgConvexHullRayCastData@@N@@QAE@QBXH@Z 100e2bb0 f i core:dgConvexHull3d.obj
 0001:000e1bd0       ?Pop@?$dgDownHeap@VdgConvexHullRayCastData@@N@@QAEXXZ 100e2bd0 f i core:dgConvexHull3d.obj
 0001:000e1d20       ?Push@?$dgDownHeap@VdgConvexHullRayCastData@@N@@QAEXAAVdgConvexHullRayCastData@@N@Z 100e2d20 f i core:dgConvexHull3d.obj
 0001:000e1e70       ??_E?$dgList@VdgConvexHull3DFace@@@@UAEPAXI@Z 100e2e70 f i core:dgConvexHull3d.obj
 0001:000e1e70       ??_G?$dgList@VdgConvexHull3DFace@@@@UAEPAXI@Z 100e2e70 f i core:dgConvexHull3d.obj
 0001:000e1ea0       ??_E?$dgList@PAVdgListNode@?$dgList@VdgConvexHull3DFace@@@@@@UAEPAXI@Z 100e2ea0 f i core:dgConvexHull3d.obj
 0001:000e1ea0       ??_G?$dgList@PAVdgListNode@?$dgList@VdgConvexHull3DFace@@@@@@UAEPAXI@Z 100e2ea0 f i core:dgConvexHull3d.obj
 0001:000e1ed0       ??2dgListNode@?$dgList@VdgConvexHull3DFace@@@@CAPAXIQAVdgMemoryAllocator@@@Z 100e2ed0 f i core:dgConvexHull3d.obj
 0001:000e1ef0       ??0dgListNode@?$dgList@VdgConvexHull3DFace@@@@AAE@QAV01@0@Z 100e2ef0 f i core:dgConvexHull3d.obj
 0001:000e1f50       ??_EdgListNode@?$dgList@VdgConvexHull3DFace@@@@EAEPAXI@Z 100e2f50 f i core:dgConvexHull3d.obj
 0001:000e1f50       ??_GdgListNode@?$dgList@VdgConvexHull3DFace@@@@EAEPAXI@Z 100e2f50 f i core:dgConvexHull3d.obj
 0001:000e1f80       ??1dgListNode@?$dgList@VdgConvexHull3DFace@@@@EAE@XZ 100e2f80 f i core:dgConvexHull3d.obj
 0001:000e1fa0       ??3dgListNode@?$dgList@VdgConvexHull3DFace@@@@CAXQAX@Z 100e2fa0 f i core:dgConvexHull3d.obj
 0001:000e1fc0       ??3?$dgList@PAVdgListNode@?$dgList@VdgConvexHull3DFace@@@@@@SAXQAX@Z 100e2fc0 f i core:dgConvexHull3d.obj
 0001:000e1fe0       ??2dgListNode@?$dgList@PAVdgListNode@?$dgList@VdgConvexHull3DFace@@@@@@CAPAXIQAVdgMemoryAllocator@@@Z 100e2fe0 f i core:dgConvexHull3d.obj
 0001:000e2000       ??0dgListNode@?$dgList@PAVdgListNode@?$dgList@VdgConvexHull3DFace@@@@@@AAE@ABQAV0?$dgList@VdgConvexHull3DFace@@@@QAV01@1@Z 100e3000 f i core:dgConvexHull3d.obj
 0001:000e2060       ??_EdgListNode@?$dgList@PAVdgListNode@?$dgList@VdgConvexHull3DFace@@@@@@EAEPAXI@Z 100e3060 f i core:dgConvexHull3d.obj
 0001:000e2060       ??_GdgListNode@?$dgList@PAVdgListNode@?$dgList@VdgConvexHull3DFace@@@@@@EAEPAXI@Z 100e3060 f i core:dgConvexHull3d.obj
 0001:000e2090       ??1dgListNode@?$dgList@PAVdgListNode@?$dgList@VdgConvexHull3DFace@@@@@@EAE@XZ 100e3090 f i core:dgConvexHull3d.obj
 0001:000e20b0       ??3dgListNode@?$dgList@PAVdgListNode@?$dgList@VdgConvexHull3DFace@@@@@@CAXQAX@Z 100e30b0 f i core:dgConvexHull3d.obj
 0001:000e20d0       ?RemoveAll@?$dgList@VdgConvexHull3DFace@@@@QAEXXZ 100e30d0 f i core:dgConvexHull3d.obj
 0001:000e2190       ?Unlink@?$dgList@VdgConvexHull3DFace@@@@QAEXQAVdgListNode@1@@Z 100e3190 f i core:dgConvexHull3d.obj
 0001:000e2240       ?Find@?$dgList@PAVdgListNode@?$dgList@VdgConvexHull3DFace@@@@@@QBEPAVdgListNode@1@ABQAV2?$dgList@VdgConvexHull3DFace@@@@@Z 100e3240 f i core:dgConvexHull3d.obj
 0001:000e2280       ?Remove@?$dgList@PAVdgListNode@?$dgList@VdgConvexHull3DFace@@@@@@QAEXQAVdgListNode@1@@Z 100e3280 f i core:dgConvexHull3d.obj
 0001:000e22d0       ?RemoveAll@?$dgList@PAVdgListNode@?$dgList@VdgConvexHull3DFace@@@@@@QAEXXZ 100e32d0 f i core:dgConvexHull3d.obj
 0001:000e2390       ??0?$dgHeapBase@VdgConvexHullRayCastData@@N@@IAE@QBXH@Z 100e3390 f i core:dgConvexHull3d.obj
 0001:000e23d0       ?Unlink@dgListNode@?$dgList@VdgConvexHull3DFace@@@@AAEXXZ 100e33d0 f i core:dgConvexHull3d.obj
 0001:000e2420       ?GetPrev@dgListNode@?$dgList@VdgConvexHull3DFace@@@@QBEPAV12@XZ 100e3420 f i core:dgConvexHull3d.obj
 0001:000e2440       ?Unlink@dgListNode@?$dgList@PAVdgListNode@?$dgList@VdgConvexHull3DFace@@@@@@AAEXXZ 100e3440 f i core:dgConvexHull3d.obj
 0001:000e2490       ?GetNext@dgListNode@?$dgList@PAVdgListNode@?$dgList@VdgConvexHull3DFace@@@@@@QBEPAV12@XZ 100e3490 f i core:dgConvexHull3d.obj
 0001:000e24b0       ?Unlink@?$dgList@PAVdgListNode@?$dgList@VdgConvexHull3DFace@@@@@@QAEXQAVdgListNode@1@@Z 100e34b0 f i core:dgConvexHull3d.obj
 0001:000e2560       ?Flush@?$dgHeapBase@VdgConvexHullRayCastData@@N@@QAEXXZ 100e3560 f i core:dgConvexHull3d.obj
 0001:000e2580       ?GetPrev@dgListNode@?$dgList@PAVdgListNode@?$dgList@VdgConvexHull3DFace@@@@@@QBEPAV12@XZ 100e3580 f i core:dgConvexHull3d.obj
 0001:000e2e30       ??0dgAABBPolygonSoup@@IAE@XZ 100e3e30 f   core:dgAABBPolygonSoup.obj
 0001:000e2e80       ??1dgAABBPolygonSoup@@MAE@XZ 100e3e80 f   core:dgAABBPolygonSoup.obj
 0001:000e2ed0       ?GetRootNode@dgAABBPolygonSoup@@IBEPAXXZ 100e3ed0 f   core:dgAABBPolygonSoup.obj
 0001:000e2ef0       ?GetBackNode@dgAABBPolygonSoup@@IBEPAXQBX@Z 100e3ef0 f   core:dgAABBPolygonSoup.obj
 0001:000e2f40       ?GetFrontNode@dgAABBPolygonSoup@@IBEPAXQBX@Z 100e3f40 f   core:dgAABBPolygonSoup.obj
 0001:000e2f90       ?GetNodeAABB@dgAABBPolygonSoup@@IBEXQBXAAVdgVector@@1@Z 100e3f90 f   core:dgAABBPolygonSoup.obj
 0001:000e3090       ?ForAllSectorsSimd@dgAABBPolygonSoup@@MBEXABVdgVector@@0P6A?AW4dgIntersectStatus@@PAXQBMHQBHH@ZQAX@Z 100e4090 f   core:dgAABBPolygonSoup.obj
 0001:000e30e0       ?ForAllSectors@dgAABBPolygonSoup@@MBEXABVdgVector@@0P6A?AW4dgIntersectStatus@@PAXQBMHQBHH@ZQAX@Z 100e40e0 f   core:dgAABBPolygonSoup.obj
 0001:000e3130       ?ForAllSectorsSupportVectex@dgAABBPolygonSoup@@MBE?AVdgVector@@ABV2@@Z 100e4130 f   core:dgAABBPolygonSoup.obj
 0001:000e31a0       ?GetAABB@dgAABBPolygonSoup@@UBEXAAVdgVector@@0@Z 100e41a0 f   core:dgAABBPolygonSoup.obj
 0001:000e32c0       ?ForAllSectorsRayHit@dgAABBPolygonSoup@@MBEXABVdgFastRayTest@@P6AMPAXQBMHQBHH@ZQAX@Z 100e42c0 f   core:dgAABBPolygonSoup.obj
 0001:000e3310       ?ForAllSectorsRayHitSimd@dgAABBPolygonSoup@@MBEXABVdgFastRayTest@@P6AMPAXQBMHQBHH@ZQAX@Z 100e4310 f   core:dgAABBPolygonSoup.obj
 0001:000e3360       ?Serialize@dgAABBPolygonSoup@@UBEXP6AXQAXQBXI@Z0@Z 100e4360 f   core:dgAABBPolygonSoup.obj
 0001:000e3420       ?Deserialize@dgAABBPolygonSoup@@UAEXP6AXQAXPAXI@Z0@Z 100e4420 f   core:dgAABBPolygonSoup.obj
 0001:000e3550       ?CalculateThisFaceEdgeNormals@dgAABBPolygonSoup@@CA?AW4dgIntersectStatus@@PAXQBMHQBHH@Z 100e4550 f   core:dgAABBPolygonSoup.obj
 0001:000e36f0       ?CalculateAllFaceEdgeNormals@dgAABBPolygonSoup@@CA?AW4dgIntersectStatus@@PAXQBMHQBHH@Z 100e46f0 f   core:dgAABBPolygonSoup.obj
 0001:000e3a90       ?CalculateFaceMaxSize@dgAABBPolygonSoup@@IBEMQAVdgTriplex@@HQBH@Z 100e4a90 f   core:dgAABBPolygonSoup.obj
 0001:000e3d40       ?Create@dgAABBPolygonSoup@@IAEXABVdgPolygonSoupDatabaseBuilder@@_N@Z 100e4d40 f   core:dgAABBPolygonSoup.obj
 0001:000e4390       ??0dgPolygonSoupDatabase@@IAE@PBD@Z 100e5390 f i core:dgAABBPolygonSoup.obj
 0001:000e43d0       ??_GdgPolygonSoupDatabase@@MAEPAXI@Z 100e53d0 f i core:dgAABBPolygonSoup.obj
 0001:000e43d0       ??_EdgPolygonSoupDatabase@@MAEPAXI@Z 100e53d0 f i core:dgAABBPolygonSoup.obj
 0001:000e4400       ??1dgPolygonSoupDatabase@@MAE@XZ 100e5400 f i core:dgAABBPolygonSoup.obj
 0001:000e4430       ?ForAllSectorsSimd@dgPolygonSoupDatabase@@MBEXABVdgVector@@0P6A?AW4dgIntersectStatus@@PAXQBMHQBHH@ZQAX@Z 100e5430 f i core:dgAABBPolygonSoup.obj
 0001:000e4460       ?ForAllSectors@dgPolygonSoupDatabase@@MBEXABVdgVector@@0P6A?AW4dgIntersectStatus@@PAXQBMHQBHH@ZQAX@Z 100e5460 f i core:dgAABBPolygonSoup.obj
 0001:000e44a0       ?GetAABB@dgPolygonSoupDatabase@@UBEXAAVdgVector@@0@Z 100e54a0 f i core:dgAABBPolygonSoup.obj
 0001:000e44b0       ?ForAllSectorsRayHit@dgPolygonSoupDatabase@@MBEXABVdgFastRayTest@@P6AMPAXQBMHQBHH@ZQAX@Z 100e54b0 f i core:dgAABBPolygonSoup.obj
 0001:000e44f0       ?ForAllSectorsRayHitSimd@dgPolygonSoupDatabase@@MBEXABVdgFastRayTest@@P6AMPAXQBMHQBHH@ZQAX@Z 100e54f0 f i core:dgAABBPolygonSoup.obj
 0001:000e4530       ??_GdgAABBPolygonSoup@@MAEPAXI@Z 100e5530 f i core:dgAABBPolygonSoup.obj
 0001:000e4530       ??_EdgAABBPolygonSoup@@MAEPAXI@Z 100e5530 f i core:dgAABBPolygonSoup.obj
 0001:000e4560       ?IsLeaf@TreeNode@dgAABBTree@@QBEIXZ 100e5560 f i core:dgAABBPolygonSoup.obj
 0001:000e4580       ?GetNode@TreeNode@dgAABBTree@@QBEPAV2@PBX@Z 100e5580 f i core:dgAABBPolygonSoup.obj
 0001:000e45a0       ?ForAllSectorsSimd@dgAABBTree@@QBEXQBHQBMABVdgVector@@2P6A?AW4dgIntersectStatus@@PAX1H0H@ZQAX@Z 100e55a0 f i core:dgAABBPolygonSoup.obj
 0001:000e47d0       ?GetCount@TreeNode@dgAABBTree@@QBEIXZ 100e57d0 f i core:dgAABBPolygonSoup.obj
 0001:000e4820       ?GetIndex@TreeNode@dgAABBTree@@QBEIXZ 100e5820 f i core:dgAABBPolygonSoup.obj
 0001:000e4860       ?BoxIntersectSimd@dgAABBTree@@QBEHQBVdgTriplex@@ABVdgVector@@1@Z 100e5860 f i core:dgAABBPolygonSoup.obj
 0001:000e4980       ?ForAllSectors@dgAABBTree@@QBEXQBHQBMABVdgVector@@2P6A?AW4dgIntersectStatus@@PAX1H0H@ZQAX@Z 100e5980 f i core:dgAABBPolygonSoup.obj
 0001:000e4bb0       ?BoxIntersect@dgAABBTree@@QBEHQBVdgTriplex@@ABVdgVector@@1@Z 100e5bb0 f i core:dgAABBPolygonSoup.obj
 0001:000e4c50       ?ForAllSectorsSupportVertex@dgAABBTree@@QBE?AVdgVector@@ABV2@QBHQBM@Z 100e5c50 f i core:dgAABBPolygonSoup.obj
 0001:000e54d0       ?ForAllSectorsRayHit@dgAABBTree@@QBEXABVdgFastRayTest@@PBHPBMP6AMPAXQBMHQBHH@ZQAX@Z 100e64d0 f i core:dgAABBPolygonSoup.obj
 0001:000e5830       ?RayTest@dgAABBTree@@QBEHABVdgFastRayTest@@QBVdgTriplex@@@Z 100e6830 f i core:dgAABBPolygonSoup.obj
 0001:000e59f0       ?ForAllSectorsRayHitSimd@dgAABBTree@@QBEXABVdgFastRayTest@@PBHPBMP6AMPAXQBMHQBHH@ZQAX@Z 100e69f0 f i core:dgAABBPolygonSoup.obj
 0001:000e5d50       ?RayTestSimd@dgAABBTree@@QBEHABVdgFastRayTest@@QBVdgTriplex@@@Z 100e6d50 f i core:dgAABBPolygonSoup.obj
 0001:000e6130       ??0AdjacentdFaces@@QAE@XZ  100e7130 f i core:dgAABBPolygonSoup.obj
 0001:000e6150       ??0TreeNode@dgAABBTree@@QAE@II@Z 100e7150 f i core:dgAABBPolygonSoup.obj
 0001:000e61a0       ?CalcExtends@dgAABBTree@@QAEXQAVdgTriplex@@HQBH@Z 100e71a0 f i core:dgAABBPolygonSoup.obj
 0001:000e6390       ?BuildTopDown@dgAABBTree@@QAEHQAVdgMemoryAllocator@@HQAV1@QAVdgTriplex@@AAH_N@Z 100e7390 f i core:dgAABBPolygonSoup.obj
 0001:000e6480       ?BuildTree@dgAABBTree@@QAEHQAVdgConstructionTree@1@QAV1@1QAVdgTriplex@@AAH@Z 100e7480 f i core:dgAABBPolygonSoup.obj
 0001:000e66f0       ??0TreeNode@dgAABBTree@@QAE@I@Z 100e76f0 f i core:dgAABBPolygonSoup.obj
 0001:000e6740       ?ImproveTotalFitness@dgAABBTree@@QAEPAVdgConstructionTree@1@QAV21@QAV1@QAVdgMemoryAllocator@@@Z 100e7740 f i core:dgAABBPolygonSoup.obj
 0001:000e6850       ?PushNodes@dgAABBTree@@QBEXQAVdgConstructionTree@1@AAV?$dgList@PAVdgConstructionTree@dgAABBTree@@@@@Z 100e7850 f i core:dgAABBPolygonSoup.obj
 0001:000e68b0       ?CalculateMaximunDepth@dgAABBTree@@QBEHPAVdgConstructionTree@1@@Z 100e78b0 f i core:dgAABBPolygonSoup.obj
 0001:000e6a40       ?ImproveNodeFitness@dgAABBTree@@QBEXQAVdgConstructionTree@1@@Z 100e7a40 f i core:dgAABBPolygonSoup.obj
 0001:000e6fd0       ?CalculateArea@dgAABBTree@@QBEMQAVdgConstructionTree@1@0@Z 100e7fd0 f i core:dgAABBPolygonSoup.obj
 0001:000e7120       ?SetBox@dgAABBTree@@QBEXQAVdgConstructionTree@1@@Z 100e8120 f i core:dgAABBPolygonSoup.obj
 0001:000e7290       ?TotalFitness@dgAABBTree@@QBENAAV?$dgList@PAVdgConstructionTree@dgAABBTree@@@@@Z 100e8290 f i core:dgAABBPolygonSoup.obj
 0001:000e72e0       ?BuildTree@dgAABBTree@@QAEPAVdgConstructionTree@1@QAVdgMemoryAllocator@@HHQAV1@QBVdgTriplex@@PAV21@@Z 100e82e0 f i core:dgAABBPolygonSoup.obj
 0001:000e75c0       ??2dgConstructionTree@dgAABBTree@@SAPAXIQAVdgMemoryAllocator@@@Z 100e85c0 f i core:dgAABBPolygonSoup.obj
 0001:000e75e0       ??0dgConstructionTree@dgAABBTree@@QAE@XZ 100e85e0 f i core:dgAABBPolygonSoup.obj
 0001:000e7610       ??_GdgConstructionTree@dgAABBTree@@QAEPAXI@Z 100e8610 f i core:dgAABBPolygonSoup.obj
 0001:000e7640       ??3dgConstructionTree@dgAABBTree@@SAXQAX@Z 100e8640 f i core:dgAABBPolygonSoup.obj
 0001:000e7660       ??1dgConstructionTree@dgAABBTree@@QAE@XZ 100e8660 f i core:dgAABBPolygonSoup.obj
 0001:000e76e0       ?GetInfo@dgListNode@?$dgList@PAVdgConstructionTree@dgAABBTree@@@@QAEAAPAVdgConstructionTree@dgAABBTree@@XZ 100e86e0 f i core:dgAABBPolygonSoup.obj
 0001:000e7700       ?GetNext@dgListNode@?$dgList@PAVdgConstructionTree@dgAABBTree@@@@QBEPAV12@XZ 100e8700 f i core:dgAABBPolygonSoup.obj
 0001:000e7720       ??A?$dgArray@H@@QBEABHH@Z  100e8720 f i core:dgAABBPolygonSoup.obj
 0001:000e7780       ??0?$dgList@PAVdgConstructionTree@dgAABBTree@@@@QAE@QAVdgMemoryAllocator@@@Z 100e8780 f i core:dgAABBPolygonSoup.obj
 0001:000e77c0       ??1?$dgList@PAVdgConstructionTree@dgAABBTree@@@@UAE@XZ 100e87c0 f i core:dgAABBPolygonSoup.obj
 0001:000e77e0       ?GetCount@?$dgList@PAVdgConstructionTree@dgAABBTree@@@@QBEHXZ 100e87e0 f i core:dgAABBPolygonSoup.obj
 0001:000e7800       ?GetLast@?$dgList@PAVdgConstructionTree@dgAABBTree@@@@QBEPAVdgListNode@1@XZ 100e8800 f i core:dgAABBPolygonSoup.obj
 0001:000e7820       ?GetFirst@?$dgList@PAVdgConstructionTree@dgAABBTree@@@@QBEPAVdgListNode@1@XZ 100e8820 f i core:dgAABBPolygonSoup.obj
 0001:000e7840       ?Append@?$dgList@PAVdgConstructionTree@dgAABBTree@@@@QAEPAVdgListNode@1@ABQAVdgConstructionTree@dgAABBTree@@@Z 100e8840 f i core:dgAABBPolygonSoup.obj
 0001:000e7900       ??0?$dgStack@VdgAABBTree@@@@QAE@H@Z 100e8900 f i core:dgAABBPolygonSoup.obj
 0001:000e7930       ??1?$dgStack@VdgAABBTree@@@@QAE@XZ 100e8930 f i core:dgAABBPolygonSoup.obj
 0001:000e7950       ??A?$dgStack@VdgAABBTree@@@@QAEAAVdgAABBTree@@H@Z 100e8950 f i core:dgAABBPolygonSoup.obj
 0001:000e79d0       ??$Swap@VdgAABBTree@@@@YAXAAVdgAABBTree@@0@Z 100e89d0 f i core:dgAABBPolygonSoup.obj
 0001:000e7a30       ??_G?$dgList@PAVdgConstructionTree@dgAABBTree@@@@UAEPAXI@Z 100e8a30 f i core:dgAABBPolygonSoup.obj
 0001:000e7a30       ??_E?$dgList@PAVdgConstructionTree@dgAABBTree@@@@UAEPAXI@Z 100e8a30 f i core:dgAABBPolygonSoup.obj
 0001:000e7a60       ??3?$dgList@PAVdgConstructionTree@dgAABBTree@@@@SAXQAX@Z 100e8a60 f i core:dgAABBPolygonSoup.obj
 0001:000e7a80       ??2dgListNode@?$dgList@PAVdgConstructionTree@dgAABBTree@@@@CAPAXIQAVdgMemoryAllocator@@@Z 100e8a80 f i core:dgAABBPolygonSoup.obj
 0001:000e7aa0       ??0dgListNode@?$dgList@PAVdgConstructionTree@dgAABBTree@@@@AAE@ABQAVdgConstructionTree@dgAABBTree@@QAV01@1@Z 100e8aa0 f i core:dgAABBPolygonSoup.obj
 0001:000e7b00       ??_GdgListNode@?$dgList@PAVdgConstructionTree@dgAABBTree@@@@EAEPAXI@Z 100e8b00 f i core:dgAABBPolygonSoup.obj
 0001:000e7b00       ??_EdgListNode@?$dgList@PAVdgConstructionTree@dgAABBTree@@@@EAEPAXI@Z 100e8b00 f i core:dgAABBPolygonSoup.obj
 0001:000e7b30       ??1dgListNode@?$dgList@PAVdgConstructionTree@dgAABBTree@@@@EAE@XZ 100e8b30 f i core:dgAABBPolygonSoup.obj
 0001:000e7b50       ??3dgListNode@?$dgList@PAVdgConstructionTree@dgAABBTree@@@@CAXQAX@Z 100e8b50 f i core:dgAABBPolygonSoup.obj
 0001:000e7b70       ?Resize@?$dgArray@H@@QBEXH@Z 100e8b70 f i core:dgAABBPolygonSoup.obj
 0001:000e7cd0       ?RemoveAll@?$dgList@PAVdgConstructionTree@dgAABBTree@@@@QAEXXZ 100e8cd0 f i core:dgAABBPolygonSoup.obj
 0001:000e7d90       ?Unlink@dgListNode@?$dgList@PAVdgConstructionTree@dgAABBTree@@@@AAEXXZ 100e8d90 f i core:dgAABBPolygonSoup.obj
 0001:000e7de0       ??0dgPolygonSoupDatabaseBuilder@@QAE@QAVdgMemoryAllocator@@@Z 100e8de0 f   core:dgPolygonSoupBuilder.obj
 0001:000e7e80       ??1dgPolygonSoupDatabaseBuilder@@QAE@XZ 100e8e80 f   core:dgPolygonSoupBuilder.obj
 0001:000e7ed0       ?Begin@dgPolygonSoupDatabaseBuilder@@QAEXXZ 100e8ed0 f   core:dgPolygonSoupBuilder.obj
 0001:000e7f10       ?AddMesh@dgPolygonSoupDatabaseBuilder@@QAEXQBMHHHQBH11ABVdgMatrix@@@Z 100e8f10 f   core:dgPolygonSoupBuilder.obj
 0001:000e83f0       ?PackArray@dgPolygonSoupDatabaseBuilder@@AAEXXZ 100e93f0 f   core:dgPolygonSoupBuilder.obj
 0001:000e8500       ?SingleFaceFixup@dgPolygonSoupDatabaseBuilder@@QAEXXZ 100e9500 f   core:dgPolygonSoupBuilder.obj
 0001:000e85c0       ?EndAndOptimize@dgPolygonSoupDatabaseBuilder@@AAEX_N@Z 100e95c0 f   core:dgPolygonSoupBuilder.obj
 0001:000e8700       ?OptimizeByGroupID@dgPolygonSoupDatabaseBuilder@@AAEXXZ 100e9700 f   core:dgPolygonSoupBuilder.obj
 0001:000e8b10       ?OptimizeByGroupID@dgPolygonSoupDatabaseBuilder@@AAEXAAV1@HH0@Z 100e9b10 f   core:dgPolygonSoupBuilder.obj
 0001:000e9150       ?OptimizeByIndividualFaces@dgPolygonSoupDatabaseBuilder@@AAEXXZ 100ea150 f   core:dgPolygonSoupBuilder.obj
 0001:000e92b0       ?End@dgPolygonSoupDatabaseBuilder@@QAEX_N@Z 100ea2b0 f   core:dgPolygonSoupBuilder.obj
 0001:000e95a0       ?Optimize@dgPolygonSoupDatabaseBuilder@@AAEX_N@Z 100ea5a0 f   core:dgPolygonSoupBuilder.obj
 0001:000ea090       ?FilterFace@dgPolygonSoupDatabaseBuilder@@AAEHHQAH@Z 100eb090 f   core:dgPolygonSoupBuilder.obj
 0001:000ead40       ?AddConvexFace@dgPolygonSoupDatabaseBuilder@@AAEHHQAH0@Z 100ebd40 f   core:dgPolygonSoupBuilder.obj
 0001:000eb760       ??0VertexArray@dgPolygonSoupDatabaseBuilder@@QAE@QAVdgMemoryAllocator@@@Z 100ec760 f i core:dgPolygonSoupBuilder.obj
 0001:000eb790       ??0IndexArray@dgPolygonSoupDatabaseBuilder@@QAE@QAVdgMemoryAllocator@@@Z 100ec790 f i core:dgPolygonSoupBuilder.obj
 0001:000eb7c0       ??1IndexArray@dgPolygonSoupDatabaseBuilder@@QAE@XZ 100ec7c0 f i core:dgPolygonSoupBuilder.obj
 0001:000eb7e0       ??1VertexArray@dgPolygonSoupDatabaseBuilder@@QAE@XZ 100ec7e0 f i core:dgPolygonSoupBuilder.obj
 0001:000eb800       ??0dgPolySoupFilterAllocator@@QAE@QAVdgMemoryAllocator@@@Z 100ec800 f i core:dgPolygonSoupBuilder.obj
 0001:000eb830       ??1dgPolySoupFilterAllocator@@UAE@XZ 100ec830 f i core:dgPolygonSoupBuilder.obj
 0001:000eb850       ?AddFilterFace@dgPolySoupFilterAllocator@@QAEHIQAH@Z 100ec850 f i core:dgPolygonSoupBuilder.obj
 0001:000eb9a0       ??_EdgPolySoupFilterAllocator@@UAEPAXI@Z 100ec9a0 f i core:dgPolygonSoupBuilder.obj
 0001:000eb9a0       ??_GdgPolySoupFilterAllocator@@UAEPAXI@Z 100ec9a0 f i core:dgPolygonSoupBuilder.obj
 0001:000eb9d0       ??0?$dgArray@H@@QAE@HQAVdgMemoryAllocator@@@Z 100ec9d0 f i core:dgPolygonSoupBuilder.obj
 0001:000eba10       ??1?$dgArray@H@@QAE@XZ     100eca10 f i core:dgPolygonSoupBuilder.obj
 0001:000eba40       ??A?$dgArray@H@@QAEAAHH@Z  100eca40 f i core:dgPolygonSoupBuilder.obj
 0001:000ebaa0       ??0dgQuaternion@@QAE@ABVdgMatrix@@@Z 100ecaa0 f   core:dgQuaternion.obj
 0001:000ebf30       ??0dgQuaternion@@QAE@ABVdgVector@@M@Z 100ecf30 f   core:dgQuaternion.obj
 0001:000ec010       ?CalcAverageOmega@dgQuaternion@@QBE?AVdgVector@@ABV1@M@Z 100ed010 f   core:dgQuaternion.obj
 0001:000ec070       ?Slerp@dgQuaternion@@QBE?AV1@ABV1@M@Z 100ed070 f   core:dgQuaternion.obj
 0001:000ec0b0       ??0dgDelaunayTetrahedralization@@QAE@QAVdgMemoryAllocator@@QBNHHN@Z 100ed0b0 f   core:dgDelaunayTetrahedralization.obj
 0001:000ec3a0       ??1dgDelaunayTetrahedralization@@UAE@XZ 100ed3a0 f   core:dgDelaunayTetrahedralization.obj
 0001:000ec3c0       ?AddVertex@dgDelaunayTetrahedralization@@UAEHABVdgBigVector@@@Z 100ed3c0 f   core:dgDelaunayTetrahedralization.obj
 0001:000ec450       ?CompareVertexByIndex@dgDelaunayTetrahedralization@@KAHQBVdgHullVector@@0QAX@Z 100ed450 f   core:dgDelaunayTetrahedralization.obj
 0001:000ec490       ?SortVertexArray@dgDelaunayTetrahedralization@@IAEXXZ 100ed490 f   core:dgDelaunayTetrahedralization.obj
 0001:000ec580       ?RemoveUpperHull@dgDelaunayTetrahedralization@@QAEXXZ 100ed580 f   core:dgDelaunayTetrahedralization.obj
 0001:000ec630       ?DeleteFace@dgDelaunayTetrahedralization@@MAEXQAVdgListNode@?$dgList@VdgConvexHull4dTetraherum@@@@@Z 100ed630 f   core:dgDelaunayTetrahedralization.obj
 0001:000ec6d0       ?GetTetraVolume@dgDelaunayTetrahedralization@@IBENQBVdgConvexHull4dTetraherum@@@Z 100ed6d0 f   core:dgDelaunayTetrahedralization.obj
 0001:000ecad0       ??_EdgDelaunayTetrahedralization@@UAEPAXI@Z 100edad0 f i core:dgDelaunayTetrahedralization.obj
 0001:000ecad0       ??_GdgDelaunayTetrahedralization@@UAEPAXI@Z 100edad0 f i core:dgDelaunayTetrahedralization.obj
 0001:000ecb00       ?SetMark@dgConvexHull4dTetraherum@@QAEXH@Z 100edb00 f i core:dgDelaunayTetrahedralization.obj
 0001:000ecb20       ??3?$dgList@VdgConvexHull4dTetraherum@@@@SAXQAX@Z 100edb20 f i core:dgDelaunayTetrahedralization.obj
 0001:000ecb40       ??A?$dgArray@VdgHullVector@@@@QAEAAVdgHullVector@@H@Z 100edb40 f i core:dgDelaunayTetrahedralization.obj
 0001:000ecba0       ??$dgSort@VdgHullVector@@@@YAXQAVdgHullVector@@HP6AHQBV0@1QAX@Z2@Z 100edba0 f i core:dgDelaunayTetrahedralization.obj
 0001:000ed040       ??0dgTetrahedrumPlane@dgConvexHull4dTetraherum@@QAE@ABVdgBigVector@@000@Z 100ee040 f   core:dgConvexHull4d.obj
 0001:000ed150       ?Evalue@dgTetrahedrumPlane@dgConvexHull4dTetraherum@@QBENABVdgBigVector@@@Z 100ee150 f   core:dgConvexHull4d.obj
 0001:000ed180       ??0dgConvexHull4dTetraherum@@QAE@XZ 100ee180 f   core:dgConvexHull4d.obj
 0001:000ed1b0       ?Init@dgConvexHull4dTetraherum@@AAEXQBVdgHullVector@@HHHH@Z 100ee1b0 f   core:dgConvexHull4d.obj
 0001:000ed390       ?Evalue@dgConvexHull4dTetraherum@@QBENQBVdgHullVector@@ABVdgBigVector@@@Z 100ee390 f   core:dgConvexHull4d.obj
 0001:000ed840       ?CircumSphereCenter@dgConvexHull4dTetraherum@@QBE?AVdgBigVector@@QBVdgHullVector@@@Z 100ee840 f   core:dgConvexHull4d.obj
 0001:000edc90       ?GetPlaneEquation@dgConvexHull4dTetraherum@@QBE?AVdgTetrahedrumPlane@1@QBVdgHullVector@@@Z 100eec90 f   core:dgConvexHull4d.obj
 0001:000edd00       ??0dgConvexHull4d@@IAE@QAVdgMemoryAllocator@@@Z 100eed00 f   core:dgConvexHull4d.obj
 0001:000edd60       ??0dgConvexHull4d@@QAE@QAVdgMemoryAllocator@@QBVdgBigVector@@HM@Z 100eed60 f   core:dgConvexHull4d.obj
 0001:000edde0       ??1dgConvexHull4d@@UAE@XZ  100eede0 f   core:dgConvexHull4d.obj
 0001:000ede10       ?BuildHull@dgConvexHull4d@@IAEXQAVdgMemoryAllocator@@QBVdgBigVector@@HN@Z 100eee10 f   core:dgConvexHull4d.obj
 0001:000edf20       ?TessellateTriangle@dgConvexHull4d@@IBEXHABVdgVector@@00AAHQAVdgBigVector@@1@Z 100eef20 f   core:dgConvexHull4d.obj
 0001:000ee460       ?BuildNormalList@dgConvexHull4d@@IBEHQAVdgBigVector@@@Z 100ef460 f   core:dgConvexHull4d.obj
 0001:000ee6c0       ?SupportVertex@dgConvexHull4d@@IBEHQAPAVdgAABBPointTree4d@@QBVdgHullVector@@ABVdgBigVector@@@Z 100ef6c0 f   core:dgConvexHull4d.obj
 0001:000eef00       ?ConvexCompareVertex@dgConvexHull4d@@KAHQBVdgHullVector@@0QAX@Z 100eff00 f   core:dgConvexHull4d.obj
 0001:000eef80       ?BuildTree@dgConvexHull4d@@IBEPAVdgAABBPointTree4d@@QAV2@QAVdgHullVector@@HHQAPADAAH@Z 100eff80 f   core:dgConvexHull4d.obj
 0001:000ef940       ?InitVertexArray@dgConvexHull4d@@MAEHQAVdgHullVector@@QBVdgBigVector@@HQAXH@Z 100f0940 f   core:dgConvexHull4d.obj
 0001:000f0170       ?AddFace@dgConvexHull4d@@MAEPAVdgListNode@?$dgList@VdgConvexHull4dTetraherum@@@@HHHH@Z 100f1170 f   core:dgConvexHull4d.obj
 0001:000f01c0       ?DeleteFace@dgConvexHull4d@@MAEXQAVdgListNode@?$dgList@VdgConvexHull4dTetraherum@@@@@Z 100f11c0 f   core:dgConvexHull4d.obj
 0001:000f01e0       ?Sanity@dgConvexHull4d@@IBE_NXZ 100f11e0 f   core:dgConvexHull4d.obj
 0001:000f0260       ?LinkSibling@dgConvexHull4d@@IBEXPAVdgListNode@?$dgList@VdgConvexHull4dTetraherum@@@@0@Z 100f1260 f   core:dgConvexHull4d.obj
 0001:000f0390       ?InsertNewVertex@dgConvexHull4d@@IAEXHQAVdgListNode@?$dgList@VdgConvexHull4dTetraherum@@@@AAV?$dgList@PAVdgListNode@?$dgList@VdgConvexHull4dTetraherum@@@@@@1@Z 100f1390 f   core:dgConvexHull4d.obj
 0001:000f0890       ?CalculateConvexHull@dgConvexHull4d@@IAEXPAVdgAABBPointTree4d@@QAVdgHullVector@@HN@Z 100f1890 f   core:dgConvexHull4d.obj
 0001:000f0b50       ?FindFacingNode@dgConvexHull4d@@IAEPAVdgListNode@?$dgList@VdgConvexHull4dTetraherum@@@@ABVdgBigVector@@@Z 100f1b50 f   core:dgConvexHull4d.obj
 0001:000f0e70       ?AddVertex@dgConvexHull4d@@MAEHABVdgBigVector@@@Z 100f1e70 f   core:dgConvexHull4d.obj
 0001:000f0fb0       ??_GdgConvexHull4d@@UAEPAXI@Z 100f1fb0 f i core:dgConvexHull4d.obj
 0001:000f0fb0       ??_EdgConvexHull4d@@UAEPAXI@Z 100f1fb0 f i core:dgConvexHull4d.obj
 0001:000f0fe0       ??0dgAABBPointTree4d@@QAE@XZ 100f1fe0 f i core:dgConvexHull4d.obj
 0001:000f1020       ??0dgAABBPointTree4dClump@@QAE@XZ 100f2020 f i core:dgConvexHull4d.obj
 0001:000f1040       ??4dgHullVector@@QAEXABVdgBigVector@@@Z 100f2040 f i core:dgConvexHull4d.obj
 0001:000f1090       ?GetMark@dgConvexHull4dTetraherum@@QBEHXZ 100f2090 f i core:dgConvexHull4d.obj
 0001:000f10b0       ?IncMark@dgConvexHull4d@@QAEHXZ 100f20b0 f i core:dgConvexHull4d.obj
 0001:000f10d0       ??1?$dgDownHeap@PAVdgListNode@?$dgList@VdgConvexHull4dTetraherum@@@@N@@QAE@XZ 100f20d0 f i core:dgConvexHull4d.obj
 0001:000f10f0       ?GetInfo@dgListNode@?$dgList@PAVdgListNode@?$dgList@VdgConvexHull4dTetraherum@@@@@@QAEAAPAV1?$dgList@VdgConvexHull4dTetraherum@@@@XZ 100f20f0 f i core:dgConvexHull4d.obj
 0001:000f1110       ?GetNext@dgListNode@?$dgList@PAVdgListNode@?$dgList@VdgConvexHull4dTetraherum@@@@@@QBEPAV12@XZ 100f2110 f i core:dgConvexHull4d.obj
 0001:000f1130       ??0Iterator@?$dgTree@PAVdgListNode@?$dgList@VdgConvexHull4dTetraherum@@@@PAV12@@@QAE@ABV1@@Z 100f2130 f i core:dgConvexHull4d.obj
 0001:000f1160       ??1Iterator@?$dgTree@PAVdgListNode@?$dgList@VdgConvexHull4dTetraherum@@@@PAV12@@@QAE@XZ 100f2160 f i core:dgConvexHull4d.obj
 0001:000f1170       ?Begin@Iterator@?$dgTree@PAVdgListNode@?$dgList@VdgConvexHull4dTetraherum@@@@PAV12@@@QAEXXZ 100f2170 f i core:dgConvexHull4d.obj
 0001:000f1190       ??BIterator@?$dgTree@PAVdgListNode@?$dgList@VdgConvexHull4dTetraherum@@@@PAV12@@@QBEHXZ 100f2190 f i core:dgConvexHull4d.obj
 0001:000f11b0       ??EIterator@?$dgTree@PAVdgListNode@?$dgList@VdgConvexHull4dTetraherum@@@@PAV12@@@QAEXH@Z 100f21b0 f i core:dgConvexHull4d.obj
 0001:000f1200       ?GetNode@Iterator@?$dgTree@PAVdgListNode@?$dgList@VdgConvexHull4dTetraherum@@@@PAV12@@@QBEPAVdgTreeNode@2@XZ 100f2200 f i core:dgConvexHull4d.obj
 0001:000f1210       ?GetInfo@dgTreeNode@?$dgTree@PAVdgListNode@?$dgList@VdgConvexHull4dTetraherum@@@@PAV12@@@QAEAAPAVdgListNode@?$dgList@VdgConvexHull4dTetraherum@@@@XZ 100f2210 f i core:dgConvexHull4d.obj
 0001:000f1230       ?Scale4@?$dgTemplateVector@N@@QBE?AV1@N@Z 100f2230 f i core:dgConvexHull4d.obj
 0001:000f1290       ?Add4@?$dgTemplateVector@N@@QBE?AV1@ABV1@@Z 100f2290 f i core:dgConvexHull4d.obj
 0001:000f12f0       ?Sub4@?$dgTemplateVector@N@@QBE?AV1@ABV1@@Z 100f22f0 f i core:dgConvexHull4d.obj
 0001:000f1350       ?DotProduct4@?$dgTemplateVector@N@@QBENABV1@@Z 100f2350 f i core:dgConvexHull4d.obj
 0001:000f13a0       ?CrossProduct4@?$dgTemplateVector@N@@QBE?AV1@ABV1@0@Z 100f23a0 f i core:dgConvexHull4d.obj
 0001:000f15e0       ?CompProduct4@?$dgTemplateVector@N@@QBE?AV1@ABV1@@Z 100f25e0 f i core:dgConvexHull4d.obj
 0001:000f1640       ??0?$dgList@VdgConvexHull4dTetraherum@@@@QAE@QAVdgMemoryAllocator@@@Z 100f2640 f i core:dgConvexHull4d.obj
 0001:000f1680       ??1?$dgList@VdgConvexHull4dTetraherum@@@@UAE@XZ 100f2680 f i core:dgConvexHull4d.obj
 0001:000f16a0       ?GetAllocator@?$dgList@VdgConvexHull4dTetraherum@@@@QBEPAVdgMemoryAllocator@@XZ 100f26a0 f i core:dgConvexHull4d.obj
 0001:000f16c0       ?Append@?$dgList@VdgConvexHull4dTetraherum@@@@QAEPAVdgListNode@1@XZ 100f26c0 f i core:dgConvexHull4d.obj
 0001:000f1780       ?Remove@?$dgList@VdgConvexHull4dTetraherum@@@@QAEXQAVdgListNode@1@@Z 100f2780 f i core:dgConvexHull4d.obj
 0001:000f17d0       ??0?$dgArray@VdgHullVector@@@@QAE@HQAVdgMemoryAllocator@@@Z 100f27d0 f i core:dgConvexHull4d.obj
 0001:000f1810       ??1?$dgArray@VdgHullVector@@@@QAE@XZ 100f2810 f i core:dgConvexHull4d.obj
 0001:000f1840       ??0?$dgStack@VdgHullVector@@@@QAE@H@Z 100f2840 f i core:dgConvexHull4d.obj
 0001:000f1870       ??1?$dgStack@VdgHullVector@@@@QAE@XZ 100f2870 f i core:dgConvexHull4d.obj
 0001:000f1890       ??A?$dgStack@VdgHullVector@@@@QAEAAVdgHullVector@@H@Z 100f2890 f i core:dgConvexHull4d.obj
 0001:000f1910       ??0?$dgStack@VdgAABBPointTree4dClump@@@@QAE@H@Z 100f2910 f i core:dgConvexHull4d.obj
 0001:000f1940       ??1?$dgStack@VdgAABBPointTree4dClump@@@@QAE@XZ 100f2940 f i core:dgConvexHull4d.obj
 0001:000f1960       ?GetSizeInBytes@?$dgStack@VdgAABBPointTree4dClump@@@@QBEHXZ 100f2960 f i core:dgConvexHull4d.obj
 0001:000f1980       ??A?$dgStack@VdgAABBPointTree4dClump@@@@QAEAAVdgAABBPointTree4dClump@@H@Z 100f2980 f i core:dgConvexHull4d.obj
 0001:000f1a10       ??$Swap@VdgHullVector@@@@YAXAAVdgHullVector@@0@Z 100f2a10 f i core:dgConvexHull4d.obj
 0001:000f1a60       ??0?$dgList@PAVdgListNode@?$dgList@VdgConvexHull4dTetraherum@@@@@@QAE@QAVdgMemoryAllocator@@@Z 100f2a60 f i core:dgConvexHull4d.obj
 0001:000f1aa0       ??1?$dgList@PAVdgListNode@?$dgList@VdgConvexHull4dTetraherum@@@@@@UAE@XZ 100f2aa0 f i core:dgConvexHull4d.obj
 0001:000f1ac0       ?GetCount@?$dgList@PAVdgListNode@?$dgList@VdgConvexHull4dTetraherum@@@@@@QBEHXZ 100f2ac0 f i core:dgConvexHull4d.obj
 0001:000f1ae0       ?GetLast@?$dgList@PAVdgListNode@?$dgList@VdgConvexHull4dTetraherum@@@@@@QBEPAVdgListNode@1@XZ 100f2ae0 f i core:dgConvexHull4d.obj
 0001:000f1b00       ?GetFirst@?$dgList@PAVdgListNode@?$dgList@VdgConvexHull4dTetraherum@@@@@@QBEPAVdgListNode@1@XZ 100f2b00 f i core:dgConvexHull4d.obj
 0001:000f1b20       ?Append@?$dgList@PAVdgListNode@?$dgList@VdgConvexHull4dTetraherum@@@@@@QAEPAVdgListNode@1@ABQAV2?$dgList@VdgConvexHull4dTetraherum@@@@@Z 100f2b20 f i core:dgConvexHull4d.obj
 0001:000f1be0       ?Addtop@?$dgList@PAVdgListNode@?$dgList@VdgConvexHull4dTetraherum@@@@@@QAEPAVdgListNode@1@ABQAV2?$dgList@VdgConvexHull4dTetraherum@@@@@Z 100f2be0 f i core:dgConvexHull4d.obj
 0001:000f1ca0       ?Remove@?$dgList@PAVdgListNode@?$dgList@VdgConvexHull4dTetraherum@@@@@@QAEXABQAVdgListNode@?$dgList@VdgConvexHull4dTetraherum@@@@@Z 100f2ca0 f i core:dgConvexHull4d.obj
 0001:000f1cd0       ?Remove@?$dgList@PAVdgListNode@?$dgList@VdgConvexHull4dTetraherum@@@@@@QAEXQAVdgListNode@1@@Z 100f2cd0 f i core:dgConvexHull4d.obj
 0001:000f1d20       ??0?$dgTree@PAVdgListNode@?$dgList@VdgConvexHull4dTetraherum@@@@PAV12@@@QAE@QAVdgMemoryAllocator@@@Z 100f2d20 f i core:dgConvexHull4d.obj
 0001:000f1d60       ??1?$dgTree@PAVdgListNode@?$dgList@VdgConvexHull4dTetraherum@@@@PAV12@@@UAE@XZ 100f2d60 f i core:dgConvexHull4d.obj
 0001:000f1d80       ?Minimum@?$dgTree@PAVdgListNode@?$dgList@VdgConvexHull4dTetraherum@@@@PAV12@@@QBEPAVdgTreeNode@1@XZ 100f2d80 f i core:dgConvexHull4d.obj
 0001:000f1db0       ?Find@?$dgTree@PAVdgListNode@?$dgList@VdgConvexHull4dTetraherum@@@@PAV12@@@QBEPAVdgTreeNode@1@PAVdgListNode@?$dgList@VdgConvexHull4dTetraherum@@@@@Z 100f2db0 f i core:dgConvexHull4d.obj
 0001:000f1ed0       ?Insert@?$dgTree@PAVdgListNode@?$dgList@VdgConvexHull4dTetraherum@@@@PAV12@@@QAEPAVdgTreeNode@1@ABQAVdgListNode@?$dgList@VdgConvexHull4dTetraherum@@@@PAV34@@Z 100f2ed0 f i core:dgConvexHull4d.obj
 0001:000f1f10       ??1?$dgHeapBase@PAVdgListNode@?$dgList@VdgConvexHull4dTetraherum@@@@N@@IAE@XZ 100f2f10 f i core:dgConvexHull4d.obj
 0001:000f1f40       ?Value@?$dgHeapBase@PAVdgListNode@?$dgList@VdgConvexHull4dTetraherum@@@@N@@QBENH@Z 100f2f40 f i core:dgConvexHull4d.obj
 0001:000f1f60       ?GetCount@?$dgHeapBase@PAVdgListNode@?$dgList@VdgConvexHull4dTetraherum@@@@N@@QBEHXZ 100f2f60 f i core:dgConvexHull4d.obj
 0001:000f1f70       ?GetMaxCount@?$dgHeapBase@PAVdgListNode@?$dgList@VdgConvexHull4dTetraherum@@@@N@@QBEHXZ 100f2f70 f i core:dgConvexHull4d.obj
 0001:000f1f90       ??A?$dgHeapBase@PAVdgListNode@?$dgList@VdgConvexHull4dTetraherum@@@@N@@QBEABQAVdgListNode@?$dgList@VdgConvexHull4dTetraherum@@@@H@Z 100f2f90 f i core:dgConvexHull4d.obj
 0001:000f1fe0       ??0?$dgDownHeap@PAVdgListNode@?$dgList@VdgConvexHull4dTetraherum@@@@N@@QAE@QBXH@Z 100f2fe0 f i core:dgConvexHull4d.obj
 0001:000f2000       ?Pop@?$dgDownHeap@PAVdgListNode@?$dgList@VdgConvexHull4dTetraherum@@@@N@@QAEXXZ 100f3000 f i core:dgConvexHull4d.obj
 0001:000f2130       ?Push@?$dgDownHeap@PAVdgListNode@?$dgList@VdgConvexHull4dTetraherum@@@@N@@QAEXAAPAVdgListNode@?$dgList@VdgConvexHull4dTetraherum@@@@N@Z 100f3130 f i core:dgConvexHull4d.obj
 0001:000f2260       ?Remove@?$dgDownHeap@PAVdgListNode@?$dgList@VdgConvexHull4dTetraherum@@@@N@@QAEXH@Z 100f3260 f i core:dgConvexHull4d.obj
 0001:000f2390       ??_G?$dgList@VdgConvexHull4dTetraherum@@@@UAEPAXI@Z 100f3390 f i core:dgConvexHull4d.obj
 0001:000f2390       ??_E?$dgList@VdgConvexHull4dTetraherum@@@@UAEPAXI@Z 100f3390 f i core:dgConvexHull4d.obj
 0001:000f23c0       ??_E?$dgList@PAVdgListNode@?$dgList@VdgConvexHull4dTetraherum@@@@@@UAEPAXI@Z 100f33c0 f i core:dgConvexHull4d.obj
 0001:000f23c0       ??_G?$dgList@PAVdgListNode@?$dgList@VdgConvexHull4dTetraherum@@@@@@UAEPAXI@Z 100f33c0 f i core:dgConvexHull4d.obj
 0001:000f23f0       ??_E?$dgTree@PAVdgListNode@?$dgList@VdgConvexHull4dTetraherum@@@@PAV12@@@UAEPAXI@Z 100f33f0 f i core:dgConvexHull4d.obj
 0001:000f23f0       ??_G?$dgTree@PAVdgListNode@?$dgList@VdgConvexHull4dTetraherum@@@@PAV12@@@UAEPAXI@Z 100f33f0 f i core:dgConvexHull4d.obj
 0001:000f2420       ??2dgListNode@?$dgList@VdgConvexHull4dTetraherum@@@@CAPAXIQAVdgMemoryAllocator@@@Z 100f3420 f i core:dgConvexHull4d.obj
 0001:000f2440       ??0dgListNode@?$dgList@VdgConvexHull4dTetraherum@@@@AAE@QAV01@0@Z 100f3440 f i core:dgConvexHull4d.obj
 0001:000f24a0       ??_GdgListNode@?$dgList@VdgConvexHull4dTetraherum@@@@EAEPAXI@Z 100f34a0 f i core:dgConvexHull4d.obj
 0001:000f24a0       ??_EdgListNode@?$dgList@VdgConvexHull4dTetraherum@@@@EAEPAXI@Z 100f34a0 f i core:dgConvexHull4d.obj
 0001:000f24d0       ??1dgListNode@?$dgList@VdgConvexHull4dTetraherum@@@@EAE@XZ 100f34d0 f i core:dgConvexHull4d.obj
 0001:000f24f0       ??3dgListNode@?$dgList@VdgConvexHull4dTetraherum@@@@CAXQAX@Z 100f34f0 f i core:dgConvexHull4d.obj
 0001:000f2510       ??3?$dgList@PAVdgListNode@?$dgList@VdgConvexHull4dTetraherum@@@@@@SAXQAX@Z 100f3510 f i core:dgConvexHull4d.obj
 0001:000f2530       ??2dgListNode@?$dgList@PAVdgListNode@?$dgList@VdgConvexHull4dTetraherum@@@@@@CAPAXIQAVdgMemoryAllocator@@@Z 100f3530 f i core:dgConvexHull4d.obj
 0001:000f2550       ??0dgListNode@?$dgList@PAVdgListNode@?$dgList@VdgConvexHull4dTetraherum@@@@@@AAE@ABQAV0?$dgList@VdgConvexHull4dTetraherum@@@@QAV01@1@Z 100f3550 f i core:dgConvexHull4d.obj
 0001:000f25b0       ??_EdgListNode@?$dgList@PAVdgListNode@?$dgList@VdgConvexHull4dTetraherum@@@@@@EAEPAXI@Z 100f35b0 f i core:dgConvexHull4d.obj
 0001:000f25b0       ??_GdgListNode@?$dgList@PAVdgListNode@?$dgList@VdgConvexHull4dTetraherum@@@@@@EAEPAXI@Z 100f35b0 f i core:dgConvexHull4d.obj
 0001:000f25e0       ??1dgListNode@?$dgList@PAVdgListNode@?$dgList@VdgConvexHull4dTetraherum@@@@@@EAE@XZ 100f35e0 f i core:dgConvexHull4d.obj
 0001:000f2600       ??3dgListNode@?$dgList@PAVdgListNode@?$dgList@VdgConvexHull4dTetraherum@@@@@@CAXQAX@Z 100f3600 f i core:dgConvexHull4d.obj
 0001:000f2620       ??3?$dgTree@PAVdgListNode@?$dgList@VdgConvexHull4dTetraherum@@@@PAV12@@@SAXQAX@Z 100f3620 f i core:dgConvexHull4d.obj
 0001:000f2640       ?GetLeft@dgTreeNode@?$dgTree@PAVdgListNode@?$dgList@VdgConvexHull4dTetraherum@@@@PAV12@@@ABEPAV12@XZ 100f3640 f i core:dgConvexHull4d.obj
 0001:000f2660       ?GetRight@dgTreeNode@?$dgTree@PAVdgListNode@?$dgList@VdgConvexHull4dTetraherum@@@@PAV12@@@ABEPAV12@XZ 100f3660 f i core:dgConvexHull4d.obj
 0001:000f2680       ?RemoveAll@?$dgList@VdgConvexHull4dTetraherum@@@@QAEXXZ 100f3680 f i core:dgConvexHull4d.obj
 0001:000f2740       ?Unlink@?$dgList@VdgConvexHull4dTetraherum@@@@QAEXQAVdgListNode@1@@Z 100f3740 f i core:dgConvexHull4d.obj
 0001:000f27f0       ?Find@?$dgList@PAVdgListNode@?$dgList@VdgConvexHull4dTetraherum@@@@@@QBEPAVdgListNode@1@ABQAV2?$dgList@VdgConvexHull4dTetraherum@@@@@Z 100f37f0 f i core:dgConvexHull4d.obj
 0001:000f2830       ?RemoveAll@?$dgList@PAVdgListNode@?$dgList@VdgConvexHull4dTetraherum@@@@@@QAEXXZ 100f3830 f i core:dgConvexHull4d.obj
 0001:000f28f0       ?Unlink@?$dgList@PAVdgListNode@?$dgList@VdgConvexHull4dTetraherum@@@@@@QAEXQAVdgListNode@1@@Z 100f38f0 f i core:dgConvexHull4d.obj
 0001:000f29a0       ?Insert@?$dgTree@PAVdgListNode@?$dgList@VdgConvexHull4dTetraherum@@@@PAV12@@@QAEPAVdgTreeNode@1@ABQAVdgListNode@?$dgList@VdgConvexHull4dTetraherum@@@@PAV34@AA_N@Z 100f39a0 f i core:dgConvexHull4d.obj
 0001:000f2ba0       ?RemoveAll@?$dgTree@PAVdgListNode@?$dgList@VdgConvexHull4dTetraherum@@@@PAV12@@@QAEXXZ 100f3ba0 f i core:dgConvexHull4d.obj
 0001:000f2be0       ?CompareKeys@?$dgTree@PAVdgListNode@?$dgList@VdgConvexHull4dTetraherum@@@@PAV12@@@ABEHABQAVdgListNode@?$dgList@VdgConvexHull4dTetraherum@@@@0@Z 100f3be0 f i core:dgConvexHull4d.obj
 0001:000f2c20       ??0?$dgHeapBase@PAVdgListNode@?$dgList@VdgConvexHull4dTetraherum@@@@N@@IAE@QBXH@Z 100f3c20 f i core:dgConvexHull4d.obj
 0001:000f2c60       ?Unlink@dgListNode@?$dgList@VdgConvexHull4dTetraherum@@@@AAEXXZ 100f3c60 f i core:dgConvexHull4d.obj
 0001:000f2cb0       ?GetPrev@dgListNode@?$dgList@VdgConvexHull4dTetraherum@@@@QBEPAV12@XZ 100f3cb0 f i core:dgConvexHull4d.obj
 0001:000f2cd0       ?Unlink@dgListNode@?$dgList@PAVdgListNode@?$dgList@VdgConvexHull4dTetraherum@@@@@@AAEXXZ 100f3cd0 f i core:dgConvexHull4d.obj
 0001:000f2d20       ?GetPrev@dgListNode@?$dgList@PAVdgListNode@?$dgList@VdgConvexHull4dTetraherum@@@@@@QBEPAV12@XZ 100f3d20 f i core:dgConvexHull4d.obj
 0001:000f2d40       ??0dgTreeNode@?$dgTree@PAVdgListNode@?$dgList@VdgConvexHull4dTetraherum@@@@PAV12@@@AAE@ABQAVdgListNode@?$dgList@VdgConvexHull4dTetraherum@@@@0PAV01@@Z 100f3d40 f i core:dgConvexHull4d.obj
 0001:000f2d80       ??_EdgTreeNode@?$dgTree@PAVdgListNode@?$dgList@VdgConvexHull4dTetraherum@@@@PAV12@@@EAEPAXI@Z 100f3d80 f i core:dgConvexHull4d.obj
 0001:000f2d80       ??_GdgTreeNode@?$dgTree@PAVdgListNode@?$dgList@VdgConvexHull4dTetraherum@@@@PAV12@@@EAEPAXI@Z 100f3d80 f i core:dgConvexHull4d.obj
 0001:000f2db0       ??1dgTreeNode@?$dgTree@PAVdgListNode@?$dgList@VdgConvexHull4dTetraherum@@@@PAV12@@@EAE@XZ 100f3db0 f i core:dgConvexHull4d.obj
 0001:000f2dd0       ?Flush@?$dgHeapBase@PAVdgListNode@?$dgList@VdgConvexHull4dTetraherum@@@@N@@QAEXXZ 100f3dd0 f i core:dgConvexHull4d.obj
 0001:000f2df0       ??0dgPolyhedraMassProperties@@QAE@XZ 100f3df0 f   core:dgPolyhedraMassProperties.obj
 0001:000f2e10       ?AddCGFace@dgPolyhedraMassProperties@@QAEXHPBVdgVector@@@Z 100f3e10 f   core:dgPolyhedraMassProperties.obj
 0001:000f3050       ?AddInertiaFace@dgPolyhedraMassProperties@@QAEXHPBM@Z 100f4050 f   core:dgPolyhedraMassProperties.obj
 0001:000f33d0       ?AddInertiaAndCrossFace@dgPolyhedraMassProperties@@QAEXHPBM@Z 100f43d0 f   core:dgPolyhedraMassProperties.obj
 0001:000f38c0       ?MassProperties@dgPolyhedraMassProperties@@QAEMAAVdgVector@@00@Z 100f48c0 f   core:dgPolyhedraMassProperties.obj
 0001:000f39b0       ?DJBHash@InternalCRC@@YAIQBDH@Z 100f49b0 f   core:dgCRC.obj
 0001:000f3a00       ?dgCRC@@YAIQBD@Z           100f4a00 f   core:dgCRC.obj
 0001:000f3aa0       ?dgCRC@@YAIQBXHI@Z         100f4aa0 f   core:dgCRC.obj
 0001:000f3b30       ?dgInverseCRC@@YAPBDI@Z    100f4b30 f   core:dgCRC.obj
 0001:000f3b60       ?dgHash@@YAIQBXH@Z         100f4b60 f   core:dgCRC.obj
 0001:000f3b76       __except_handler3          100f4b76 f   MSVCRTD:MSVCR100D.dll
 0002:00000000       ___xc_a                    10131000     MSVCRTD:cinitexe.obj
 0002:00000268       ___xc_z                    10131268     MSVCRTD:cinitexe.obj
 0002:0000036c       ___xi_a                    1013136c     MSVCRTD:cinitexe.obj
 0002:00000678       ___xi_z                    10131678     MSVCRTD:cinitexe.obj
 0002:000027fc       __real@42c80000            101337fc     Newton.obj
 0002:00002800       __real@c2c80000            10133800     Newton.obj
 0002:00002804       __real@3f800000            10133804     Newton.obj
 0002:00002808       __real@3ddb7cdfe0000000    10133808     Newton.obj
 0002:00002814       __real@3a83126f            10133814     Newton.obj
 0002:00002818       __real@3c888889            10133818     Newton.obj
 0002:00002820       __real@3ff0000000000000    10133820     Newton.obj
 0002:0000282c       __real@426fffff            1013382c     Newton.obj
 0002:00002830       __real@4479ffff            10133830     Newton.obj
 0002:00002834       __real@00000000            10133834     Newton.obj
 0002:00002838       __real@3e000000            10133838     Newton.obj
 0002:0000283c       __real@3c23d70a            1013383c     Newton.obj
 0002:00002840       __real@40000000            10133840     Newton.obj
 0002:00002848       __real@3f847ae140000000    10133848     Newton.obj
 0002:00002858       __real@bff0000000000000    10133858     Newton.obj
 0002:00002864       __real@3f333333            10133864     Newton.obj
 0002:00002868       __real@bf800000            10133868     Newton.obj
 0002:00002870       __real@0000000000000000    10133870     Newton.obj
 0002:00002880       __real@3eb0c6f7a0000000    10133880     Newton.obj
 0002:00002890       __real@3ee4f8b580000000    10133890     Newton.obj
 0002:000028a0       ??_C@_1MO@EMIECKPH@?$AAd?$AA?3?$AA?2?$AAp?$AAr?$AAo?$AAj?$AAe?$AAc?$AAt?$AAs?$AA?2?$AAw?$AAo?$AAr?$AAk?$AAs?$AAp?$AAa?$AAc?$AAe?$AA?2?$AAa?$AAr?$AAk?$AAa?$AAn?$AAo?$AAi?$AAd?$AA?2?$AAa@ 101338a0     Newton.obj
 0002:00002998       ??_C@_1BO@NDPCIMIO@?$AAr?$AAe?$AAt?$AA?5?$AA?$DN?$AA?$DN?$AA?5?$AAc?$AAe?$AAi?$AAl?$AA?$CI?$AAx?$AA?$CJ?$AA?$AA@ 10133998     Newton.obj
 0002:000029bc       ??_C@_1CA@BGCLIBOC@?$AAr?$AAe?$AAt?$AA?5?$AA?$DN?$AA?$DN?$AA?5?$AAf?$AAl?$AAo?$AAo?$AAr?$AA?$CI?$AAx?$AA?$CJ?$AA?$AA@ 101339bc     Newton.obj
 0002:000029e8       ??_C@_1NA@FBHBHNKL@?$AAd?$AA?3?$AA?2?$AAp?$AAr?$AAo?$AAj?$AAe?$AAc?$AAt?$AAs?$AA?2?$AAw?$AAo?$AAr?$AAk?$AAs?$AAp?$AAa?$AAc?$AAe?$AA?2?$AAa?$AAr?$AAk?$AAa?$AAn?$AAo?$AAi?$AAd?$AA?2?$AAa@ 101339e8     Newton.obj
 0002:00002ae4       ??_C@_1DA@JDEKGPJE@?$AAd?$AAg?$AAC?$AAh?$AAe?$AAc?$AAk?$AAV?$AAe?$AAc?$AAt?$AAo?$AAr?$AA?5?$AA?$CI?$AA?$CI?$AA?$CK?$AAt?$AAh?$AAi?$AAs?$AA?$CJ?$AA?$CJ?$AA?$AA@ 10133ae4     Newton.obj
 0002:00002b20       __real@58aa87bf            10133b20     Newton.obj
 0002:00002b28       __real@3f50624de0000000    10133b28     Newton.obj
 0002:00002b38       __real@4059000000000000    10133b38     Newton.obj
 0002:00002b48       __real@42fc6bf520000000    10133b48     Newton.obj
 0002:00002b58       __real@3e45798ee0000000    10133b58     Newton.obj
 0002:00002b68       ??_C@_1JK@PNNLFPPH@?$AA?$CI?$AAd?$AAg?$AAA?$AAb?$AAs?$AAf?$AA?5?$AA?$CI?$AAm?$AA_?$AAr?$AAi?$AAg?$AAh?$AAt?$AA?5?$AA?$CF?$AA?5?$AA?$CI?$AAm?$AA_?$AAf?$AAr?$AAo?$AAn?$AAt?$AA?5?$AA?$CK?$AA?5?$AAm?$AA_@ 10133b68     Newton.obj
 0002:00002c20       ??_C@_1II@JNGBILOA@?$AA?$CI?$AAd?$AAg?$AAA?$AAb?$AAs?$AAf?$AA?5?$AA?$CI?$AAm?$AA_?$AAr?$AAi?$AAg?$AAh?$AAt?$AA?5?$AA?$CF?$AA?5?$AAm?$AA_?$AAr?$AAi?$AAg?$AAh?$AAt?$AA?$CJ?$AA?5?$AA?9?$AA?5?$AAd?$AAg@ 10133c20     Newton.obj
 0002:00002cc8       ??_C@_1HM@GJAKGBDD@?$AA?$CI?$AAd?$AAg?$AAA?$AAb?$AAs?$AAf?$AA?5?$AA?$CI?$AAm?$AA_?$AAu?$AAp?$AA?5?$AA?$CF?$AA?5?$AAm?$AA_?$AAu?$AAp?$AA?$CJ?$AA?5?$AA?9?$AA?5?$AAd?$AAg?$AAF?$AAl?$AAo?$AAa?$AAt?$AA3@ 10133cc8     Newton.obj
 0002:00002d60       ??_C@_1NA@CGKIEBJJ@?$AAd?$AA?3?$AA?2?$AAp?$AAr?$AAo?$AAj?$AAe?$AAc?$AAt?$AAs?$AA?2?$AAw?$AAo?$AAr?$AAk?$AAs?$AAp?$AAa?$AAc?$AAe?$AA?2?$AAa?$AAr?$AAk?$AAa?$AAn?$AAo?$AAi?$AAd?$AA?2?$AAa@ 10133d60     Newton.obj
 0002:00002e60       ??_C@_1II@FFGMHNGG@?$AA?$CI?$AAd?$AAg?$AAA?$AAb?$AAs?$AAf?$AA?5?$AA?$CI?$AAm?$AA_?$AAf?$AAr?$AAo?$AAn?$AAt?$AA?5?$AA?$CF?$AA?5?$AAm?$AA_?$AAf?$AAr?$AAo?$AAn?$AAt?$AA?$CJ?$AA?5?$AA?9?$AA?5?$AAd?$AAg@ 10133e60     Newton.obj
 0002:00002f08       __real@3fe276c8c0000000    10133f08     Newton.obj
 0002:00002f14       ??_C@_1O@ILILCEBJ@?$AAi?$AA?5?$AA?$DO?$AA?$DN?$AA?5?$AA0?$AA?$AA@ 10133f14     Newton.obj
 0002:00002f24       ??_C@_1M@NEALEACL@?$AAi?$AA?5?$AA?$DM?$AA?5?$AA4?$AA?$AA@ 10133f24     Newton.obj
 0002:00002f38       __real@3f91df45c0000000    10133f38     Newton.obj
 0002:00002f48       __real@3feff7cee0000000    10133f48     Newton.obj
 0002:00002f58       ??_C@_1NG@KPFFHPNB@?$AAd?$AA?3?$AA?2?$AAp?$AAr?$AAo?$AAj?$AAe?$AAc?$AAt?$AAs?$AA?2?$AAw?$AAo?$AAr?$AAk?$AAs?$AAp?$AAa?$AAc?$AAe?$AA?2?$AAa?$AAr?$AAk?$AAa?$AAn?$AAo?$AAi?$AAd?$AA?2?$AAa@ 10133f58     Newton.obj
 0002:00003058       ??_C@_1DA@PEKPEHMI@?$AAm?$AA_?$AAe?$AAd?$AAg?$AAe?$AAM?$AAa?$AAr?$AAk?$AA?5?$AA?$DM?$AA?5?$AA0?$AAx?$AA7?$AAf?$AAf?$AAf?$AAf?$AAf?$AAf?$AAf?$AA?$AA@ 10134058     Newton.obj
 0002:00003094       ??_7?$dgTree@PAVdgConstraint@@PAV1@@@6B@ 10134094     Newton.obj
 0002:00003098       ??_7?$dgList@PAUNewtonCollision@@@@6B@ 10134098     Newton.obj
 0002:0000309c       ??_7dgListNode@?$dgList@PAUNewtonCollision@@@@6B@ 1013409c     Newton.obj
 0002:000030a0       __real@3f947ae140000000    101340a0     Newton.obj
 0002:000030b0       __real@3f1a36e2e0000000    101340b0     Newton.obj
 0002:000030bc       ??_7dgTreeNode@?$dgTree@PAVdgConstraint@@PAV1@@@6B@ 101340bc     Newton.obj
 0002:000030c0       ??_7dgRedBackNode@@6B@     101340c0     Newton.obj
 0002:00005d80       ??_7NewtonDeadBodies@@6B@  10136d80     NewtonClass.obj
 0002:00005d84       ??_7NewtonDeadJoints@@6B@  10136d84     NewtonClass.obj
 0002:00005d88       ??_7Newton@@6BNewtonDeadJoints@@@ 10136d88     NewtonClass.obj
 0002:00005d8c       ??_7Newton@@6BNewtonDeadBodies@@@ 10136d8c     NewtonClass.obj
 0002:00005d90       ??_7Newton@@6BdgActiveContacts@@@ 10136d90     NewtonClass.obj
 0002:00005d94       ??_7Newton@@6BdgBodyCollisionList@@@ 10136d94     NewtonClass.obj
 0002:00005d98       ??_7Newton@@6BdgBodyMaterialList@@@ 10136d98     NewtonClass.obj
 0002:00005d9c       ??_7Newton@@6BdgBodyMasterList@@@ 10136d9c     NewtonClass.obj
 0002:00005da0       ??_7NewtonUserJoint@@6B@   10136da0     NewtonClass.obj
 0002:00005ddc       __real@58635fa9            10136ddc     NewtonClass.obj
 0002:00005de0       __real@d8635fa9            10136de0     NewtonClass.obj
 0002:00005de4       __real@ba83126f            10136de4     NewtonClass.obj
 0002:00005de8       __real@4058c00000000000    10136de8     NewtonClass.obj
 0002:00005df8       ??_C@_1MM@JBHEBCEF@?$AAd?$AA?3?$AA?2?$AAp?$AAr?$AAo?$AAj?$AAe?$AAc?$AAt?$AAs?$AA?2?$AAw?$AAo?$AAr?$AAk?$AAs?$AAp?$AAa?$AAc?$AAe?$AA?2?$AAa?$AAr?$AAk?$AAa?$AAn?$AAo?$AAi?$AAd?$AA?2?$AAa@ 10136df8     NewtonClass.obj
 0002:00005eec       ??_C@_1M@IHBNDPOD@?$AAm?$AA_?$AAp?$AAt?$AAr?$AA?$AA@ 10136eec     NewtonClass.obj
 0002:00005efc       ??_7?$dgTree@PAVdgBody@@PAX@@6B@ 10136efc     NewtonClass.obj
 0002:00005f00       ??_7?$dgTree@PAVdgConstraint@@PAX@@6B@ 10136f00     NewtonClass.obj
 0002:00005f04       ??_7dgTreeNode@?$dgTree@PAVdgBody@@PAX@@6B@ 10136f04     NewtonClass.obj
 0002:00005f08       ??_7dgTreeNode@?$dgTree@PAVdgConstraint@@PAX@@6B@ 10136f08     NewtonClass.obj
 0002:00005f10       ??_C@_1PA@GFANNFFD@?$AAd?$AA?3?$AA?2?$AAp?$AAr?$AAo?$AAj?$AAe?$AAc?$AAt?$AAs?$AA?2?$AAw?$AAo?$AAr?$AAk?$AAs?$AAp?$AAa?$AAc?$AAe?$AA?2?$AAa?$AAr?$AAk?$AAa?$AAn?$AAo?$AAi?$AAd?$AA?2?$AAa@ 10136f10     NewtonClass.obj
 0002:00006030       ??_C@_13COJANIEC@?$AA0?$AA?$AA@ 10137030     NewtonClass.obj
 0002:0000684c       ??_7dgListNode@?$dgList@PAVdgMemoryAllocator@@@@6B@ 1013784c     core:dgMemory.obj
 0002:00006850       ??_7dgGlobalAllocator@@6B@ 10137850     core:dgMemory.obj
 0002:00006858       ??_C@_1EE@GGGKAAOB@?$AA?4?$AA?4?$AA?2?$AA?4?$AA?4?$AA?2?$AA?4?$AA?4?$AA?2?$AAs?$AAo?$AAu?$AAr?$AAc?$AAe?$AA?2?$AAc?$AAo?$AAr?$AAe?$AA?2?$AAd?$AAg?$AAM?$AAe?$AAm?$AAo?$AAr?$AAy?$AA?4?$AAc?$AAp@ 10137858     core:dgMemory.obj
 0002:0000689c       ??_C@_1CA@GLNLFIMP@?$AAG?$AAe?$AAt?$AAC?$AAo?$AAu?$AAn?$AAt?$AA?$CI?$AA?$CJ?$AA?5?$AA?$DN?$AA?$DN?$AA?5?$AA0?$AA?$AA@ 1013789c     core:dgMemory.obj
 0002:000068bc       ??_7?$dgList@PAVdgMemoryAllocator@@@@6B@ 101378bc     core:dgMemory.obj
 0002:000074f0       __real@4000000000000000    101384f0     core:dgMatrix.obj
 0002:000074f8       __real@38d1b717            101384f8     core:dgMatrix.obj
 0002:00007500       __real@3fa99999a0000000    10138500     core:dgMatrix.obj
 0002:00007508       __real@bf7fffef            10138508     core:dgMatrix.obj
 0002:0000750c       __real@3f7fffef            1013850c     core:dgMatrix.obj
 0002:00007510       __real@3f7ffcb9            10138510     core:dgMatrix.obj
 0002:00007518       __real@3fe0000000000000    10138518     core:dgMatrix.obj
 0002:00007520       __real@3f96c16c20000000    10138520     core:dgMatrix.obj
 0002:0000bc44       ??_7dgPolyhedra@@6B@       1013cc44     core:dgPolyhedra.obj
 0002:0000bc48       __real@4010000000000000    1013cc48     core:dgPolyhedra.obj
 0002:0000bc50       __real@bfecccccc0000000    1013cc50     core:dgPolyhedra.obj
 0002:0000bc58       __real@3af357c2a0000000    1013cc58     core:dgPolyhedra.obj
 0002:0000bc60       ??_C@_1DA@LKPFJPKM@?$AAe?$AAd?$AAg?$AAe?$AAC?$AAo?$AAu?$AAn?$AAt?$AA?5?$AA?$DN?$AA?$DN?$AA?5?$AAG?$AAe?$AAt?$AAC?$AAo?$AAu?$AAn?$AAt?$AA?$CI?$AA?$CJ?$AA?$AA@ 1013cc60     core:dgPolyhedra.obj
 0002:0000bc90       __real@3d71979980000000    1013cc90     core:dgPolyhedra.obj
 0002:0000bc98       __real@4024000000000000    1013cc98     core:dgPolyhedra.obj
 0002:0000bca0       __real@3fb99999a0000000    1013cca0     core:dgPolyhedra.obj
 0002:0000bca8       __real@2edbe6ff            1013cca8     core:dgPolyhedra.obj
 0002:0000bcb0       __real@3f80000000000000    1013ccb0     core:dgPolyhedra.obj
 0002:0000bcb8       __real@3fefff2e40000000    1013ccb8     core:dgPolyhedra.obj
 0002:0000bcc0       __real@3f747ae140000000    1013ccc0     core:dgPolyhedra.obj
 0002:0000bcc8       __real@3d06849b80000000    1013ccc8     core:dgPolyhedra.obj
 0002:0000bcd0       __real@3f000000            1013ccd0     core:dgPolyhedra.obj
 0002:0000bcd4       __real@501502f9            1013ccd4     core:dgPolyhedra.obj
 0002:0000bcd8       __real@4066800000000000    1013ccd8     core:dgPolyhedra.obj
 0002:0000bce0       __real@400921ff20000000    1013cce0     core:dgPolyhedra.obj
 0002:0000bce8       __real@4056800000000000    1013cce8     core:dgPolyhedra.obj
 0002:0000bcf0       __real@c202a05f20000000    1013ccf0     core:dgPolyhedra.obj
 0002:0000bcf8       __real@4202a05f20000000    1013ccf8     core:dgPolyhedra.obj
 0002:0000bd00       ??_7?$dgTree@VdgEdge@@_J@@6B@ 1013cd00     core:dgPolyhedra.obj
 0002:0000bd04       ??_7?$dgList@UdgEdgeCollapseEdgeHandle@@@@6B@ 1013cd04     core:dgPolyhedra.obj
 0002:0000bd08       ??_7?$dgList@VdgDiagonalEdge@@@@6B@ 1013cd08     core:dgPolyhedra.obj
 0002:0000bd0c       ??_7dgTreeNode@?$dgTree@VdgEdge@@_J@@6B@ 1013cd0c     core:dgPolyhedra.obj
 0002:0000bd10       ??_7dgListNode@?$dgList@UdgEdgeCollapseEdgeHandle@@@@6B@ 1013cd10     core:dgPolyhedra.obj
 0002:0000bd18       ??_C@_1EK@GEOLOJBO@?$AA?4?$AA?4?$AA?2?$AA?4?$AA?4?$AA?2?$AA?4?$AA?4?$AA?2?$AAs?$AAo?$AAu?$AAr?$AAc?$AAe?$AA?2?$AAc?$AAo?$AAr?$AAe?$AA?2?$AAd?$AAg?$AAP?$AAo?$AAl?$AAy?$AAh?$AAe?$AAd?$AAr?$AAa@ 1013cd18     core:dgPolyhedra.obj
 0002:0000bd64       ??_C@_1BO@BNHJKDDF@?$AAh?$AAa?$AAn?$AAd?$AAl?$AAe?$AA?5?$AA?$CB?$AA?$DN?$AA?5?$AAt?$AAh?$AAi?$AAs?$AA?$AA@ 1013cd64     core:dgPolyhedra.obj
 0002:0000bd84       ??_7dgListNode@?$dgList@VdgDiagonalEdge@@@@6B@ 1013cd84     core:dgPolyhedra.obj
 0002:0000c848       __real@3fecccccc0000000    1013d848     core:dgSphere.obj
 0002:0000c850       __real@2b8cbccc            1013d850     core:dgSphere.obj
 0002:0000c858       __real@3d719799812dea11    1013d858     core:dgSphere.obj
 0002:0000c860       __real@d01502f9            1013d860     core:dgSphere.obj
 0002:0000c868       __real@4022000000000000    1013d868     core:dgSphere.obj
 0002:0000c870       __real@4028000000000000    1013d870     core:dgSphere.obj
 0002:0000c878       __real@3eaaaaab            1013d878     core:dgSphere.obj
 0002:0000cfc0       __real@43d0000000000000    1013dfc0     core:dgGoogol.obj
 0002:0000cfc8       __real@3c10000000000000    1013dfc8     core:dgGoogol.obj
 0002:0000cfd8       __real@3dcccccd            1013dfd8     physics:dgWorld.obj
 0002:0000cfe0       __real@3ff6666660000000    1013dfe0     physics:dgWorld.obj
 0002:0000cfe8       __real@3ff8000000000000    1013dfe8     physics:dgWorld.obj
 0002:0000cff0       __real@3c23d70b            1013dff0     physics:dgWorld.obj
 0002:0000cff4       __real@3e800000            1013dff4     physics:dgWorld.obj
 0002:0000cff8       ??_7dgWorld@@6BdgActiveContacts@@@ 1013dff8     physics:dgWorld.obj
 0002:0000cffc       ??_7dgWorld@@6BdgBodyCollisionList@@@ 1013dffc     physics:dgWorld.obj
 0002:0000d000       ??_7dgWorld@@6BdgBodyMaterialList@@@ 1013e000     physics:dgWorld.obj
 0002:0000d004       ??_7dgWorld@@6BdgBodyMasterList@@@ 1013e004     physics:dgWorld.obj
 0002:0000d008       ??_7dgActiveContacts@@6B@  1013e008     physics:dgWorld.obj
 0002:0000d00c       ??_7dgBodyCollisionList@@6B@ 1013e00c     physics:dgWorld.obj
 0002:0000d010       ??_7dgBodyMaterialList@@6B@ 1013e010     physics:dgWorld.obj
 0002:0000d018       ??_7dgCollisionPoint@@6B@  1013e018     physics:dgWorld.obj
 0002:0000d098       ??_C@_04IABPNMKE@simd?$AA@ 1013e098     physics:dgWorld.obj
 0002:0000d0a0       ??_C@_03MKEPLMIM@x87?$AA@  1013e0a0     physics:dgWorld.obj
 0002:0000d0a8       ??_C@_1EK@JJJDNOME@?$AAd?$AAg?$AAB?$AAo?$AAd?$AAy?$AAC?$AAo?$AAl?$AAl?$AAi?$AAs?$AAi?$AAo?$AAn?$AAL?$AAi?$AAs?$AAt?$AA?3?$AA?3?$AAG?$AAe?$AAt?$AAC?$AAo?$AAu?$AAn?$AAt?$AA?$CI?$AA?$CJ?$AA?5@ 1013e0a8     physics:dgWorld.obj
 0002:0000d0f8       ??_C@_1FC@BAACEGC@?$AAm?$AAe?$AA?4?$AAG?$AAe?$AAt?$AAF?$AAi?$AAr?$AAs?$AAt?$AA?$CI?$AA?$CJ?$AA?9?$AA?$DO?$AAG?$AAe?$AAt?$AAI?$AAn?$AAf?$AAo?$AA?$CI?$AA?$CJ?$AA?4?$AAG?$AAe?$AAt?$AAC?$AAo?$AAu?$AAn@ 1013e0f8     physics:dgWorld.obj
 0002:0000d150       ??_C@_1EI@CCBJCPIA@?$AA?4?$AA?4?$AA?2?$AA?4?$AA?4?$AA?2?$AA?4?$AA?4?$AA?2?$AAs?$AAo?$AAu?$AAr?$AAc?$AAe?$AA?2?$AAp?$AAh?$AAy?$AAs?$AAi?$AAc?$AAs?$AA?2?$AAd?$AAg?$AAW?$AAo?$AAr?$AAl?$AAd?$AA?4@ 1013e150     physics:dgWorld.obj
 0002:0000d198       ??_C@_1IK@FBKAMGPG@?$AAd?$AAg?$AAB?$AAo?$AAd?$AAy?$AAM?$AAa?$AAs?$AAt?$AAe?$AAr?$AAL?$AAi?$AAs?$AAt?$AA?3?$AA?3?$AAG?$AAe?$AAt?$AAF?$AAi?$AAr?$AAs?$AAt?$AA?$CI?$AA?$CJ?$AA?9?$AA?$DO?$AAG?$AAe@ 1013e198     physics:dgWorld.obj
 0002:0000d224       __real@58e35fa9            1013e224     physics:dgWorld.obj
 0002:0000d228       __real@3dd60419            1013e228     physics:dgWorld.obj
 0002:0000d230       ??_C@_1EC@ICCOIKME@?$AA?$CI?$AAd?$AAg?$AAU?$AAn?$AAs?$AAi?$AAg?$AAn?$AAe?$AAd?$AA6?$AA4?$AA?5?$AA?$CI?$AAb?$AAo?$AAd?$AAy?$AA?$CJ?$AA?5?$AA?$CG?$AA?5?$AA0?$AAx?$AAf?$AA?$CJ?$AA?5?$AA?$DN?$AA?$DN?$AA?5?$AA0@ 1013e230     physics:dgWorld.obj
 0002:0000d274       ??_C@_1BE@BMACBLPL@?$AAc?$AAo?$AAl?$AAl?$AAi?$AAs?$AAi?$AAo?$AAn?$AA?$AA@ 1013e274     physics:dgWorld.obj
 0002:0000d288       ??_C@_1CE@OCAGGPEK@?$AAb?$AAo?$AAd?$AAy?$AA?9?$AA?$DO?$AAm?$AA_?$AAc?$AAo?$AAl?$AAl?$AAi?$AAs?$AAi?$AAo?$AAn?$AA?$AA@ 1013e288     physics:dgWorld.obj
 0002:0000d2ac       ??_C@_1CM@OCIJBPJL@?$AAm?$AA_?$AAn?$AAu?$AAm?$AAb?$AAe?$AAr?$AAO?$AAf?$AAT?$AAh?$AAe?$AAa?$AAd?$AAs?$AA?5?$AA?$DO?$AA?$DN?$AA?5?$AA1?$AA?$AA@ 1013e2ac     physics:dgWorld.obj
 0002:0000d2d8       ??_C@_1CA@FKFNLNJ@?$AAm?$AA_?$AAi?$AAn?$AAU?$AAp?$AAd?$AAa?$AAt?$AAe?$AA?5?$AA?$DN?$AA?$DN?$AA?5?$AA0?$AA?$AA@ 1013e2d8     physics:dgWorld.obj
 0002:0000d2f8       ??_C@_1BO@NBLPCMLH@?$AAb?$AAo?$AAd?$AAy?$AA0?$AA?5?$AA?$CB?$AA?$DN?$AA?5?$AAb?$AAo?$AAd?$AAy?$AA1?$AA?$AA@ 1013e2f8     physics:dgWorld.obj
 0002:0000d318       ??_C@_1M@OIAIJOBD@?$AAb?$AAo?$AAd?$AAy?$AA0?$AA?$AA@ 1013e318     physics:dgWorld.obj
 0002:0000d324       ??_C@_19EFPOFDIJ@?$AAb?$AAo?$AAd?$AAy?$AA?$AA@ 1013e324     physics:dgWorld.obj
 0002:0000d330       ??_C@_1DE@PINLMFAK@?$AAi?$AAn?$AAd?$AAe?$AAx?$AA?5?$AA?$DM?$AA?5?$AAD?$AAG?$AA_?$AAR?$AAE?$AAC?$AAU?$AAR?$AAS?$AAI?$AAV?$AAE?$AA_?$AAS?$AAI?$AAZ?$AAE?$AA?$AA@ 1013e330     physics:dgWorld.obj
 0002:0000d364       ??_C@_1DA@MHEAPLEG@?$AAb?$AAo?$AAd?$AAy?$AA?5?$AA?$CB?$AA?$DN?$AA?5?$AAm?$AA_?$AAs?$AAe?$AAn?$AAt?$AAi?$AAo?$AAn?$AAe?$AAl?$AAB?$AAo?$AAd?$AAy?$AA?$AA@ 1013e364     physics:dgWorld.obj
 0002:0000d394       ??_7?$dgList@PAVdgContact@@@@6B@ 1013e394     physics:dgWorld.obj
 0002:0000d398       ??_7?$dgTree@PAVdgCollision@@I@@6B@ 1013e398     physics:dgWorld.obj
 0002:0000d39c       ??_7?$dgTree@VdgContactMaterial@@I@@6B@ 1013e39c     physics:dgWorld.obj
 0002:0000d3a0       ??_7?$dgTree@PAXI@@6B@     1013e3a0     physics:dgWorld.obj
 0002:0000d3a8       ??_C@_1MM@CDLELJPH@?$AAd?$AA?3?$AA?2?$AAp?$AAr?$AAo?$AAj?$AAe?$AAc?$AAt?$AAs?$AA?2?$AAw?$AAo?$AAr?$AAk?$AAs?$AAp?$AAa?$AAc?$AAe?$AA?2?$AAa?$AAr?$AAk?$AAa?$AAn?$AAo?$AAi?$AAd?$AA?2?$AAa@ 1013e3a8     physics:dgWorld.obj
 0002:0000d474       ??_C@_1BK@LKMNECAF@?$AAm?$AA_?$AAc?$AAo?$AAu?$AAn?$AAt?$AA?5?$AA?$DN?$AA?$DN?$AA?5?$AA0?$AA?$AA@ 1013e474     physics:dgWorld.obj
 0002:0000d490       ??_7dgWorkerThread@@6B@    1013e490     physics:dgWorld.obj
 0002:0000d498       ??_7dgSortArray@@6B@       1013e498     physics:dgBroadPhaseCollision.obj
 0002:0000d4a0       ??_C@_1GE@JPPFJIOG@?$AA?4?$AA?4?$AA?2?$AA?4?$AA?4?$AA?2?$AA?4?$AA?4?$AA?2?$AAs?$AAo?$AAu?$AAr?$AAc?$AAe?$AA?2?$AAp?$AAh?$AAy?$AAs?$AAi?$AAc?$AAs?$AA?2?$AAd?$AAg?$AAB?$AAr?$AAo?$AAa?$AAd?$AAP@ 1013e4a0     physics:dgBroadPhaseCollision.obj
 0002:0000d504       ??_C@_19EFANFLCA@?$AAn?$AAo?$AAd?$AAe?$AA?$AA@ 1013e504     physics:dgBroadPhaseCollision.obj
 0002:0000d510       ??_C@_1EA@PHHFFPM@?$AAl?$AAi?$AAn?$AAe?$AA?4?$AAm?$AA_?$AAb?$AAo?$AAx?$AAL?$AA0?$AA?$FL?$AAm?$AA_?$AAi?$AAn?$AAd?$AAe?$AAx?$AA?$FN?$AA?5?$AA?$DM?$AA?$DN?$AA?5?$AAm?$AAa?$AAx?$AAV?$AAa?$AAl?$AA?$AA@ 1013e510     physics:dgBroadPhaseCollision.obj
 0002:0000d550       ??_C@_1DM@NDMBHPPP@?$AA?$CB?$AAb?$AAo?$AAd?$AAy?$AA?9?$AA?$DO?$AAm?$AA_?$AAc?$AAo?$AAl?$AAl?$AAi?$AAs?$AAi?$AAo?$AAn?$AAC?$AAe?$AAl?$AAl?$AA?4?$AAm?$AA_?$AAc?$AAe?$AAl?$AAl?$AA?$AA@ 1013e550     physics:dgBroadPhaseCollision.obj
 0002:0000d58c       ??_C@_1DK@ONJJLKBC@?$AAb?$AAo?$AAd?$AAy?$AA?9?$AA?$DO?$AAm?$AA_?$AAc?$AAo?$AAl?$AAl?$AAi?$AAs?$AAi?$AAo?$AAn?$AAC?$AAe?$AAl?$AAl?$AA?4?$AAm?$AA_?$AAc?$AAe?$AAl?$AAl?$AA?$AA@ 1013e58c     physics:dgBroadPhaseCollision.obj
 0002:0000d5c8       ??_C@_1BK@FBPKPJAG@?$AAm?$AA_?$AAc?$AAo?$AAu?$AAn?$AAt?$AA?5?$AA?$DO?$AA?$DN?$AA?5?$AA0?$AA?$AA@ 1013e5c8     physics:dgBroadPhaseCollision.obj
 0002:0000d5e4       ??_7dgBroadPhaseLayer@@6B@ 1013e5e4     physics:dgBroadPhaseCollision.obj
 0002:0000d5e8       ??_C@_1BI@PKPDJDDM@?$AA?$CB?$AAG?$AAe?$AAt?$AAC?$AAo?$AAu?$AAn?$AAt?$AA?$CI?$AA?$CJ?$AA?$AA@ 1013e5e8     physics:dgBroadPhaseCollision.obj
 0002:0000d600       __real@447a0000            1013e600     physics:dgBroadPhaseCollision.obj
 0002:0000d604       __real@c47a0000            1013e604     physics:dgBroadPhaseCollision.obj
 0002:0000d608       ??_7dgBroadPhaseApplyExternalForce@@6B@ 1013e608     physics:dgBroadPhaseCollision.obj
 0002:0000d610       ??_7dgBroadPhaseCellPairsWorkerThread@@6B@ 1013e610     physics:dgBroadPhaseCollision.obj
 0002:0000d618       ??_7dgBroadPhaseMaterialCallbackWorkerThread@@6B@ 1013e618     physics:dgBroadPhaseCollision.obj
 0002:0000d620       ??_7dgBroadPhaseCalculateContactsWorkerThread@@6B@ 1013e620     physics:dgBroadPhaseCollision.obj
 0002:0000d628       ??_C@_1DM@PJPFHIBL@?$AAm?$AA_?$AAl?$AAa?$AAy?$AAe?$AAr?$AAM?$AAa?$AAp?$AA?$FL?$AAi?$AA?$FN?$AA?4?$AAG?$AAe?$AAt?$AAC?$AAo?$AAu?$AAn?$AAt?$AA?$CI?$AA?$CJ?$AA?5?$AA?$DN?$AA?$DN?$AA?5?$AA0?$AA?$AA@ 1013e628     physics:dgBroadPhaseCollision.obj
 0002:0000d668       __real@4060000000000000    1013e668     physics:dgBroadPhaseCollision.obj
 0002:0000d670       __real@3f90000000000000    1013e670     physics:dgBroadPhaseCollision.obj
 0002:0000d678       __real@3f99999a            1013e678     physics:dgBroadPhaseCollision.obj
 0002:0000d67c       ??_C@_1CM@IIKMBBJF@?$AAi?$AAn?$AAd?$AAe?$AAx?$AA?5?$AA?$DN?$AA?$DN?$AA?5?$AAc?$AAo?$AAn?$AAt?$AAa?$AAc?$AAt?$AAC?$AAo?$AAu?$AAn?$AAt?$AA?$AA@ 1013e67c     physics:dgBroadPhaseCollision.obj
 0002:0000d6a8       ??_C@_1EM@OLIAFOJM@?$AAb?$AAo?$AAd?$AAy?$AA?9?$AA?$DO?$AAm?$AA_?$AAi?$AAn?$AAv?$AAM?$AAa?$AAs?$AAs?$AA?4?$AAm?$AA_?$AAw?$AA?5?$AA?$DO?$AA?5?$AAd?$AAg?$AAF?$AAl?$AAo?$AAa?$AAt?$AA3?$AA2?$AA?$CI@ 1013e6a8     physics:dgBroadPhaseCollision.obj
 0002:0000d6f8       ??_C@_1BJK@BJNAOAON@?$AAb?$AAo?$AAd?$AAy?$AA?9?$AA?$DO?$AAm?$AA_?$AAc?$AAo?$AAl?$AAl?$AAi?$AAs?$AAi?$AAo?$AAn?$AA?9?$AA?$DO?$AAI?$AAs?$AAT?$AAy?$AAp?$AAe?$AA?$CI?$AAd?$AAg?$AAC?$AAo?$AAl?$AAl@ 1013e6f8     physics:dgBroadPhaseCollision.obj
 0002:0000d894       ??_C@_1DG@MDIEFPOL@?$AAc?$AAo?$AAn?$AAt?$AAa?$AAc?$AAt?$AAI?$AAn?$AAd?$AAe?$AAx?$AA?5?$AA?$DM?$AA?5?$AAc?$AAo?$AAn?$AAt?$AAa?$AAc?$AAt?$AAS?$AAi?$AAz?$AAe?$AA?$AA@ 1013e894     physics:dgBroadPhaseCollision.obj
 0002:0000d8d0       ??_C@_1GI@GIJIHCPK@?$AAp?$AAa?$AAi?$AAr?$AA?4?$AAm?$AA_?$AAc?$AAo?$AAn?$AAt?$AAa?$AAc?$AAt?$AAC?$AAo?$AAu?$AAn?$AAt?$AA?5?$AA?$DM?$AA?$DN?$AA?5?$AA?$CI?$AAD?$AAG?$AA_?$AAC?$AAO?$AAN?$AAS?$AAT@ 1013e8d0     physics:dgBroadPhaseCollision.obj
 0002:0000d938       ??_C@_1CM@KEMNMPHD@?$AAc?$AAe?$AAl?$AAl?$AA?9?$AA?$DO?$AAm?$AA_?$AAl?$AAa?$AAs?$AAt?$AAS?$AAo?$AAr?$AAt?$AAA?$AAr?$AAr?$AAa?$AAy?$AA?$AA@ 1013e938     physics:dgBroadPhaseCollision.obj
 0002:0000d964       __real@3f8ccccd            1013e964     physics:dgBroadPhaseCollision.obj
 0002:0000d968       ??_C@_1BK@MKKPHAPO@?$AAc?$AAe?$AAl?$AAl?$AA?4?$AAm?$AA_?$AAc?$AAo?$AAu?$AAn?$AAt?$AA?$AA@ 1013e968     physics:dgBroadPhaseCollision.obj
 0002:0000d988       ??_C@_1II@MLILGNIF@?$AAm?$AAa?$AAs?$AAt?$AAe?$AAr?$AAL?$AAi?$AAs?$AAt?$AA?4?$AAG?$AAe?$AAt?$AAF?$AAi?$AAr?$AAs?$AAt?$AA?$CI?$AA?$CJ?$AA?9?$AA?$DO?$AAG?$AAe?$AAt?$AAI?$AAn?$AAf?$AAo?$AA?$CI?$AA?$CJ@ 1013e988     physics:dgBroadPhaseCollision.obj
 0002:0000da10       ??_7?$dgList@VdgSortArrayEntry@@@@6B@ 1013ea10     physics:dgBroadPhaseCollision.obj
 0002:0000da14       ??_C@_1BO@IHOIJOM@?$AAS?$AAa?$AAn?$AAi?$AAt?$AAy?$AAC?$AAh?$AAe?$AAc?$AAk?$AA?5?$AA?$CI?$AA?$CJ?$AA?$AA@ 1013ea14     physics:dgBroadPhaseCollision.obj
 0002:0000da34       ??_C@_1CC@JGAIKKLL@?$AA?$CB?$AAm?$AA_?$AAf?$AAi?$AAr?$AAs?$AAt?$AA?9?$AA?$DO?$AAm?$AA_?$AAp?$AAr?$AAe?$AAv?$AA?$AA@ 1013ea34     physics:dgBroadPhaseCollision.obj
 0002:0000da58       ??_C@_1BA@DPNDDMAE@?$AAm?$AA_?$AAf?$AAi?$AAr?$AAs?$AAt?$AA?$AA@ 1013ea58     physics:dgBroadPhaseCollision.obj
 0002:0000da68       ??_C@_1CA@DOMNDHPO@?$AA?$CB?$AAm?$AA_?$AAl?$AAa?$AAs?$AAt?$AA?9?$AA?$DO?$AAm?$AA_?$AAn?$AAe?$AAx?$AAt?$AA?$AA@ 1013ea68     physics:dgBroadPhaseCollision.obj
 0002:0000da88       ??_C@_1O@OFPNLAEI@?$AAm?$AA_?$AAl?$AAa?$AAs?$AAt?$AA?$AA@ 1013ea88     physics:dgBroadPhaseCollision.obj
 0002:0000da98       ??_C@_1BK@FGIOLLGP@?$AAn?$AAo?$AAd?$AAe?$AA?5?$AA?$CB?$AA?$DN?$AA?5?$AAr?$AAo?$AAo?$AAt?$AA?$AA@ 1013ea98     physics:dgBroadPhaseCollision.obj
 0002:0000dab4       ??_C@_19PKPNPKHP@?$AAr?$AAo?$AAo?$AAt?$AA?$AA@ 1013eab4     physics:dgBroadPhaseCollision.obj
 0002:0000dac0       ??_7?$dgTree@VdgBroadPhaseCell@@I@@6B@ 1013eac0     physics:dgBroadPhaseCollision.obj
 0002:0000dac8       ??_C@_1EG@BMMEDIOC@?$AAC?$AAo?$AAm?$AAp?$AAa?$AAr?$AAe?$AAK?$AAe?$AAy?$AAs?$AA?5?$AA?$CI?$AAp?$AAt?$AAr?$AA?9?$AA?$DO?$AAm?$AA_?$AAk?$AAe?$AAy?$AA?0?$AA?5?$AAk?$AAe?$AAy?$AA?$CJ?$AA?5?$AA?$DN?$AA?$DN@ 1013eac8     physics:dgBroadPhaseCollision.obj
 0002:0000db10       ??_C@_1EG@KEHIFPIH@?$AAC?$AAo?$AAm?$AAp?$AAa?$AAr?$AAe?$AAK?$AAe?$AAy?$AAs?$AA?5?$AA?$CI?$AAp?$AAt?$AAr?$AA?9?$AA?$DO?$AAm?$AA_?$AAk?$AAe?$AAy?$AA?0?$AA?5?$AAk?$AAe?$AAy?$AA?$CJ?$AA?5?$AA?$DN?$AA?$DN@ 1013eb10     physics:dgBroadPhaseCollision.obj
 0002:0000db58       ??_C@_1EI@LDJFLLLF@?$AAC?$AAo?$AAm?$AAp?$AAa?$AAr?$AAe?$AAK?$AAe?$AAy?$AAs?$AA?5?$AA?$CI?$AAp?$AAt?$AAr?$AA?9?$AA?$DO?$AAm?$AA_?$AAk?$AAe?$AAy?$AA?0?$AA?5?$AAk?$AAe?$AAy?$AA?$CJ?$AA?5?$AA?$DN?$AA?$DN@ 1013eb58     physics:dgBroadPhaseCollision.obj
 0002:0000dba0       ??_C@_1DM@NFANGFEF@?$AA?$CG?$AAr?$AAe?$AAt?$AAn?$AAo?$AAd?$AAe?$AA?9?$AA?$DO?$AAG?$AAe?$AAt?$AAI?$AAn?$AAf?$AAo?$AA?5?$AA?$CI?$AA?$CJ?$AA?5?$AA?$DN?$AA?$DN?$AA?5?$AA?$CG?$AAi?$AAn?$AAf?$AAo?$AA?$AA@ 1013eba0     physics:dgBroadPhaseCollision.obj
 0002:0000dbdc       ??_C@_1CK@MKDPNEDG@?$AAr?$AAe?$AAt?$AAn?$AAo?$AAd?$AAe?$AA?9?$AA?$DO?$AAI?$AAs?$AAI?$AAn?$AAT?$AAr?$AAe?$AAe?$AA?5?$AA?$CI?$AA?$CJ?$AA?$AA@ 1013ebdc     physics:dgBroadPhaseCollision.obj
 0002:0000dc08       ??_7dgListNode@?$dgList@VdgSortArrayEntry@@@@6B@ 1013ec08     physics:dgBroadPhaseCollision.obj
 0002:0000dc10       ??_C@_1EG@JEFAAEMN@?$AAn?$AAo?$AAd?$AAe?$AA?9?$AA?$DO?$AAG?$AAe?$AAt?$AAP?$AAr?$AAe?$AAv?$AA?$CI?$AA?$CJ?$AA?5?$AA?$CB?$AA?$DN?$AA?5?$AAn?$AAo?$AAd?$AAe?$AA?9?$AA?$DO?$AAG?$AAe?$AAt?$AAN?$AAe?$AAx?$AAt@ 1013ec10     physics:dgBroadPhaseCollision.obj
 0002:0000dc58       ??_C@_1BI@IFCFADMF@?$AAm?$AA_?$AAa?$AAl?$AAl?$AAo?$AAc?$AAa?$AAt?$AAo?$AAr?$AA?$AA@ 1013ec58     physics:dgBroadPhaseCollision.obj
 0002:0000dc70       ??_7dgTreeNode@?$dgTree@VdgBroadPhaseCell@@I@@6B@ 1013ec70     physics:dgBroadPhaseCollision.obj
 0002:0000dc74       ??_7dgSolverWorlkerThreads@@6B@ 1013ec74     physics:dgWorldDynamicUpdate.obj
 0002:0000dc7c       ??_7dgParallelSolverClear@@6B@ 1013ec7c     physics:dgWorldDynamicUpdate.obj
 0002:0000dc84       ??_7dgParallelSolverBodyInertia@@6B@ 1013ec84     physics:dgWorldDynamicUpdate.obj
 0002:0000dc8c       ??_7dgParallelSolverUpdateVeloc@@6B@ 1013ec8c     physics:dgWorldDynamicUpdate.obj
 0002:0000dc94       ??_7dgParallelSolverUpdateForce@@6B@ 1013ec94     physics:dgWorldDynamicUpdate.obj
 0002:0000dc9c       ??_7dgParallelSolverCalculateForces@@6B@ 1013ec9c     physics:dgWorldDynamicUpdate.obj
 0002:0000dca4       ??_7dgParallelSolverInitInternalForces@@6B@ 1013eca4     physics:dgWorldDynamicUpdate.obj
 0002:0000dcac       ??_7dgParallelSolverBuildJacobianRows@@6B@ 1013ecac     physics:dgWorldDynamicUpdate.obj
 0002:0000dcb4       ??_7dgParallelSolverJointAcceleration@@6B@ 1013ecb4     physics:dgWorldDynamicUpdate.obj
 0002:0000dcbc       ??_7dgParallelSolverInitFeedbackUpdate@@6B@ 1013ecbc     physics:dgWorldDynamicUpdate.obj
 0002:0000dcc4       ??_7dgParallelSolverBuildJacobianMatrix@@6B@ 1013ecc4     physics:dgWorldDynamicUpdate.obj
 0002:0000dccc       __real@3d4ccccd            1013eccc     physics:dgWorldDynamicUpdate.obj
 0002:0000dcd0       ??_C@_1GA@MACEKHJI@?$AA?$CB?$AAm?$AA_?$AAi?$AAs?$AAl?$AAa?$AAn?$AAd?$AAA?$AAr?$AAr?$AAa?$AAy?$AA?$FL?$AAm?$AA_?$AAi?$AAs?$AAl?$AAa?$AAn?$AAd?$AAs?$AA?$FN?$AA?4?$AAm?$AA_?$AAi?$AAs?$AAC?$AAo@ 1013ecd0     physics:dgWorldDynamicUpdate.obj
 0002:0000dd30       ??_C@_1HI@NNFFOOPN@?$AAn?$AAo?$AAd?$AAe?$AA?9?$AA?$DO?$AAG?$AAe?$AAt?$AAI?$AAn?$AAf?$AAo?$AA?$CI?$AA?$CJ?$AA?4?$AAG?$AAe?$AAt?$AAB?$AAo?$AAd?$AAy?$AA?$CI?$AA?$CJ?$AA?9?$AA?$DO?$AAm?$AA_?$AAi?$AAn?$AAv@ 1013ed30     physics:dgWorldDynamicUpdate.obj
 0002:0000dda8       ??_C@_1GC@JILOMDMI@?$AA?4?$AA?4?$AA?2?$AA?4?$AA?4?$AA?2?$AA?4?$AA?4?$AA?2?$AAs?$AAo?$AAu?$AAr?$AAc?$AAe?$AA?2?$AAp?$AAh?$AAy?$AAs?$AAi?$AAc?$AAs?$AA?2?$AAd?$AAg?$AAW?$AAo?$AAr?$AAl?$AAd?$AAD@ 1013eda8     physics:dgWorldDynamicUpdate.obj
 0002:0000de10       ??_C@_1HO@PLNBCEKC@?$AAm?$AAe?$AA?4?$AAG?$AAe?$AAt?$AAF?$AAi?$AAr?$AAs?$AAt?$AA?$CI?$AA?$CJ?$AA?9?$AA?$DO?$AAG?$AAe?$AAt?$AAI?$AAn?$AAf?$AAo?$AA?$CI?$AA?$CJ?$AA?4?$AAG?$AAe?$AAt?$AAB?$AAo?$AAd?$AAy@ 1013ee10     physics:dgWorldDynamicUpdate.obj
 0002:0000de90       ??_C@_1BO@JBEOGDBL@?$AAp?$AAa?$AAi?$AAr?$AA?4?$AAm?$AA_?$AAc?$AAo?$AAn?$AAt?$AAa?$AAc?$AAt?$AA?$AA@ 1013ee90     physics:dgWorldDynamicUpdate.obj
 0002:0000deb0       ??_C@_1CC@NMGBAKDJ@?$AAc?$AAo?$AAn?$AAt?$AAa?$AAc?$AAt?$AA?9?$AA?$DO?$AAm?$AA_?$AAb?$AAo?$AAd?$AAy?$AA1?$AA?$AA@ 1013eeb0     physics:dgWorldDynamicUpdate.obj
 0002:0000ded4       ??_C@_1CC@GENNGNFM@?$AAc?$AAo?$AAn?$AAt?$AAa?$AAc?$AAt?$AA?9?$AA?$DO?$AAm?$AA_?$AAb?$AAo?$AAd?$AAy?$AA0?$AA?$AA@ 1013eed4     physics:dgWorldDynamicUpdate.obj
 0002:0000def8       ??_C@_1DA@BOHIOHFH@?$AAd?$AAi?$AAs?$AAt?$AA?5?$AA?$DO?$AA?5?$AAd?$AAg?$AAF?$AAl?$AAo?$AAa?$AAt?$AA3?$AA2?$AA?5?$AA?$CI?$AA0?$AA?4?$AA0?$AAf?$AA?$CJ?$AA?$AA@ 1013eef8     physics:dgWorldDynamicUpdate.obj
 0002:0000df28       ??_C@_1EI@KEEBECEA@?$AAb?$AAo?$AAd?$AAy?$AA?9?$AA?$DO?$AAm?$AA_?$AAm?$AAa?$AAs?$AAs?$AA?4?$AAm?$AA_?$AAw?$AA?5?$AA?$DO?$AA?5?$AAd?$AAg?$AAF?$AAl?$AAo?$AAa?$AAt?$AA3?$AA2?$AA?5?$AA?$CI?$AA0?$AA?4@ 1013ef28     physics:dgWorldDynamicUpdate.obj
 0002:0000df70       ??_C@_1FC@PBDLAJMC@?$AA?$CI?$AAd?$AAg?$AAU?$AAn?$AAs?$AAi?$AAg?$AAn?$AAe?$AAd?$AA6?$AA4?$AA?5?$AA?$CI?$AAm?$AA_?$AAb?$AAo?$AAd?$AAy?$AAA?$AAr?$AAr?$AAa?$AAy?$AA?$CJ?$AA?5?$AA?$CG?$AA?5?$AA0?$AAx@ 1013ef70     physics:dgWorldDynamicUpdate.obj
 0002:0000dfc8       ??_C@_1FG@NKLDEJCN@?$AA?$CI?$AAd?$AAg?$AAU?$AAn?$AAs?$AAi?$AAg?$AAn?$AAe?$AAd?$AA6?$AA4?$AA?5?$AA?$CI?$AAm?$AA_?$AAi?$AAs?$AAl?$AAa?$AAn?$AAd?$AAA?$AAr?$AAr?$AAa?$AAy?$AA?$CJ?$AA?5?$AA?$CG?$AA?5@ 1013efc8     physics:dgWorldDynamicUpdate.obj
 0002:0000e020       ??_C@_1FM@GMGJJDEK@?$AA?$CI?$AAd?$AAg?$AAU?$AAn?$AAs?$AAi?$AAg?$AAn?$AAe?$AAd?$AA6?$AA4?$AA?$CI?$AAm?$AA_?$AAc?$AAo?$AAn?$AAs?$AAt?$AAr?$AAa?$AAi?$AAn?$AAt?$AAA?$AAr?$AAr?$AAa?$AAy?$AA?$CJ@ 1013f020     physics:dgWorldDynamicUpdate.obj
 0002:0000e080       ??_C@_1FC@IOCBOGAA@?$AA?$CI?$AAd?$AAg?$AAU?$AAn?$AAs?$AAi?$AAg?$AAn?$AAe?$AAd?$AA6?$AA4?$AA?$CI?$AAa?$AAc?$AAc?$AAe?$AAl?$AAI?$AAs?$AAM?$AAo?$AAt?$AAo?$AAr?$AA?$CJ?$AA?5?$AA?$CG?$AA?5?$AA0?$AAx@ 1013f080     physics:dgWorldDynamicUpdate.obj
 0002:0000e0d8       ??_C@_1FK@NFABCNJH@?$AA?$CI?$AAd?$AAg?$AAU?$AAn?$AAs?$AAi?$AAg?$AAn?$AAe?$AAd?$AA6?$AA4?$AA?$CI?$AAn?$AAo?$AAr?$AAm?$AAa?$AAl?$AAF?$AAo?$AAr?$AAc?$AAe?$AAI?$AAn?$AAd?$AAe?$AAx?$AA?$CJ?$AA?5@ 1013f0d8     physics:dgWorldDynamicUpdate.obj
 0002:0000e138       ??_C@_1FE@HDMNFCD@?$AA?$CI?$AAd?$AAg?$AAU?$AAn?$AAs?$AAi?$AAg?$AAn?$AAe?$AAd?$AA6?$AA4?$AA?$CI?$AAf?$AAo?$AAr?$AAc?$AAe?$AAF?$AAe?$AAe?$AAd?$AAb?$AAa?$AAc?$AAk?$AA?$CJ?$AA?5?$AA?$CG?$AA?5?$AA0@ 1013f138     physics:dgWorldDynamicUpdate.obj
 0002:0000e190       ??_C@_1HC@LLELBKDC@?$AA?$CI?$AAd?$AAg?$AAU?$AAn?$AAs?$AAi?$AAg?$AAn?$AAe?$AAd?$AA6?$AA4?$AA?$CI?$AAu?$AAp?$AAp?$AAe?$AAr?$AAB?$AAo?$AAu?$AAn?$AAd?$AAF?$AAr?$AAi?$AAc?$AAt?$AAi?$AAo?$AAn@ 1013f190     physics:dgWorldDynamicUpdate.obj
 0002:0000e208       ??_C@_1HC@GBFJHIJK@?$AA?$CI?$AAd?$AAg?$AAU?$AAn?$AAs?$AAi?$AAg?$AAn?$AAe?$AAd?$AA6?$AA4?$AA?$CI?$AAl?$AAo?$AAw?$AAe?$AAr?$AAB?$AAo?$AAu?$AAn?$AAd?$AAF?$AAr?$AAi?$AAc?$AAt?$AAi?$AAo?$AAn@ 1013f208     physics:dgWorldDynamicUpdate.obj
 0002:0000e280       ??_C@_1GC@HLCKOBKB@?$AA?$CI?$AAd?$AAg?$AAU?$AAn?$AAs?$AAi?$AAg?$AAn?$AAe?$AAd?$AA6?$AA4?$AA?$CI?$AAp?$AAe?$AAn?$AAe?$AAt?$AAr?$AAa?$AAt?$AAi?$AAo?$AAn?$AAS?$AAt?$AAi?$AAf?$AAf?$AAn?$AAe@ 1013f280     physics:dgWorldDynamicUpdate.obj
 0002:0000e2e8       ??_C@_1FI@PJDHHJIM@?$AA?$CI?$AAd?$AAg?$AAU?$AAn?$AAs?$AAi?$AAg?$AAn?$AAe?$AAd?$AA6?$AA4?$AA?$CI?$AAc?$AAo?$AAo?$AAr?$AAd?$AAe?$AAn?$AAa?$AAt?$AAe?$AAA?$AAc?$AAc?$AAe?$AAl?$AA?$CJ?$AA?5?$AA?$CG@ 1013f2e8     physics:dgWorldDynamicUpdate.obj
 0002:0000e340       ??_C@_1FA@HKOLNDGP@?$AA?$CI?$AAd?$AAg?$AAU?$AAn?$AAs?$AAi?$AAg?$AAn?$AAe?$AAd?$AA6?$AA4?$AA?$CI?$AAi?$AAn?$AAv?$AAD?$AAJ?$AAM?$AAi?$AAn?$AAv?$AAJ?$AAt?$AA?$CJ?$AA?5?$AA?$CG?$AA?5?$AA0?$AAx?$AA0@ 1013f340     physics:dgWorldDynamicUpdate.obj
 0002:0000e390       ??_C@_1FA@NAGEEDJL@?$AA?$CI?$AAd?$AAg?$AAU?$AAn?$AAs?$AAi?$AAg?$AAn?$AAe?$AAd?$AA6?$AA4?$AA?$CI?$AAr?$AAe?$AAs?$AAt?$AAi?$AAt?$AAu?$AAt?$AAi?$AAo?$AAn?$AA?$CJ?$AA?5?$AA?$CG?$AA?5?$AA0?$AAx?$AA0@ 1013f390     physics:dgWorldDynamicUpdate.obj
 0002:0000e3e0       ??_C@_1FA@OOKELIPG@?$AA?$CI?$AAd?$AAg?$AAU?$AAn?$AAs?$AAi?$AAg?$AAn?$AAe?$AAd?$AA6?$AA4?$AA?$CI?$AAp?$AAe?$AAn?$AAe?$AAt?$AAr?$AAa?$AAt?$AAi?$AAo?$AAn?$AA?$CJ?$AA?5?$AA?$CG?$AA?5?$AA0?$AAx?$AA0@ 1013f3e0     physics:dgWorldDynamicUpdate.obj
 0002:0000e430       ??_C@_1EK@FNIAMEON@?$AA?$CI?$AAd?$AAg?$AAU?$AAn?$AAs?$AAi?$AAg?$AAn?$AAe?$AAd?$AA6?$AA4?$AA?$CI?$AAd?$AAi?$AAa?$AAg?$AAD?$AAa?$AAm?$AAp?$AA?$CJ?$AA?5?$AA?$CG?$AA?5?$AA0?$AAx?$AA0?$AAf?$AA?$CJ?$AA?5@ 1013f430     physics:dgWorldDynamicUpdate.obj
 0002:0000e480       ??_C@_1EO@CODLCIAH@?$AA?$CI?$AAd?$AAg?$AAU?$AAn?$AAs?$AAi?$AAg?$AAn?$AAe?$AAd?$AA6?$AA4?$AA?$CI?$AAd?$AAe?$AAl?$AAt?$AAa?$AAF?$AAo?$AAr?$AAc?$AAe?$AA?$CJ?$AA?5?$AA?$CG?$AA?5?$AA0?$AAx?$AA0?$AAf@ 1013f480     physics:dgWorldDynamicUpdate.obj
 0002:0000e4d0       ??_C@_1EO@IFCFLNAO@?$AA?$CI?$AAd?$AAg?$AAU?$AAn?$AAs?$AAi?$AAg?$AAn?$AAe?$AAd?$AA6?$AA4?$AA?$CI?$AAd?$AAe?$AAl?$AAt?$AAa?$AAA?$AAc?$AAc?$AAe?$AAl?$AA?$CJ?$AA?5?$AA?$CG?$AA?5?$AA0?$AAx?$AA0?$AAf@ 1013f4d0     physics:dgWorldDynamicUpdate.obj
 0002:0000e520       ??_C@_1EE@HFLOCGIE@?$AA?$CI?$AAd?$AAg?$AAU?$AAn?$AAs?$AAi?$AAg?$AAn?$AAe?$AAd?$AA6?$AA4?$AA?$CI?$AAa?$AAc?$AAc?$AAe?$AAl?$AA?$CJ?$AA?5?$AA?$CG?$AA?5?$AA0?$AAx?$AA0?$AAf?$AA?$CJ?$AA?5?$AA?$DN?$AA?$DN?$AA?5@ 1013f520     physics:dgWorldDynamicUpdate.obj
 0002:0000e568       ??_C@_1EE@NOKALDIN@?$AA?$CI?$AAd?$AAg?$AAU?$AAn?$AAs?$AAi?$AAg?$AAn?$AAe?$AAd?$AA6?$AA4?$AA?$CI?$AAf?$AAo?$AAr?$AAc?$AAe?$AA?$CJ?$AA?5?$AA?$CG?$AA?5?$AA0?$AAx?$AA0?$AAf?$AA?$CJ?$AA?5?$AA?$DN?$AA?$DN?$AA?5@ 1013f568     physics:dgWorldDynamicUpdate.obj
 0002:0000e5b0       ??_C@_1EE@FODGDJML@?$AA?$CI?$AAd?$AAg?$AAU?$AAn?$AAs?$AAi?$AAg?$AAn?$AAe?$AAd?$AA6?$AA4?$AA?$CI?$AAJ?$AAM?$AAi?$AAn?$AAv?$AA?$CJ?$AA?5?$AA?$CG?$AA?5?$AA0?$AAx?$AA0?$AAf?$AA?$CJ?$AA?5?$AA?$DN?$AA?$DN?$AA?5@ 1013f5b0     physics:dgWorldDynamicUpdate.obj
 0002:0000e5f4       ??_C@_1DO@OKIJPGOM@?$AA?$CI?$AAd?$AAg?$AAU?$AAn?$AAs?$AAi?$AAg?$AAn?$AAe?$AAd?$AA6?$AA4?$AA?$CI?$AAJ?$AAt?$AA?$CJ?$AA?5?$AA?$CG?$AA?5?$AA0?$AAx?$AA0?$AAf?$AA?$CJ?$AA?5?$AA?$DN?$AA?$DN?$AA?5?$AA0?$AA?$AA@ 1013f5f4     physics:dgWorldDynamicUpdate.obj
 0002:0000e638       ??_C@_1FE@NBMMFAIG@?$AA?$CI?$AAd?$AAg?$AAU?$AAn?$AAs?$AAi?$AAg?$AAn?$AAe?$AAd?$AA6?$AA4?$AA?$CI?$AAi?$AAn?$AAt?$AAe?$AAr?$AAn?$AAa?$AAl?$AAV?$AAe?$AAl?$AAo?$AAc?$AA?$CJ?$AA?5?$AA?$CG?$AA?5?$AA0@ 1013f638     physics:dgWorldDynamicUpdate.obj
 0002:0000e690       ??_C@_1FG@NLEJHBJI@?$AA?$CI?$AAd?$AAg?$AAU?$AAn?$AAs?$AAi?$AAg?$AAn?$AAe?$AAd?$AA6?$AA4?$AA?$CI?$AAi?$AAn?$AAt?$AAe?$AAr?$AAn?$AAa?$AAl?$AAF?$AAo?$AAr?$AAc?$AAe?$AAs?$AA?$CJ?$AA?5?$AA?$CG?$AA?5@ 1013f690     physics:dgWorldDynamicUpdate.obj
 0002:0000e6e8       ??_C@_1OO@LIGLDACN@?$AA?$CI?$AA?$CI?$AA?$CI?$AAd?$AAg?$AAI?$AAn?$AAt?$AA8?$AA?5?$AA?$CK?$AA?$CJ?$AA?$CG?$AAt?$AAr?$AAe?$AAa?$AAd?$AAL?$AAo?$AAc?$AAk?$AAs?$AA?$FL?$AAn?$AAe?$AAw?$AAC?$AAo?$AAu?$AAn?$AAt@ 1013f6e8     physics:dgWorldDynamicUpdate.obj
 0002:0000e7d8       ??_C@_1CI@OIEHBPCD@?$AAc?$AAo?$AAn?$AAs?$AAt?$AAr?$AAa?$AAi?$AAn?$AAt?$AA?9?$AA?$DO?$AAm?$AA_?$AAb?$AAo?$AAd?$AAy?$AA1?$AA?$AA@ 1013f7d8     physics:dgWorldDynamicUpdate.obj
 0002:0000e800       ??_C@_1CI@FAPLHIEG@?$AAc?$AAo?$AAn?$AAs?$AAt?$AAr?$AAa?$AAi?$AAn?$AAt?$AA?9?$AA?$DO?$AAm?$AA_?$AAb?$AAo?$AAd?$AAy?$AA0?$AA?$AA@ 1013f800     physics:dgWorldDynamicUpdate.obj
 0002:0000e828       ??_C@_1MO@CFIABINL@?$AA?$CI?$AAc?$AAo?$AAn?$AAs?$AAt?$AAr?$AAa?$AAi?$AAn?$AAt?$AA?9?$AA?$DO?$AAm?$AA_?$AAb?$AAo?$AAd?$AAy?$AA0?$AA?5?$AA?$DN?$AA?$DN?$AA?5?$AAm?$AA_?$AAw?$AAo?$AAr?$AAl?$AAd?$AA?9@ 1013f828     physics:dgWorldDynamicUpdate.obj
 0002:0000e8f8       ??_C@_1CG@PJILLGLK@?$AAb?$AAo?$AAd?$AAy?$AA?9?$AA?$DO?$AAm?$AA_?$AAm?$AAa?$AAs?$AAt?$AAe?$AAr?$AAN?$AAo?$AAd?$AAe?$AA?$AA@ 1013f8f8     physics:dgWorldDynamicUpdate.obj
 0002:0000e920       ??_C@_1FC@BNNDKFKK@?$AAd?$AAg?$AAI?$AAn?$AAt?$AA3?$AA2?$AA?5?$AA?$CI?$AAb?$AAo?$AAd?$AAy?$AA?9?$AA?$DO?$AAm?$AA_?$AAd?$AAy?$AAn?$AAa?$AAm?$AAi?$AAc?$AAs?$AAL?$AAr?$AAu?$AA?$CJ?$AA?5?$AA?$DN?$AA?$DN@ 1013f920     physics:dgWorldDynamicUpdate.obj
 0002:0000e978       ??_C@_1HO@DDICFMNC@?$AAd?$AAg?$AAI?$AAn?$AAt?$AA3?$AA2?$AA?5?$AA?$CI?$AAm?$AA_?$AAw?$AAo?$AAr?$AAl?$AAd?$AA?9?$AA?$DO?$AAm?$AA_?$AAs?$AAe?$AAn?$AAt?$AAi?$AAo?$AAn?$AAe?$AAl?$AAB?$AAo?$AAd@ 1013f978     physics:dgWorldDynamicUpdate.obj
 0002:0000e9f8       ??_C@_1EO@KPEFEBLO@?$AAm?$AA_?$AAw?$AAo?$AAr?$AAl?$AAd?$AA?9?$AA?$DO?$AAm?$AA_?$AAs?$AAe?$AAn?$AAt?$AAi?$AAo?$AAn?$AAe?$AAl?$AAB?$AAo?$AAd?$AAy?$AA?9?$AA?$DO?$AAm?$AA_?$AAi?$AAn?$AAd?$AAe@ 1013f9f8     physics:dgWorldDynamicUpdate.obj
 0002:0000ea48       ??_C@_1BK@JLEADMJE@?$AAh?$AAe?$AAa?$AAv?$AAi?$AAe?$AAs?$AAt?$AAB?$AAo?$AAd?$AAy?$AA?$AA@ 1013fa48     physics:dgWorldDynamicUpdate.obj
 0002:0000ea68       ??_C@_1FG@MENMJKFD@?$AAd?$AAg?$AAI?$AAn?$AAt?$AA3?$AA2?$AA?5?$AA?$CI?$AAb?$AAo?$AAd?$AAy?$AA?9?$AA?$DO?$AAm?$AA_?$AAd?$AAy?$AAn?$AAa?$AAm?$AAi?$AAc?$AAs?$AAL?$AAr?$AAu?$AA?$CJ?$AA?5?$AA?$DN?$AA?$DN@ 1013fa68     physics:dgWorldDynamicUpdate.obj
 0002:0000eac0       ??_C@_1GC@OPNEJCKO@?$AAd?$AAg?$AAI?$AAn?$AAt?$AA3?$AA2?$AA?5?$AA?$CI?$AAc?$AAo?$AAn?$AAs?$AAt?$AAr?$AAa?$AAi?$AAn?$AAt?$AA?9?$AA?$DO?$AAm?$AA_?$AAd?$AAy?$AAn?$AAa?$AAm?$AAi?$AAc?$AAs?$AAL@ 1013fac0     physics:dgWorldDynamicUpdate.obj
 0002:0000eb24       ??_C@_1DA@EOOLEIEM@?$AAb?$AAo?$AAd?$AAy?$AA?5?$AA?$DN?$AA?$DN?$AA?5?$AAc?$AAe?$AAl?$AAl?$AA?4?$AAm?$AA_?$AAb?$AAo?$AAd?$AAy?$AAN?$AAo?$AAd?$AAe?$AA?$AA@ 1013fb24     physics:dgWorldDynamicUpdate.obj
 0002:0000eb54       ??_C@_1CM@LBCGOMJK@?$AAs?$AAr?$AAc?$AAB?$AAo?$AAd?$AAy?$AA?9?$AA?$DO?$AAm?$AA_?$AAm?$AAa?$AAs?$AAt?$AAe?$AAr?$AAN?$AAo?$AAd?$AAe?$AA?$AA@ 1013fb54     physics:dgWorldDynamicUpdate.obj
 0002:0000eb80       ??_C@_1FI@PPFGEKKI@?$AAd?$AAg?$AAI?$AAn?$AAt?$AA3?$AA2?$AA?5?$AA?$CI?$AAs?$AAr?$AAc?$AAB?$AAo?$AAd?$AAy?$AA?9?$AA?$DO?$AAm?$AA_?$AAd?$AAy?$AAn?$AAa?$AAm?$AAi?$AAc?$AAs?$AAL?$AAr?$AAu?$AA?$CJ@ 1013fb80     physics:dgWorldDynamicUpdate.obj
 0002:0000ebd8       ??_C@_1FE@KDFNNLGP@?$AAs?$AAr?$AAc?$AAB?$AAo?$AAd?$AAy?$AA?9?$AA?$DO?$AAm?$AA_?$AAi?$AAn?$AAv?$AAM?$AAa?$AAs?$AAs?$AA?4?$AAm?$AA_?$AAw?$AA?5?$AA?$DO?$AA?5?$AAd?$AAg?$AAF?$AAl?$AAo?$AAa?$AAt@ 1013fbd8     physics:dgWorldDynamicUpdate.obj
 0002:0000ec2c       ??_C@_1BA@KHPBLNIB@?$AAs?$AAr?$AAc?$AAB?$AAo?$AAd?$AAy?$AA?$AA@ 1013fc2c     physics:dgWorldDynamicUpdate.obj
 0002:0000ec40       __real@404e000000000000    1013fc40     physics:dgWorldDynamicUpdate.obj
 0002:0000ec48       __real@3f7ff972            1013fc48     physics:dgWorldDynamicUpdate.obj
 0002:0000ec4c       __real@3f666666            1013fc4c     physics:dgWorldDynamicUpdate.obj
 0002:0000ec50       ??_C@_1FE@LGCGGBMH@?$AA?$CI?$AAr?$AAo?$AAw?$AAC?$AAo?$AAu?$AAn?$AAt?$AA?5?$AA?$CG?$AA?5?$AA?$CI?$AAD?$AAG?$AA_?$AAS?$AAI?$AAM?$AAD?$AA_?$AAW?$AAO?$AAR?$AAD?$AA_?$AAS?$AAI?$AAZ?$AAE?$AA?5?$AA?9@ 1013fc50     physics:dgWorldDynamicUpdate.obj
 0002:0000eca8       ??_C@_1HE@PJNFGLMO@?$AAc?$AAo?$AAn?$AAs?$AAt?$AAr?$AAa?$AAi?$AAn?$AAt?$AAP?$AAa?$AAr?$AAa?$AAm?$AAs?$AA?4?$AAm?$AA_?$AAj?$AAo?$AAi?$AAn?$AAt?$AAS?$AAt?$AAi?$AAf?$AAf?$AAn?$AAe?$AAs@ 1013fca8     physics:dgWorldDynamicUpdate.obj
 0002:0000ed20       ??_C@_1HA@PKOCAFKK@?$AAc?$AAo?$AAn?$AAs?$AAt?$AAr?$AAa?$AAi?$AAn?$AAt?$AAP?$AAa?$AAr?$AAa?$AAm?$AAs?$AA?4?$AAm?$AA_?$AAj?$AAo?$AAi?$AAn?$AAt?$AAS?$AAt?$AAi?$AAf?$AAf?$AAn?$AAe?$AAs@ 1013fd20     physics:dgWorldDynamicUpdate.obj
 0002:0000ed90       ??_C@_1FO@BOCJMMGO@?$AAc?$AAo?$AAn?$AAs?$AAt?$AAr?$AAa?$AAi?$AAn?$AAt?$AAP?$AAa?$AAr?$AAa?$AAm?$AAs?$AA?4?$AAm?$AA_?$AAf?$AAo?$AAr?$AAc?$AAe?$AAB?$AAo?$AAu?$AAn?$AAd?$AAs?$AA?$FL?$AAi@ 1013fd90     physics:dgWorldDynamicUpdate.obj
 0002:0000edf0       ??_C@_1EO@JMBCDEMB@?$AAc?$AAo?$AAn?$AAs?$AAt?$AAr?$AAa?$AAi?$AAn?$AAt?$AA?9?$AA?$DO?$AAm?$AA_?$AAi?$AAn?$AAd?$AAe?$AAx?$AA?5?$AA?$DN?$AA?$DN?$AA?5?$AAd?$AAg?$AAU?$AAn?$AAs?$AAi?$AAg?$AAn?$AAe@ 1013fdf0     physics:dgWorldDynamicUpdate.obj
 0002:0000ee40       ??_C@_1DM@OEHDKDHA@?$AAd?$AAo?$AAf?$AA?5?$AA?$DM?$AA?$DN?$AA?5?$AAD?$AAG?$AA_?$AAC?$AAO?$AAN?$AAS?$AAT?$AAR?$AAA?$AAI?$AAN?$AAT?$AA_?$AAM?$AAA?$AAX?$AA_?$AAR?$AAO?$AAW?$AAS?$AA?$AA@ 1013fe40     physics:dgWorldDynamicUpdate.obj
 0002:0000ee7c       ??_C@_1DA@KODFPJGN@?$AAd?$AAi?$AAa?$AAg?$AA?5?$AA?$DO?$AA?5?$AAd?$AAg?$AAF?$AAl?$AAo?$AAa?$AAt?$AA3?$AA2?$AA?5?$AA?$CI?$AA0?$AA?4?$AA0?$AAf?$AA?$CJ?$AA?$AA@ 1013fe7c     physics:dgWorldDynamicUpdate.obj
 0002:0000eeb0       ??_C@_1EK@GHHCKKMO@?$AAd?$AAi?$AAa?$AAg?$AAD?$AAa?$AAm?$AAp?$AA?$FL?$AAi?$AAn?$AAd?$AAe?$AAx?$AA?$FN?$AA?5?$AA?$DM?$AA?$DN?$AA?5?$AAd?$AAg?$AAF?$AAl?$AAo?$AAa?$AAt?$AA3?$AA2?$AA?$CI?$AA1?$AA0?$AA0@ 1013feb0     physics:dgWorldDynamicUpdate.obj
 0002:0000ef00       ??_C@_1EG@MPFCENIH@?$AAd?$AAi?$AAa?$AAg?$AAD?$AAa?$AAm?$AAp?$AA?$FL?$AAi?$AAn?$AAd?$AAe?$AAx?$AA?$FN?$AA?5?$AA?$DO?$AA?$DN?$AA?5?$AAd?$AAg?$AAF?$AAl?$AAo?$AAa?$AAt?$AA3?$AA2?$AA?$CI?$AA0?$AA?4?$AA1@ 1013ff00     physics:dgWorldDynamicUpdate.obj
 0002:0000ef48       ??_C@_1HK@ECEOPHFK@?$AA?$CI?$AAd?$AAg?$AAU?$AAn?$AAs?$AAi?$AAg?$AAn?$AAe?$AAd?$AA6?$AA4?$AA?5?$AA?$CI?$AA?$CG?$AAb?$AAo?$AAd?$AAy?$AA1?$AA?9?$AA?$DO?$AAm?$AA_?$AAi?$AAn?$AAv?$AAW?$AAo?$AAr?$AAl@ 1013ff48     physics:dgWorldDynamicUpdate.obj
 0002:0000efc8       ??_C@_1HK@ILCPBGBP@?$AA?$CI?$AAd?$AAg?$AAU?$AAn?$AAs?$AAi?$AAg?$AAn?$AAe?$AAd?$AA6?$AA4?$AA?5?$AA?$CI?$AA?$CG?$AAb?$AAo?$AAd?$AAy?$AA0?$AA?9?$AA?$DO?$AAm?$AA_?$AAi?$AAn?$AAv?$AAW?$AAo?$AAr?$AAl@ 1013ffc8     physics:dgWorldDynamicUpdate.obj
 0002:0000f044       ??_C@_1BO@OKOLCLND@?$AAm?$AA1?$AA?5?$AA?$DM?$AA?5?$AAb?$AAo?$AAd?$AAy?$AAC?$AAo?$AAu?$AAn?$AAt?$AA?$AA@ 10140044     physics:dgWorldDynamicUpdate.obj
 0002:0000f064       ??_C@_1BA@JCNCAMPO@?$AAm?$AA1?$AA?5?$AA?$DO?$AA?$DN?$AA?5?$AA0?$AA?$AA@ 10140064     physics:dgWorldDynamicUpdate.obj
 0002:0000f074       ??_C@_1BO@OLFONGMO@?$AAm?$AA0?$AA?5?$AA?$DM?$AA?5?$AAb?$AAo?$AAd?$AAy?$AAC?$AAo?$AAu?$AAn?$AAt?$AA?$AA@ 10140074     physics:dgWorldDynamicUpdate.obj
 0002:0000f094       ??_C@_1BA@PNNONII@?$AAm?$AA0?$AA?5?$AA?$DO?$AA?$DN?$AA?5?$AA0?$AA?$AA@ 10140094     physics:dgWorldDynamicUpdate.obj
 0002:0000f150       ??_C@_1EO@BLOMMCIF@?$AAb?$AAo?$AAd?$AAy?$AA?9?$AA?$DO?$AAm?$AA_?$AAi?$AAn?$AAv?$AAM?$AAa?$AAs?$AAs?$AA?4?$AAm?$AA_?$AAw?$AA?5?$AA?$DO?$AA?5?$AAd?$AAg?$AAF?$AAl?$AAo?$AAa?$AAt?$AA3?$AA2?$AA?5@ 10140150     physics:dgWorldDynamicUpdate.obj
 0002:0000f1a0       ??_C@_1KE@DLJEBMOD@?$AA?$CI?$AAb?$AAo?$AAd?$AAy?$AAA?$AAr?$AAr?$AAa?$AAy?$AA?$FL?$AA0?$AA?$FN?$AA?4?$AAm?$AA_?$AAb?$AAo?$AAd?$AAy?$AA?9?$AA?$DO?$AAm?$AA_?$AAa?$AAl?$AAp?$AAh?$AAa?$AA?5?$AA?$CF?$AA?5@ 101401a0     physics:dgWorldDynamicUpdate.obj
 0002:0000f248       ??_C@_1KE@NPJLDACM@?$AA?$CI?$AAb?$AAo?$AAd?$AAy?$AAA?$AAr?$AAr?$AAa?$AAy?$AA?$FL?$AA0?$AA?$FN?$AA?4?$AAm?$AA_?$AAb?$AAo?$AAd?$AAy?$AA?9?$AA?$DO?$AAm?$AA_?$AAa?$AAc?$AAc?$AAe?$AAl?$AA?5?$AA?$CF?$AA?5@ 10140248     physics:dgWorldDynamicUpdate.obj
 0002:0000f2ec       ??_C@_1DA@HENMIEMC@?$AAi?$AAs?$AAl?$AAa?$AAn?$AAd?$AA?4?$AAm?$AA_?$AAb?$AAo?$AAd?$AAy?$AAC?$AAo?$AAu?$AAn?$AAt?$AA?5?$AA?$DO?$AA?$DN?$AA?5?$AA2?$AA?$AA@ 101402ec     physics:dgWorldDynamicUpdate.obj
 0002:0000f31c       ??_C@_1CE@FDEPKLL@?$AAd?$AAg?$AAC?$AAh?$AAe?$AAc?$AAk?$AAF?$AAl?$AAo?$AAa?$AAt?$AA?$CI?$AAv?$AAa?$AAl?$AA?$CJ?$AA?$AA@ 1014031c     physics:dgWorldDynamicUpdate.obj
 0002:0000f340       ??_C@_1O@PJJOBBLK@?$AAi?$AA?5?$AA?$CB?$AA?$DN?$AA?5?$AAj?$AA?$AA@ 10140340     physics:dgWorldDynamicUpdate.obj
 0002:0000f350       ??_C@_1CO@FMKMOHBM@?$AAc?$AAl?$AAa?$AAm?$AAp?$AAe?$AAd?$AAF?$AAo?$AAr?$AAc?$AAe?$AAI?$AAn?$AAd?$AAe?$AAx?$AA?5?$AA?$CB?$AA?$DN?$AA?9?$AA1?$AA?$AA@ 10140350     physics:dgWorldDynamicUpdate.obj
 0002:0000f380       ??_C@_1FA@GAIJIFNM@?$AAc?$AAo?$AAn?$AAs?$AAt?$AAr?$AAa?$AAi?$AAn?$AAt?$AAA?$AAr?$AAr?$AAa?$AAy?$AA?$FL?$AA0?$AA?$FN?$AA?4?$AAm?$AA_?$AAa?$AAu?$AAt?$AAo?$AAP?$AAa?$AAi?$AAr?$AAs?$AAt?$AAa@ 10140380     physics:dgWorldDynamicUpdate.obj
 0002:0000f3d0       __real@233877aa            101403d0     physics:dgWorldDynamicUpdate.obj
 0002:0000f3d4       ??_C@_1DA@EPCBADKC@?$AAa?$AAk?$AAD?$AAe?$AAn?$AA?5?$AA?$DO?$AA?5?$AAd?$AAg?$AAF?$AAl?$AAo?$AAa?$AAt?$AA3?$AA2?$AA?$CI?$AA0?$AA?4?$AA0?$AAf?$AA?$CJ?$AA?$AA@ 101403d4     physics:dgWorldDynamicUpdate.obj
 0002:0000f404       ??_C@_1CO@ELIGDHHP@?$AAd?$AAg?$AAC?$AAh?$AAe?$AAc?$AAk?$AAF?$AAl?$AAo?$AAa?$AAt?$AA?$CI?$AAa?$AAc?$AAc?$AAe?$AAl?$AA?$FL?$AAk?$AA?$FN?$AA?$CJ?$AA?$AA@ 10140404     physics:dgWorldDynamicUpdate.obj
 0002:0000f434       ??_C@_1CO@JLBPDGMO@?$AAd?$AAg?$AAC?$AAh?$AAe?$AAc?$AAk?$AAF?$AAl?$AAo?$AAa?$AAt?$AA?$CI?$AAf?$AAo?$AAr?$AAc?$AAe?$AA?$FL?$AAk?$AA?$FN?$AA?$CJ?$AA?$AA@ 10140434     physics:dgWorldDynamicUpdate.obj
 0002:0000f468       ??_C@_1EA@IABBDMFB@?$AAa?$AAc?$AAt?$AAi?$AAv?$AAe?$AAR?$AAo?$AAw?$AA?$FL?$AAk?$AA?$FN?$AA?5?$AA?$DO?$AA?5?$AAd?$AAg?$AAF?$AAl?$AAo?$AAa?$AAt?$AA3?$AA2?$AA?5?$AA?$CI?$AA0?$AA?4?$AA0?$AAf?$AA?$CJ?$AA?$AA@ 10140468     physics:dgWorldDynamicUpdate.obj
 0002:0000f4a8       __real@bc9cd2b2a0000000    101404a8     physics:dgWorldDynamicUpdate.obj
 0002:0000f4b0       ??_C@_1EM@CIBAJANJ@?$AAd?$AAg?$AAA?$AAb?$AAs?$AAf?$AA?5?$AA?$CI?$AAa?$AAk?$AAD?$AAe?$AAn?$AA?$CJ?$AA?5?$AA?$DO?$AA?$DN?$AA?5?$AAd?$AAg?$AAF?$AAl?$AAo?$AAa?$AAt?$AA3?$AA2?$AA?$CI?$AA1?$AA?4?$AA0?$AAe@ 101404b0     physics:dgWorldDynamicUpdate.obj
 0002:0000f500       __real@3c9cd2b2a0000000    10140500     physics:dgWorldDynamicUpdate.obj
 0002:0000f508       __real@24e69595            10140508     physics:dgWorldDynamicUpdate.obj
 0002:0000f50c       ??_C@_1DC@EPPDFABA@?$AAa?$AAk?$AAD?$AAe?$AAn?$AA?5?$AA?$DO?$AA?5?$AAd?$AAg?$AAF?$AAl?$AAo?$AAa?$AAt?$AA3?$AA2?$AA?5?$AA?$CI?$AA0?$AA?4?$AA0?$AAf?$AA?$CJ?$AA?$AA@ 1014050c     physics:dgWorldDynamicUpdate.obj
 0002:0000f540       ??_C@_1LG@EDCMBOML@?$AA?$CI?$AA?$CI?$AAk?$AA?5?$AA?$DM?$AA0?$AA?$CJ?$AA?5?$AA?$CG?$AA?$CG?$AA?5?$AA?$CI?$AAf?$AAo?$AAr?$AAc?$AAe?$AA?$FL?$AAk?$AA?$FN?$AA?5?$AA?$DN?$AA?$DN?$AA?5?$AAd?$AAg?$AAF?$AAl?$AAo?$AAa?$AAt?$AA3@ 10140540     physics:dgWorldDynamicUpdate.obj
 0002:0000f5f8       ??_C@_1DE@POBPAAI@?$AAa?$AAk?$AAN?$AAu?$AAm?$AA?5?$AA?$DO?$AA?$DN?$AA?5?$AAd?$AAg?$AAF?$AAl?$AAo?$AAa?$AAt?$AA3?$AA2?$AA?5?$AA?$CI?$AA0?$AA?4?$AA0?$AAf?$AA?$CJ?$AA?$AA@ 101405f8     physics:dgWorldDynamicUpdate.obj
 0002:0000f630       __real@bee4f8b580000000    10140630     physics:dgWorldDynamicUpdate.obj
 0002:0000f638       ??_C@_1EA@IAIADLFH@?$AAd?$AAg?$AAC?$AAh?$AAe?$AAc?$AAk?$AAF?$AAl?$AAo?$AAa?$AAt?$AA?$CI?$AAd?$AAe?$AAl?$AAt?$AAa?$AAF?$AAo?$AAr?$AAc?$AAe?$AA?$FL?$AAi?$AAn?$AAd?$AAe?$AAx?$AA?$FN?$AA?$CJ?$AA?$AA@ 10140638     physics:dgWorldDynamicUpdate.obj
 0002:0000f678       ??_C@_1BBG@IHGLHKEM@?$AA?$CI?$AAi?$AA?5?$AA?$CB?$AA?$DN?$AA?5?$AAc?$AAl?$AAa?$AAm?$AAp?$AAe?$AAd?$AAF?$AAo?$AAr?$AAc?$AAe?$AAJ?$AAo?$AAi?$AAn?$AAt?$AA?$CJ?$AA?5?$AA?$HM?$AA?$HM?$AA?5?$AA?$CB?$AA?$CI?$AA?$CI?$AAd@ 10140678     physics:dgWorldDynamicUpdate.obj
 0002:0000f790       ??_C@_1BBG@LMPKHGHL@?$AA?$CI?$AAi?$AA?5?$AA?$CB?$AA?$DN?$AA?5?$AAc?$AAl?$AAa?$AAm?$AAp?$AAe?$AAd?$AAF?$AAo?$AAr?$AAc?$AAe?$AAJ?$AAo?$AAi?$AAn?$AAt?$AA?$CJ?$AA?5?$AA?$HM?$AA?$HM?$AA?5?$AA?$CB?$AA?$CI?$AA?$CI?$AAd@ 10140790     physics:dgWorldDynamicUpdate.obj
 0002:0000f8a8       ??_C@_1CO@IDCCMBOH@?$AAa?$AAk?$AA?5?$AA?$DO?$AA?$DN?$AA?5?$AAd?$AAg?$AAF?$AAl?$AAo?$AAa?$AAt?$AA3?$AA2?$AA?5?$AA?$CI?$AA0?$AA?4?$AA0?$AAf?$AA?$CJ?$AA?$AA@ 101408a8     physics:dgWorldDynamicUpdate.obj
 0002:0000f8d8       ??_C@_1LI@BFKOOOMI@?$AA?$CI?$AA?$CI?$AAj?$AA?5?$AA?$DM?$AA?5?$AA0?$AA?$CJ?$AA?5?$AA?$CG?$AA?$CG?$AA?5?$AA?$CI?$AAf?$AAo?$AAr?$AAc?$AAe?$AA?$FL?$AAj?$AA?$FN?$AA?5?$AA?$DN?$AA?$DN?$AA?5?$AAd?$AAg?$AAF?$AAl?$AAo?$AAa?$AAt@ 101408d8     physics:dgWorldDynamicUpdate.obj
 0002:0000f990       ??_C@_1GC@KHMDPBDC@?$AAa?$AAc?$AAt?$AAi?$AAv?$AAe?$AAR?$AAo?$AAw?$AA?$FL?$AAc?$AAl?$AAa?$AAm?$AAp?$AAe?$AAd?$AAF?$AAo?$AAr?$AAc?$AAe?$AAI?$AAn?$AAd?$AAe?$AAx?$AA?$FN?$AA?5?$AA?$DN?$AA?$DN?$AA?5@ 10140990     physics:dgWorldDynamicUpdate.obj
 0002:0000f9f4       ??_C@_1CO@IHCMDHOB@?$AAd?$AAg?$AAC?$AAh?$AAe?$AAc?$AAk?$AAF?$AAl?$AAo?$AAa?$AAt?$AA?$CI?$AAa?$AAc?$AAc?$AAe?$AAl?$AA?$FL?$AAj?$AA?$FN?$AA?$CJ?$AA?$AA@ 101409f4     physics:dgWorldDynamicUpdate.obj
 0002:0000fa28       ??_C@_1EA@KKDJAEDD@?$AAa?$AAc?$AAt?$AAi?$AAv?$AAe?$AAR?$AAo?$AAw?$AA?$FL?$AAj?$AA?$FN?$AA?5?$AA?$DO?$AA?5?$AAd?$AAg?$AAF?$AAl?$AAo?$AAa?$AAt?$AA3?$AA2?$AA?5?$AA?$CI?$AA0?$AA?4?$AA0?$AAf?$AA?$CJ?$AA?$AA@ 10140a28     physics:dgWorldDynamicUpdate.obj
 0002:0000fa68       ??_C@_1BBI@JNAIJFL@?$AA?$CI?$AA?$CI?$AAf?$AAr?$AAi?$AAc?$AAt?$AAi?$AAo?$AAn?$AAI?$AAn?$AAd?$AAe?$AAx?$AA?5?$AA?$DM?$AA?5?$AA0?$AA?$CJ?$AA?5?$AA?$CG?$AA?$CG?$AA?5?$AA?$CI?$AAf?$AAo?$AAr?$AAc?$AAe?$AA?$FL?$AAf@ 10140a68     physics:dgWorldDynamicUpdate.obj
 0002:0000fb80       ??_C@_1GE@GOKLNKJD@?$AAm?$AA_?$AAb?$AAo?$AAd?$AAy?$AAA?$AAr?$AAr?$AAa?$AAy?$AA?$FL?$AA0?$AA?$FN?$AA?4?$AAm?$AA_?$AAb?$AAo?$AAd?$AAy?$AA?5?$AA?$DN?$AA?$DN?$AA?5?$AAm?$AA_?$AAw?$AAo?$AAr?$AAl?$AAd@ 10140b80     physics:dgWorldDynamicUpdate.obj
 0002:0000fbe4       ??_C@_1CC@OBEEGFED@?$AAm?$AA1?$AA?5?$AA?$DM?$AA?5?$AAm?$AA_?$AAb?$AAo?$AAd?$AAy?$AAC?$AAo?$AAu?$AAn?$AAt?$AA?$AA@ 10140be4     physics:dgWorldDynamicUpdate.obj
 0002:0000fc08       ??_C@_1CC@BAJOGAOJ@?$AAm?$AA0?$AA?5?$AA?$DM?$AA?5?$AAm?$AA_?$AAb?$AAo?$AAd?$AAy?$AAC?$AAo?$AAu?$AAn?$AAt?$AA?$AA@ 10140c08     physics:dgWorldDynamicUpdate.obj
 0002:0000fc30       ??_C@_1BCA@EGANFMLG@?$AA?$CI?$AA?$CI?$AAf?$AAr?$AAi?$AAc?$AAt?$AAi?$AAo?$AAn?$AAI?$AAn?$AAd?$AAe?$AAx?$AA?5?$AA?$DM?$AA?5?$AA0?$AA?$CJ?$AA?5?$AA?$CG?$AA?$CG?$AA?5?$AA?$CI?$AAm?$AA_?$AAf?$AAo?$AAr?$AAc?$AAe@ 10140c30     physics:dgWorldDynamicUpdate.obj
 0002:0000fd50       ??_C@_1OO@IIKBDBAO@?$AAd?$AA?3?$AA?2?$AAp?$AAr?$AAo?$AAj?$AAe?$AAc?$AAt?$AAs?$AA?2?$AAw?$AAo?$AAr?$AAk?$AAs?$AAp?$AAa?$AAc?$AAe?$AA?2?$AAa?$AAr?$AAk?$AAa?$AAn?$AAo?$AAi?$AAd?$AA?2?$AAa@ 10140d50     physics:dgWorldDynamicUpdate.obj
 0002:0000fe40       ??_C@_1DI@LDBLCLBK@?$AAm?$AA_?$AAf?$AAi?$AAr?$AAs?$AAt?$AAI?$AAn?$AAd?$AAe?$AAx?$AA?5?$AA?$CB?$AA?$DN?$AA?5?$AAm?$AA_?$AAl?$AAa?$AAs?$AAt?$AAI?$AAn?$AAd?$AAe?$AAx?$AA?$AA@ 10140e40     physics:dgWorldDynamicUpdate.obj
 0002:0000fe78       ??_C@_1GC@GFFGBDPB@?$AAc?$AAo?$AAm?$AAp?$AAa?$AAr?$AAe?$AA?5?$AA?$CI?$AA?$CG?$AAa?$AAr?$AAr?$AAa?$AAy?$AA?$FL?$AAi?$AA?$FN?$AA?0?$AA?5?$AA?$CG?$AAa?$AAr?$AAr?$AAa?$AAy?$AA?$FL?$AAi?$AA?5?$AA?$CL?$AA?5?$AA1@ 10140e78     physics:dgWorldDynamicUpdate.obj
 0002:0000fedc       ??_C@_1M@GONCACPB@?$AAj?$AA?5?$AA?$DO?$AA?5?$AA0?$AA?$AA@ 10140edc     physics:dgWorldDynamicUpdate.obj
 0002:0000fee8       ??_C@_1IG@DCFGMJMF@?$AAs?$AAt?$AAa?$AAc?$AAk?$AAI?$AAn?$AAd?$AAe?$AAx?$AA?5?$AA?$DM?$AA?5?$AAd?$AAg?$AAI?$AAn?$AAt?$AA3?$AA2?$AA?5?$AA?$CI?$AAs?$AAi?$AAz?$AAe?$AAo?$AAf?$AA?5?$AA?$CI?$AAs?$AAt@ 10140ee8     physics:dgWorldDynamicUpdate.obj
 0002:0000ff70       ??_C@_1GG@JEHHPHEF@?$AA?4?$AA?4?$AA?2?$AA?4?$AA?4?$AA?2?$AA?4?$AA?4?$AA?2?$AAs?$AAo?$AAu?$AAr?$AAc?$AAe?$AA?2?$AAp?$AAh?$AAy?$AAs?$AAi?$AAc?$AAs?$AA?2?$AAd?$AAg?$AAN?$AAa?$AAr?$AAr?$AAo?$AAw@ 10140f70     physics:dgNarrowPhaseCollision.obj
 0002:0000ffd8       ??_C@_1BC@HHAMINCA@?$AAt?$AAh?$AAi?$AAs?$AAN?$AAo?$AAd?$AAe?$AA?$AA@ 10140fd8     physics:dgNarrowPhaseCollision.obj
 0002:0000ffec       ??_C@_1DK@EOPAFJHD@?$AAn?$AAo?$AAd?$AAe?$AA?9?$AA?$DO?$AAG?$AAe?$AAt?$AAI?$AAn?$AAf?$AAo?$AA?$CI?$AA?$CJ?$AA?5?$AA?$DN?$AA?$DN?$AA?5?$AAc?$AAo?$AAl?$AAl?$AAi?$AAs?$AAi?$AAo?$AAn?$AA?$AA@ 10140fec     physics:dgNarrowPhaseCollision.obj
 0002:00010028       ??_C@_1HC@OBLHMFHO@?$AAc?$AAo?$AAl?$AAl?$AAi?$AAs?$AAi?$AAo?$AAn?$AA?9?$AA?$DO?$AAI?$AAs?$AAT?$AAy?$AAp?$AAe?$AA?$CI?$AAd?$AAg?$AAC?$AAo?$AAl?$AAl?$AAi?$AAs?$AAi?$AAo?$AAn?$AA?3?$AA?3?$AAd@ 10141028     physics:dgNarrowPhaseCollision.obj
 0002:0001009c       ??_C@_1BM@NIOOJLGL@?$AAj?$AA?5?$AA?$DN?$AA?$DN?$AA?5?$AAm?$AAa?$AAx?$AAC?$AAo?$AAu?$AAn?$AAt?$AA?$AA@ 1014109c     physics:dgNarrowPhaseCollision.obj
 0002:000100b8       ??_C@_1BO@HAGCCGEI@?$AAc?$AAo?$AAu?$AAn?$AAt?$AAO?$AAv?$AAe?$AAr?$AA?5?$AA?$DO?$AA?$DN?$AA?5?$AA0?$AA?$AA@ 101410b8     physics:dgNarrowPhaseCollision.obj
 0002:000100d8       ??_C@_1FI@CCHIMPFJ@?$AAc?$AAo?$AAn?$AAt?$AAa?$AAc?$AAt?$AAM?$AAa?$AAt?$AAe?$AAr?$AAi?$AAa?$AAl?$AA?4?$AAm?$AA_?$AAb?$AAo?$AAd?$AAy?$AA1?$AA?5?$AA?$DN?$AA?$DN?$AA?5?$AAc?$AAo?$AAn?$AAt?$AAa@ 101410d8     physics:dgNarrowPhaseCollision.obj
 0002:00010130       ??_C@_1FI@LAOMJAFO@?$AAc?$AAo?$AAn?$AAt?$AAa?$AAc?$AAt?$AAM?$AAa?$AAt?$AAe?$AAr?$AAi?$AAa?$AAl?$AA?4?$AAm?$AA_?$AAb?$AAo?$AAd?$AAy?$AA0?$AA?5?$AA?$DN?$AA?$DN?$AA?5?$AAc?$AAo?$AAn?$AAt?$AAa@ 10141130     physics:dgNarrowPhaseCollision.obj
 0002:00010188       ??_C@_1DK@NFMIGGKJ@?$AAc?$AAo?$AAn?$AAt?$AAa?$AAc?$AAt?$AAM?$AAa?$AAt?$AAe?$AAr?$AAi?$AAa?$AAl?$AA?4?$AAm?$AA_?$AAc?$AAo?$AAl?$AAl?$AAi?$AAs?$AAi?$AAo?$AAn?$AA1?$AA?$AA@ 10141188     physics:dgNarrowPhaseCollision.obj
 0002:000101c4       ??_C@_1DK@GNHEABMM@?$AAc?$AAo?$AAn?$AAt?$AAa?$AAc?$AAt?$AAM?$AAa?$AAt?$AAe?$AAr?$AAi?$AAa?$AAl?$AA?4?$AAm?$AA_?$AAc?$AAo?$AAl?$AAl?$AAi?$AAs?$AAi?$AAo?$AAn?$AA0?$AA?$AA@ 101411c4     physics:dgNarrowPhaseCollision.obj
 0002:00010200       ??_C@_1DA@OHMGINNH@?$AAc?$AAo?$AAn?$AAt?$AAa?$AAc?$AAt?$AAM?$AAa?$AAt?$AAe?$AAr?$AAi?$AAa?$AAl?$AA?4?$AAm?$AA_?$AAb?$AAo?$AAd?$AAy?$AA1?$AA?$AA@ 10141200     physics:dgNarrowPhaseCollision.obj
 0002:00010230       ??_C@_1DA@FPHKOKLC@?$AAc?$AAo?$AAn?$AAt?$AAa?$AAc?$AAt?$AAM?$AAa?$AAt?$AAe?$AAr?$AAi?$AAa?$AAl?$AA?4?$AAm?$AA_?$AAb?$AAo?$AAd?$AAy?$AA0?$AA?$AA@ 10141230     physics:dgNarrowPhaseCollision.obj
 0002:00010260       ??_C@_1FE@JMBPPOMA@?$AAd?$AAg?$AAC?$AAh?$AAe?$AAc?$AAk?$AAF?$AAl?$AAo?$AAa?$AAt?$AA?$CI?$AAc?$AAo?$AAn?$AAt?$AAa?$AAc?$AAt?$AAM?$AAa?$AAt?$AAe?$AAr?$AAi?$AAa?$AAl?$AA?4?$AAm?$AA_?$AAp@ 10141260     physics:dgNarrowPhaseCollision.obj
 0002:000102b8       ??_C@_1FE@BKILIMGO@?$AAd?$AAg?$AAC?$AAh?$AAe?$AAc?$AAk?$AAF?$AAl?$AAo?$AAa?$AAt?$AA?$CI?$AAc?$AAo?$AAn?$AAt?$AAa?$AAc?$AAt?$AAM?$AAa?$AAt?$AAe?$AAr?$AAi?$AAa?$AAl?$AA?4?$AAm?$AA_?$AAp@ 101412b8     physics:dgNarrowPhaseCollision.obj
 0002:00010310       ??_C@_1FE@NBNHFPML@?$AAd?$AAg?$AAC?$AAh?$AAe?$AAc?$AAk?$AAF?$AAl?$AAo?$AAa?$AAt?$AA?$CI?$AAc?$AAo?$AAn?$AAt?$AAa?$AAc?$AAt?$AAM?$AAa?$AAt?$AAe?$AAr?$AAi?$AAa?$AAl?$AA?4?$AAm?$AA_?$AAp@ 10141310     physics:dgNarrowPhaseCollision.obj
 0002:00010368       ??_C@_1EK@LLHHHKBH@?$AAc?$AAo?$AAn?$AAt?$AAa?$AAc?$AAt?$AA?9?$AA?$DO?$AAm?$AA_?$AAb?$AAo?$AAd?$AAy?$AA0?$AA?5?$AA?$CB?$AA?$DN?$AA?5?$AAc?$AAo?$AAn?$AAt?$AAa?$AAc?$AAt?$AA?9?$AA?$DO?$AAm?$AA_?$AAb@ 10141368     physics:dgNarrowPhaseCollision.obj
 0002:000103b8       ??_C@_1EO@EGCJOACM@?$AAc?$AAo?$AAn?$AAt?$AAa?$AAc?$AAt?$AA?9?$AA?$DO?$AAm?$AA_?$AAm?$AAy?$AAC?$AAa?$AAc?$AAh?$AAe?$AAM?$AAa?$AAt?$AAe?$AAr?$AAi?$AAa?$AAl?$AA?5?$AA?$DN?$AA?$DN?$AA?5?$AAm?$AAa@ 101413b8     physics:dgNarrowPhaseCollision.obj
 0002:00010408       ??_C@_1DG@BAIGFKMA@?$AAc?$AAo?$AAn?$AAt?$AAa?$AAc?$AAt?$AA?9?$AA?$DO?$AAm?$AA_?$AAm?$AAy?$AAC?$AAa?$AAc?$AAh?$AAe?$AAM?$AAa?$AAt?$AAe?$AAr?$AAi?$AAa?$AAl?$AA?$AA@ 10141408     physics:dgNarrowPhaseCollision.obj
 0002:00010440       ??_C@_1BA@JBDJMGOO@?$AAc?$AAo?$AAn?$AAt?$AAa?$AAc?$AAt?$AA?$AA@ 10141440     physics:dgNarrowPhaseCollision.obj
 0002:00010450       ??_C@_1DE@NABCEGKL@?$AAc?$AAo?$AAn?$AAt?$AAa?$AAc?$AAt?$AA?9?$AA?$DO?$AAm?$AA_?$AAb?$AAo?$AAd?$AAy?$AA1?$AA?5?$AA?$DN?$AA?$DN?$AA?5?$AAb?$AAo?$AAd?$AAy?$AA1?$AA?$AA@ 10141450     physics:dgNarrowPhaseCollision.obj
 0002:00010484       ??_C@_1DE@HPIGEFAO@?$AAc?$AAo?$AAn?$AAt?$AAa?$AAc?$AAt?$AA?9?$AA?$DO?$AAm?$AA_?$AAb?$AAo?$AAd?$AAy?$AA0?$AA?5?$AA?$DN?$AA?$DN?$AA?5?$AAb?$AAo?$AAd?$AAy?$AA0?$AA?$AA@ 10141484     physics:dgNarrowPhaseCollision.obj
 0002:000104b8       ??_C@_1M@FALEPJHG@?$AAb?$AAo?$AAd?$AAy?$AA1?$AA?$AA@ 101414b8     physics:dgNarrowPhaseCollision.obj
 0002:000104c4       ??_C@_1DM@ECGDKDOL@?$AAc?$AAo?$AAn?$AAt?$AAa?$AAc?$AAt?$AA1?$AA?9?$AA?$DO?$AAG?$AAe?$AAt?$AAB?$AAo?$AAd?$AAy?$AA0?$AA?$CI?$AA?$CJ?$AA?5?$AA?$DN?$AA?$DN?$AA?5?$AAb?$AAo?$AAd?$AAy?$AA1?$AA?$AA@ 101414c4     physics:dgNarrowPhaseCollision.obj
 0002:00010500       ??_C@_1DM@BNMCGCBJ@?$AAc?$AAo?$AAn?$AAt?$AAa?$AAc?$AAt?$AA1?$AA?9?$AA?$DO?$AAG?$AAe?$AAt?$AAB?$AAo?$AAd?$AAy?$AA1?$AA?$CI?$AA?$CJ?$AA?5?$AA?$DN?$AA?$DN?$AA?5?$AAb?$AAo?$AAd?$AAy?$AA0?$AA?$AA@ 10141500     physics:dgNarrowPhaseCollision.obj
 0002:00010540       ??_C@_1BAC@PODLHCIA@?$AAd?$AAg?$AAA?$AAb?$AAs?$AAf?$AA?$CI?$AA?$CI?$AAc?$AAo?$AAn?$AAt?$AAa?$AAc?$AAt?$AAM?$AAa?$AAt?$AAe?$AAr?$AAi?$AAa?$AAl?$AA?9?$AA?$DO?$AAm?$AA_?$AAd?$AAi?$AAr?$AA0?$AA?5@ 10141540     physics:dgNarrowPhaseCollision.obj
 0002:00010648       ??_C@_1JA@KNFIFNBN@?$AAc?$AAo?$AAn?$AAt?$AAa?$AAc?$AAt?$AAM?$AAa?$AAt?$AAe?$AAr?$AAi?$AAa?$AAl?$AA?9?$AA?$DO?$AAm?$AA_?$AAd?$AAi?$AAr?$AA0?$AA?5?$AA?$CF?$AA?5?$AAc?$AAo?$AAn?$AAt?$AAa?$AAc@ 10141648     physics:dgNarrowPhaseCollision.obj
 0002:000106d8       __real@3feffbe760000000    101416d8     physics:dgNarrowPhaseCollision.obj
 0002:000106e0       ??_C@_1NC@IBAMDNBP@?$AA?$CI?$AAd?$AAg?$AAA?$AAb?$AAs?$AAf?$AA?$CI?$AAc?$AAo?$AAn?$AAt?$AAa?$AAc?$AAt?$AAM?$AAa?$AAt?$AAe?$AAr?$AAi?$AAa?$AAl?$AA?9?$AA?$DO?$AAm?$AA_?$AAn?$AAo?$AAr?$AAm?$AAa@ 101416e0     physics:dgNarrowPhaseCollision.obj
 0002:000107b8       ??_C@_1EC@EAJOHEOF@?$AAc?$AAo?$AAn?$AAt?$AAa?$AAc?$AAt?$AAA?$AAr?$AAr?$AAa?$AAy?$AA?$FL?$AAi?$AA?$FN?$AA?4?$AAm?$AA_?$AAb?$AAo?$AAd?$AAy?$AA1?$AA?5?$AA?$DN?$AA?$DN?$AA?5?$AAb?$AAo?$AAd?$AAy?$AA1@ 101417b8     physics:dgNarrowPhaseCollision.obj
 0002:00010800       ??_C@_1EC@OPAKHHEA@?$AAc?$AAo?$AAn?$AAt?$AAa?$AAc?$AAt?$AAA?$AAr?$AAr?$AAa?$AAy?$AA?$FL?$AAi?$AA?$FN?$AA?4?$AAm?$AA_?$AAb?$AAo?$AAd?$AAy?$AA0?$AA?5?$AA?$DN?$AA?$DN?$AA?5?$AAb?$AAo?$AAd?$AAy?$AA0@ 10141800     physics:dgNarrowPhaseCollision.obj
 0002:00010844       ??_C@_1DK@KPECONDF@?$AAc?$AAo?$AAn?$AAt?$AAa?$AAc?$AAt?$AAA?$AAr?$AAr?$AAa?$AAy?$AA?$FL?$AAi?$AA?$FN?$AA?4?$AAm?$AA_?$AAc?$AAo?$AAl?$AAl?$AAi?$AAs?$AAi?$AAo?$AAn?$AA1?$AA?$AA@ 10141844     physics:dgNarrowPhaseCollision.obj
 0002:00010880       ??_C@_1DK@BHPOIKFA@?$AAc?$AAo?$AAn?$AAt?$AAa?$AAc?$AAt?$AAA?$AAr?$AAr?$AAa?$AAy?$AA?$FL?$AAi?$AA?$FN?$AA?4?$AAm?$AA_?$AAc?$AAo?$AAl?$AAl?$AAi?$AAs?$AAi?$AAo?$AAn?$AA0?$AA?$AA@ 10141880     physics:dgNarrowPhaseCollision.obj
 0002:000108bc       ??_C@_1DA@IJJPFII@?$AAc?$AAo?$AAn?$AAt?$AAa?$AAc?$AAt?$AAA?$AAr?$AAr?$AAa?$AAy?$AA?$FL?$AAi?$AA?$FN?$AA?4?$AAm?$AA_?$AAb?$AAo?$AAd?$AAy?$AA1?$AA?$AA@ 101418bc     physics:dgNarrowPhaseCollision.obj
 0002:000108ec       ??_C@_1DA@LACFJCON@?$AAc?$AAo?$AAn?$AAt?$AAa?$AAc?$AAt?$AAA?$AAr?$AAr?$AAa?$AAy?$AA?$FL?$AAi?$AA?$FN?$AA?4?$AAm?$AA_?$AAb?$AAo?$AAd?$AAy?$AA0?$AA?$AA@ 101418ec     physics:dgNarrowPhaseCollision.obj
 0002:00010920       ??_C@_1FE@OGJFHFFM@?$AAd?$AAg?$AAC?$AAh?$AAe?$AAc?$AAk?$AAF?$AAl?$AAo?$AAa?$AAt?$AA?$CI?$AAc?$AAo?$AAn?$AAt?$AAa?$AAc?$AAt?$AAA?$AAr?$AAr?$AAa?$AAy?$AA?$FL?$AAi?$AA?$FN?$AA?4?$AAm?$AA_?$AAp@ 10141920     physics:dgNarrowPhaseCollision.obj
 0002:00010978       ??_C@_1FE@GAABAHPC@?$AAd?$AAg?$AAC?$AAh?$AAe?$AAc?$AAk?$AAF?$AAl?$AAo?$AAa?$AAt?$AA?$CI?$AAc?$AAo?$AAn?$AAt?$AAa?$AAc?$AAt?$AAA?$AAr?$AAr?$AAa?$AAy?$AA?$FL?$AAi?$AA?$FN?$AA?4?$AAm?$AA_?$AAp@ 10141978     physics:dgNarrowPhaseCollision.obj
 0002:000109d0       ??_C@_1FE@KLFNNEFH@?$AAd?$AAg?$AAC?$AAh?$AAe?$AAc?$AAk?$AAF?$AAl?$AAo?$AAa?$AAt?$AA?$CI?$AAc?$AAo?$AAn?$AAt?$AAa?$AAc?$AAt?$AAA?$AAr?$AAr?$AAa?$AAy?$AA?$FL?$AAi?$AA?$FN?$AA?4?$AAm?$AA_?$AAp@ 101419d0     physics:dgNarrowPhaseCollision.obj
 0002:00010a24       ??_C@_1BI@EJPMDGBF@?$AAi?$AAn?$AAd?$AAe?$AAx?$AA?5?$AA?$CB?$AA?$DN?$AA?5?$AA?9?$AA1?$AA?$AA@ 10141a24     physics:dgNarrowPhaseCollision.obj
 0002:00010a3c       __real@60ad78ec            10141a3c     physics:dgNarrowPhaseCollision.obj
 0002:00010a40       ??_C@_1LK@ILOPNGGH@?$AAd?$AAg?$AAA?$AAb?$AAs?$AAf?$AA?$CI?$AA?$CI?$AAc?$AAo?$AAn?$AAt?$AAr?$AAo?$AAl?$AAD?$AAi?$AAr?$AA0?$AA?5?$AA?$CK?$AA?5?$AAc?$AAo?$AAn?$AAt?$AAr?$AAo?$AAl?$AAD?$AAi?$AAr@ 10141a40     physics:dgNarrowPhaseCollision.obj
 0002:00010b00       ??_C@_1GA@BGNKBJAC@?$AAc?$AAo?$AAn?$AAt?$AAr?$AAo?$AAl?$AAD?$AAi?$AAr?$AA0?$AA?5?$AA?$CF?$AA?5?$AAc?$AAo?$AAn?$AAt?$AAr?$AAo?$AAl?$AAD?$AAi?$AAr?$AA0?$AA?5?$AA?$DO?$AA?5?$AAd?$AAg?$AAF?$AAl@ 10141b00     physics:dgNarrowPhaseCollision.obj
 0002:00010b60       __real@3eb0c6f7c0000000    10141b60     physics:dgNarrowPhaseCollision.obj
 0002:00010b68       ??_C@_1JG@DMDHGNLH@?$AA?$CI?$AAc?$AAo?$AAn?$AAt?$AAa?$AAc?$AAt?$AA?9?$AA?$DO?$AAG?$AAe?$AAt?$AAB?$AAo?$AAd?$AAy?$AA0?$AA?$CI?$AA?$CJ?$AA?5?$AA?$DN?$AA?$DN?$AA?5?$AAc?$AAo?$AAn?$AAv?$AAe?$AAx?$AAB?$AAo@ 10141b68     physics:dgNarrowPhaseCollision.obj
 0002:00010c00       ??_C@_1JC@MDOOCNNH@?$AA?$CI?$AAc?$AAo?$AAn?$AAt?$AAa?$AAc?$AAt?$AA?9?$AA?$DO?$AAG?$AAe?$AAt?$AAB?$AAo?$AAd?$AAy?$AA0?$AA?$CI?$AA?$CJ?$AA?5?$AA?$DN?$AA?$DN?$AA?5?$AAo?$AAt?$AAh?$AAe?$AAr?$AAB?$AAo?$AAd@ 10141c00     physics:dgNarrowPhaseCollision.obj
 0002:00010c98       ??_C@_1GO@OEDFKMFL@?$AAc?$AAo?$AAn?$AAt?$AAa?$AAc?$AAt?$AA?5?$AA?$CG?$AA?$CG?$AA?5?$AA?$CI?$AAc?$AAo?$AAn?$AAt?$AAa?$AAc?$AAt?$AA?9?$AA?$DO?$AAG?$AAe?$AAt?$AAI?$AAd?$AA?$CI?$AA?$CJ?$AA?5?$AA?$DN?$AA?$DN?$AA?5@ 10141c98     physics:dgNarrowPhaseCollision.obj
 0002:00010d08       ??_C@_1JC@NOABOKBA@?$AAp?$AAa?$AAi?$AAr?$AA?9?$AA?$DO?$AAm?$AA_?$AAb?$AAo?$AAd?$AAy?$AA1?$AA?9?$AA?$DO?$AAm?$AA_?$AAc?$AAo?$AAl?$AAl?$AAi?$AAs?$AAi?$AAo?$AAn?$AA?9?$AA?$DO?$AAI?$AAs?$AAT?$AAy@ 10141d08     physics:dgNarrowPhaseCollision.obj
 0002:00010da0       ??_C@_1JC@ELFCFCGO@?$AAp?$AAa?$AAi?$AAr?$AA?9?$AA?$DO?$AAm?$AA_?$AAb?$AAo?$AAd?$AAy?$AA0?$AA?9?$AA?$DO?$AAm?$AA_?$AAc?$AAo?$AAl?$AAl?$AAi?$AAs?$AAi?$AAo?$AAn?$AA?9?$AA?$DO?$AAI?$AAs?$AAT?$AAy@ 10141da0     physics:dgNarrowPhaseCollision.obj
 0002:00010e38       ??_C@_1IK@JHFEFMEK@?$AAo?$AAt?$AAh?$AAe?$AAr?$AAB?$AAo?$AAd?$AAy?$AA?9?$AA?$DO?$AAm?$AA_?$AAc?$AAo?$AAl?$AAl?$AAi?$AAs?$AAi?$AAo?$AAn?$AA?9?$AA?$DO?$AAI?$AAs?$AAT?$AAy?$AAp?$AAe?$AA?5?$AA?$CI@ 10141e38     physics:dgNarrowPhaseCollision.obj
 0002:00010ec8       ??_C@_1IM@KNDBJEME@?$AAc?$AAo?$AAn?$AAv?$AAe?$AAx?$AAB?$AAo?$AAd?$AAy?$AA?9?$AA?$DO?$AAm?$AA_?$AAc?$AAo?$AAl?$AAl?$AAi?$AAs?$AAi?$AAo?$AAn?$AA?9?$AA?$DO?$AAI?$AAs?$AAT?$AAy?$AAp?$AAe?$AA?5@ 10141ec8     physics:dgNarrowPhaseCollision.obj
 0002:00010f58       ??_C@_1JE@HNJGLOHL@?$AAp?$AAa?$AAi?$AAr?$AA?9?$AA?$DO?$AAm?$AA_?$AAb?$AAo?$AAd?$AAy?$AA1?$AA?9?$AA?$DO?$AAG?$AAe?$AAt?$AAC?$AAo?$AAl?$AAl?$AAi?$AAs?$AAi?$AAo?$AAn?$AA?$CI?$AA?$CJ?$AA?9?$AA?$DO?$AAI@ 10141f58     physics:dgNarrowPhaseCollision.obj
 0002:00010ff0       ??_C@_1GE@IKCOFHOD@?$AAs?$AAc?$AAe?$AAn?$AAe?$AA?9?$AA?$DO?$AAI?$AAs?$AAT?$AAy?$AAp?$AAe?$AA?$CI?$AAd?$AAg?$AAC?$AAo?$AAl?$AAl?$AAi?$AAs?$AAi?$AAo?$AAn?$AA?3?$AA?3?$AAd?$AAg?$AAC?$AAo?$AAl@ 10141ff0     physics:dgNarrowPhaseCollision.obj
 0002:00011058       ??_C@_1GI@PPEODKDJ@?$AA?$CI?$AAe?$AAn?$AAt?$AAr?$AAy?$AA?5?$AA?$DM?$AA?5?$AAm?$AA_?$AAs?$AAi?$AAz?$AAe?$AA?$CJ?$AA?5?$AA?$HM?$AA?$HM?$AA?5?$AA?$CI?$AA?$CI?$AAm?$AA_?$AAs?$AAi?$AAz?$AAe?$AA?5?$AA?$DN?$AA?$DN?$AA?5@ 10142058     physics:dgNarrowPhaseCollision.obj
 0002:000110c0       ??_C@_1MO@DDHKFJJD@?$AAd?$AA?3?$AA?2?$AAp?$AAr?$AAo?$AAj?$AAe?$AAc?$AAt?$AAs?$AA?2?$AAw?$AAo?$AAr?$AAk?$AAs?$AAp?$AAa?$AAc?$AAe?$AA?2?$AAa?$AAr?$AAk?$AAa?$AAn?$AAo?$AAi?$AAd?$AA?2?$AAa@ 101420c0     physics:dgNarrowPhaseCollision.obj
 0002:00011190       ??_C@_1BG@DBAJPINI@?$AAe?$AAn?$AAt?$AAr?$AAy?$AA?5?$AA?$DO?$AA?$DN?$AA?5?$AA0?$AA?$AA@ 10142190     physics:dgNarrowPhaseCollision.obj
 0002:000111a8       ??_7dgListNode@?$dgList@VdgContactMaterial@@@@6B@ 101421a8     physics:dgNarrowPhaseCollision.obj
 0002:000111ac       ??_7dgTreeNode@?$dgTree@PAVdgCollision@@I@@6B@ 101421ac     physics:dgNarrowPhaseCollision.obj
 0002:000111b0       ??_7dgTreeNode@?$dgTree@VdgContactMaterial@@I@@6B@ 101421b0     physics:dgNarrowPhaseCollision.obj
 0002:000111b4       ??_7dgMeshEffect@@6BdgRefCounter@@@ 101421b4     physics:dgMeshEffect.obj
 0002:000111b8       ??_7dgMeshEffect@@6BdgPolyhedra@@@ 101421b8     physics:dgMeshEffect.obj
 0002:000111c0       __real@3fe921ff20000000    101421c0     physics:dgMeshEffect.obj
 0002:000111c8       ??_C@_1FC@CNHNBAFN@?$AA?4?$AA?4?$AA?2?$AA?4?$AA?4?$AA?2?$AA?4?$AA?4?$AA?2?$AAs?$AAo?$AAu?$AAr?$AAc?$AAe?$AA?2?$AAp?$AAh?$AAy?$AAs?$AAi?$AAc?$AAs?$AA?2?$AAd?$AAg?$AAM?$AAe?$AAs?$AAh?$AAE?$AAf@ 101421c8     physics:dgMeshEffect.obj
 0002:0001121c       ??_C@_1DK@LCGJEALI@?$AAl?$AAe?$AAf?$AAt?$AAO?$AAv?$AAe?$AAr?$AAs?$AAO?$AAu?$AAt?$AA?4?$AAG?$AAe?$AAt?$AAC?$AAo?$AAu?$AAn?$AAt?$AA?$CI?$AA?$CJ?$AA?5?$AA?$DN?$AA?$DN?$AA?5?$AA0?$AA?$AA@ 1014221c     physics:dgMeshEffect.obj
 0002:00011258       __real@c30c6bf520000000    10142258     physics:dgMeshEffect.obj
 0002:00011260       __real@430c6bf520000000    10142260     physics:dgMeshEffect.obj
 0002:00011268       ??_C@_1CG@LPADLBGI@?$AAi?$AAn?$AAd?$AAe?$AAx?$AA?5?$AA?$DM?$AA?5?$AAG?$AAe?$AAt?$AAC?$AAo?$AAu?$AAn?$AAt?$AA?$CI?$AA?$CJ?$AA?$AA@ 10142268     physics:dgMeshEffect.obj
 0002:00011290       ??_C@_1CK@IIMFGCAP@?$AAi?$AAn?$AAd?$AAe?$AAx?$AA?5?$AA?$DM?$AA?5?$AAm?$AA_?$AAa?$AAt?$AAr?$AAi?$AAb?$AAC?$AAo?$AAu?$AAn?$AAt?$AA?$AA@ 10142290     physics:dgMeshEffect.obj
 0002:000112bc       ??_C@_1BE@IJOJNKEB@?$AAi?$AAn?$AAd?$AAe?$AAx?$AA?5?$AA?$DO?$AA?$DN?$AA0?$AA?$AA@ 101422bc     physics:dgMeshEffect.obj
 0002:000112d0       __real@3fe3333340000000    101422d0     physics:dgMeshEffect.obj
 0002:000112d8       __real@401921ff20000000    101422d8     physics:dgMeshEffect.obj
 0002:000112e0       __real@3ff921ff20000000    101422e0     physics:dgMeshEffect.obj
 0002:000112e8       __real@3fefae1480000000    101422e8     physics:dgMeshEffect.obj
 0002:000112f0       __real@3fc90ff9            101422f0     physics:dgMeshEffect.obj
 0002:000112f8       __real@3e10000000000000    101422f8     physics:dgMeshEffect.obj
 0002:00011300       __real@41d0000000000000    10142300     physics:dgMeshEffect.obj
 0002:00011308       ??_C@_1LG@FJGIMHOJ@?$AAm?$AAa?$AAg?$AA3?$AA?5?$AA?$DO?$AA?5?$AAd?$AAg?$AAF?$AAl?$AAo?$AAa?$AAt?$AA6?$AA4?$AA?5?$AA?$CI?$AAD?$AAG?$AA_?$AAM?$AAE?$AAS?$AAH?$AA_?$AAE?$AAF?$AAF?$AAE?$AAC?$AAT@ 10142308     physics:dgMeshEffect.obj
 0002:000113c0       __real@3c30000000000000    101423c0     physics:dgMeshEffect.obj
 0002:000113c8       ??_C@_1HE@FOHDHCHK@?$AAc?$AAo?$AAu?$AAn?$AAt?$AA?5?$AA?$DM?$AA?5?$AAd?$AAg?$AAI?$AAn?$AAt?$AA3?$AA2?$AA?5?$AA?$CI?$AAs?$AAi?$AAz?$AAe?$AAo?$AAf?$AA?5?$AA?$CI?$AAi?$AAn?$AAd?$AAe?$AAx?$AAL?$AAi@ 101423c8     physics:dgMeshEffect.obj
 0002:00011440       ??_C@_1GK@BODFHHJM@?$AAc?$AAo?$AAu?$AAn?$AAt?$AA?5?$AA?$DM?$AA?5?$AAd?$AAg?$AAI?$AAn?$AAt?$AA3?$AA2?$AA?5?$AA?$CI?$AAs?$AAi?$AAz?$AAe?$AAo?$AAf?$AA?5?$AA?$CI?$AAp?$AAo?$AAi?$AAn?$AAt?$AAs?$AA?$CJ@ 10142440     physics:dgMeshEffect.obj
 0002:000114ac       ??_C@_19BCDHFEBA@?$AAt?$AAe?$AAs?$AAt?$AA?$AA@ 101424ac     physics:dgMeshEffect.obj
 0002:000114b8       ??_C@_1EM@KBBPACIM@?$AA?$CI?$AAm?$AA_?$AAp?$AAo?$AAi?$AAn?$AAt?$AAC?$AAo?$AAu?$AAn?$AAt?$AA?5?$AA?$CL?$AA?5?$AA3?$AA?$CJ?$AA?5?$AA?$DM?$AA?$DN?$AA?5?$AAm?$AA_?$AAm?$AAa?$AAx?$AAP?$AAo?$AAi?$AAn?$AAt@ 101424b8     physics:dgMeshEffect.obj
 0002:00011504       ??_C@_1DA@GIHGFAF@?$AAm?$AAa?$AAg?$AA2?$AA?5?$AA?$DO?$AA?5?$AAd?$AAg?$AAF?$AAl?$AAo?$AAa?$AAt?$AA3?$AA2?$AA?5?$AA?$CI?$AA0?$AA?4?$AA0?$AAf?$AA?$CJ?$AA?$AA@ 10142504     physics:dgMeshEffect.obj
 0002:00011534       ??_7dgRefCounter@@6B@      10142534     physics:dgMeshEffect.obj
 0002:00011538       ??_C@_1NI@GKCLADAH@?$AAd?$AA?3?$AA?2?$AAp?$AAr?$AAo?$AAj?$AAe?$AAc?$AAt?$AAs?$AA?2?$AAw?$AAo?$AAr?$AAk?$AAs?$AAp?$AAa?$AAc?$AAe?$AA?2?$AAa?$AAr?$AAk?$AAa?$AAn?$AAo?$AAi?$AAd?$AA?2?$AAa@ 10142538     physics:dgMeshEffect.obj
 0002:00011610       ??_C@_1CA@NOGIDNLK@?$AAm?$AA_?$AAr?$AAe?$AAf?$AAC?$AAo?$AAu?$AAn?$AAt?$AA?5?$AA?$DM?$AA?$DN?$AA?5?$AA1?$AA?$AA@ 10142610     physics:dgMeshEffect.obj
 0002:00011630       ??_C@_06IPGPIAII@?$CFd?5?$CFd?6?$AA@ 10142630     physics:dgMeshEffect.obj
 0002:00011638       ??_C@_01EEMJAFIK@?6?$AA@   10142638     physics:dgMeshEffect.obj
 0002:0001163c       ??_C@_1BG@PBIHOAA@?$AAp?$AAa?$AAr?$AAe?$AAn?$AAt?$AAN?$AAo?$AAd?$AAe?$AA?$AA@ 1014263c     physics:dgMeshEffect.obj
 0002:00011658       ??_C@_1GK@PEBDFDPB@?$AAc?$AAo?$AAu?$AAn?$AAt?$AA?5?$AA?$DM?$AA?5?$AAd?$AAg?$AAI?$AAn?$AAt?$AA3?$AA2?$AA?5?$AA?$CI?$AAs?$AAi?$AAz?$AAe?$AAo?$AAf?$AA?5?$AA?$CI?$AAi?$AAn?$AAd?$AAe?$AAx?$AA?$CJ?$AA?5@ 10142658     physics:dgMeshEffect.obj
 0002:000116c8       ??_C@_1EE@GCJOCHLI@?$AA?$CI?$AAe?$AAd?$AAg?$AAe?$AA?5?$AA?$CG?$AA?$CG?$AA?5?$AAt?$AAw?$AAi?$AAn?$AA?$CJ?$AA?5?$AA?$HM?$AA?$HM?$AA?5?$AA?$CB?$AA?$CI?$AAe?$AAd?$AAg?$AAe?$AA?5?$AA?$HM?$AA?$HM?$AA?5?$AAt?$AAw?$AAi?$AAn@ 101426c8     physics:dgMeshEffect.obj
 0002:0001170c       ??_C@_1CM@MKHPGFNB@?$AAt?$AA1?$AA?5?$AA?$DM?$AA?$DN?$AA?5?$AAd?$AAg?$AAF?$AAl?$AAo?$AAa?$AAt?$AA6?$AA4?$AA?$CI?$AA1?$AA?4?$AA0?$AAf?$AA?$CJ?$AA?$AA@ 1014270c     physics:dgMeshEffect.obj
 0002:00011738       ??_C@_1CM@JBLKNEDL@?$AAt?$AA1?$AA?5?$AA?$DO?$AA?$DN?$AA?5?$AAd?$AAg?$AAF?$AAl?$AAo?$AAa?$AAt?$AA6?$AA4?$AA?$CI?$AA0?$AA?4?$AA0?$AAf?$AA?$CJ?$AA?$AA@ 10142738     physics:dgMeshEffect.obj
 0002:00011768       ??_C@_1EK@IKHLOKAK@?$AAa?$AAt?$AAt?$AAr?$AA0?$AA?4?$AAm?$AA_?$AAm?$AAa?$AAt?$AAe?$AAr?$AAi?$AAa?$AAl?$AA?5?$AA?$DN?$AA?$DN?$AA?5?$AAa?$AAt?$AAt?$AAr?$AA2?$AA?4?$AAm?$AA_?$AAm?$AAa?$AAt?$AAe@ 10142768     physics:dgMeshEffect.obj
 0002:000117b8       ??_C@_1EK@HICMAHPC@?$AAa?$AAt?$AAt?$AAr?$AA0?$AA?4?$AAm?$AA_?$AAm?$AAa?$AAt?$AAe?$AAr?$AAi?$AAa?$AAl?$AA?5?$AA?$DN?$AA?$DN?$AA?5?$AAa?$AAt?$AAt?$AAr?$AA1?$AA?4?$AAm?$AA_?$AAm?$AAa?$AAt?$AAe@ 101427b8     physics:dgMeshEffect.obj
 0002:00011808       ??_C@_1GO@OMMJPMGL@?$AAf?$AAa?$AAb?$AAs?$AA?5?$AA?$CI?$AAt?$AAe?$AAs?$AAt?$AAP?$AAo?$AAi?$AAn?$AAt?$AA?4?$AAm?$AA_?$AAz?$AA?5?$AA?9?$AA?5?$AAp?$AAo?$AAi?$AAn?$AAt?$AA?4?$AAm?$AA_?$AAz?$AA?$CJ@ 10142808     physics:dgMeshEffect.obj
 0002:00011878       ??_C@_1GO@EJEKPFJF@?$AAf?$AAa?$AAb?$AAs?$AA?5?$AA?$CI?$AAt?$AAe?$AAs?$AAt?$AAP?$AAo?$AAi?$AAn?$AAt?$AA?4?$AAm?$AA_?$AAy?$AA?5?$AA?9?$AA?5?$AAp?$AAo?$AAi?$AAn?$AAt?$AA?4?$AAm?$AA_?$AAy?$AA?$CJ@ 10142878     physics:dgMeshEffect.obj
 0002:000118e8       ??_C@_1GO@CKDEANDP@?$AAf?$AAa?$AAb?$AAs?$AA?5?$AA?$CI?$AAt?$AAe?$AAs?$AAt?$AAP?$AAo?$AAi?$AAn?$AAt?$AA?4?$AAm?$AA_?$AAx?$AA?5?$AA?9?$AA?5?$AAp?$AAo?$AAi?$AAn?$AAt?$AA?4?$AAm?$AA_?$AAx?$AA?$CJ@ 101428e8     physics:dgMeshEffect.obj
 0002:00011958       ??_C@_1EO@JFPNOINC@?$AAf?$AAa?$AAb?$AAs?$AA?5?$AA?$CI?$AAc?$AAo?$AAl?$AAl?$AAi?$AAn?$AAe?$AAa?$AAr?$AA?$CJ?$AA?5?$AA?$DO?$AA?5?$AAd?$AAg?$AAF?$AAl?$AAo?$AAa?$AAt?$AA6?$AA4?$AA?5?$AA?$CI?$AA1?$AA?4@ 10142958     physics:dgMeshEffect.obj
 0002:000119a8       ??_C@_1GG@JAEJMNAH@?$AAc?$AAo?$AAu?$AAn?$AAt?$AA?5?$AA?$DM?$AA?5?$AAd?$AAg?$AAI?$AAn?$AAt?$AA3?$AA2?$AA?5?$AA?$CI?$AAs?$AAi?$AAz?$AAe?$AAo?$AAf?$AA?5?$AA?$CI?$AAf?$AAa?$AAc?$AAe?$AA?$CJ?$AA?5?$AA?1@ 101429a8     physics:dgMeshEffect.obj
 0002:00011a10       ??_C@_1BO@JECNCCAC@?$AAs?$AAo?$AAu?$AAr?$AAc?$AAe?$AAC?$AAo?$AAp?$AAl?$AAa?$AAn?$AAa?$AAr?$AA?$AA@ 10142a10     physics:dgMeshEffect.obj
 0002:00011a30       ??_C@_19FJGDLNFO@?$AAt?$AAr?$AAe?$AAe?$AA?$AA@ 10142a30     physics:dgMeshEffect.obj
 0002:00011a3c       ??_C@_1BA@NDAICHLE@?$AAc?$AAl?$AAi?$AAp?$AAp?$AAe?$AAr?$AA?$AA@ 10142a3c     physics:dgMeshEffect.obj
 0002:00011a4c       ??_C@_1CM@KGHIIMD@?$AAf?$AAr?$AAo?$AAn?$AAt?$AAM?$AAe?$AAs?$AAh?$AA?9?$AA?$DO?$AAG?$AAe?$AAt?$AAC?$AAo?$AAu?$AAn?$AAt?$AA?$CI?$AA?$CJ?$AA?$AA@ 10142a4c     physics:dgMeshEffect.obj
 0002:00011a78       ??_C@_1CK@MOBIPEEE@?$AAb?$AAa?$AAc?$AAk?$AAM?$AAe?$AAs?$AAh?$AA?9?$AA?$DO?$AAG?$AAe?$AAt?$AAC?$AAo?$AAu?$AAn?$AAt?$AA?$CI?$AA?$CJ?$AA?$AA@ 10142a78     physics:dgMeshEffect.obj
 0002:00011aa4       ??_C@_17GHAIJGMG@?$AAp?$AAt?$AAr?$AA?$AA@ 10142aa4     physics:dgMeshEffect.obj
 0002:00011aac       ??_C@_1M@GOJBEOCL@?$AAf?$AAr?$AAo?$AAn?$AAt?$AA?$AA@ 10142aac     physics:dgMeshEffect.obj
 0002:00011ab8       ??_C@_19LHGBOOBH@?$AAb?$AAa?$AAc?$AAk?$AA?$AA@ 10142ab8     physics:dgMeshEffect.obj
 0002:00011ac4       ??_C@_1BE@OJDGIAAM@?$AAs?$AAi?$AAd?$AAe?$AA?5?$AA?$DM?$AA?$DN?$AA?5?$AA0?$AA?$AA@ 10142ac4     physics:dgMeshEffect.obj
 0002:00011ad8       ??_C@_1BG@CEGFEHIJ@?$AAs?$AAi?$AAd?$AAe?$AA?5?$AA?$CB?$AA?$DN?$AA?5?$AA?9?$AA1?$AA?$AA@ 10142ad8     physics:dgMeshEffect.obj
 0002:00011af0       __real@bf50624de0000000    10142af0     physics:dgMeshEffect.obj
 0002:00011af8       ??_C@_1EC@LJJKDAKI@?$AAp?$AAt?$AAr?$AA?9?$AA?$DO?$AAm?$AA_?$AAt?$AAw?$AAi?$AAn?$AA?9?$AA?$DO?$AAm?$AA_?$AAi?$AAn?$AAc?$AAi?$AAd?$AAe?$AAn?$AAt?$AAF?$AAa?$AAc?$AAe?$AA?5?$AA?$DO?$AA?$DN?$AA?5?$AA0@ 10142af8     physics:dgMeshEffect.obj
 0002:00011b40       __real@3f589374c0000000    10142b40     physics:dgMeshEffect.obj
 0002:00011b48       ??_C@_1DE@DFCJLCN@?$AAp?$AAl?$AAa?$AAn?$AAe?$AA?9?$AA?$DO?$AAm?$AA_?$AAi?$AAn?$AAc?$AAi?$AAd?$AAe?$AAn?$AAt?$AAF?$AAa?$AAc?$AAe?$AA?5?$AA?$DO?$AA?5?$AA0?$AA?$AA@ 10142b48     physics:dgMeshEffect.obj
 0002:00011b80       ??_C@_1HG@JGBPJEF@?$AAc?$AAo?$AAu?$AAn?$AAt?$AA?5?$AA?$DM?$AA?5?$AAd?$AAg?$AAI?$AAn?$AAt?$AA3?$AA2?$AA?5?$AA?$CI?$AAs?$AAi?$AAz?$AAe?$AAo?$AAf?$AA?5?$AA?$CI?$AAf?$AAa?$AAc?$AAe?$AAI?$AAn?$AAd@ 10142b80     physics:dgMeshEffect.obj
 0002:00011bf8       ??_C@_1HK@NMHIHCHG@?$AAc?$AAl?$AAi?$AAp?$AAp?$AAe?$AAr?$AA?9?$AA?$DO?$AAG?$AAe?$AAt?$AAF?$AAa?$AAc?$AAe?$AAS?$AAi?$AAd?$AAe?$AA?$CI?$AAf?$AAa?$AAc?$AAe?$AA?$CJ?$AA?5?$AA?$DN?$AA?$DN?$AA?5?$AAd?$AAg@ 10142bf8     physics:dgMeshEffect.obj
 0002:00011c78       ??_C@_1HK@NIHFADE@?$AAc?$AAl?$AAi?$AAp?$AAp?$AAe?$AAr?$AA?9?$AA?$DO?$AAG?$AAe?$AAt?$AAF?$AAa?$AAc?$AAe?$AAS?$AAi?$AAd?$AAe?$AA?$CI?$AAf?$AAa?$AAc?$AAe?$AA?$CJ?$AA?5?$AA?$DN?$AA?$DN?$AA?5?$AAd?$AAg@ 10142c78     physics:dgMeshEffect.obj
 0002:00011cf4       ??_C@_1CI@GBAAGENB@?$AAf?$AAa?$AAc?$AAe?$AAL?$AAi?$AAs?$AAt?$AA?4?$AAG?$AAe?$AAt?$AAC?$AAo?$AAu?$AAn?$AAt?$AA?$CI?$AA?$CJ?$AA?$AA@ 10142cf4     physics:dgMeshEffect.obj
 0002:00011d20       ??_C@_1IC@MPIJGBEB@?$AAc?$AAl?$AAi?$AAp?$AAp?$AAe?$AAr?$AA?9?$AA?$DO?$AAG?$AAe?$AAt?$AAF?$AAa?$AAc?$AAe?$AAS?$AAi?$AAd?$AAe?$AA?$CI?$AAb?$AAa?$AAc?$AAk?$AAF?$AAa?$AAc?$AAe?$AA?$CJ?$AA?5?$AA?$DN@ 10142d20     physics:dgMeshEffect.obj
 0002:00011da8       ??_C@_1IE@DBDNGDNB@?$AAc?$AAl?$AAi?$AAp?$AAp?$AAe?$AAr?$AA?9?$AA?$DO?$AAG?$AAe?$AAt?$AAF?$AAa?$AAc?$AAe?$AAS?$AAi?$AAd?$AAe?$AA?$CI?$AAf?$AAr?$AAo?$AAn?$AAt?$AAF?$AAa?$AAc?$AAe?$AA?$CJ?$AA?5@ 10142da8     physics:dgMeshEffect.obj
 0002:00011e30       ??_C@_1HK@DBBFBGNB@?$AAs?$AAt?$AAa?$AAc?$AAk?$AA?5?$AA?$DM?$AA?5?$AAd?$AAg?$AAI?$AAn?$AAt?$AA3?$AA2?$AA?5?$AA?$CI?$AAs?$AAi?$AAz?$AAe?$AAo?$AAf?$AA?5?$AA?$CI?$AAs?$AAt?$AAa?$AAc?$AAk?$AAP?$AAo@ 10142e30     physics:dgMeshEffect.obj
 0002:00011eb0       ??_C@_1GM@PCLAMGDF@?$AAr?$AAo?$AAo?$AAt?$AA?9?$AA?$DO?$AAm?$AA_?$AAp?$AAl?$AAa?$AAn?$AAe?$AAT?$AAy?$AAp?$AAe?$AA?5?$AA?$DN?$AA?$DN?$AA?5?$AAd?$AAg?$AAM?$AAe?$AAs?$AAh?$AAE?$AAf?$AAf?$AAe?$AAc@ 10142eb0     physics:dgMeshEffect.obj
 0002:00011f20       __real@3e7ad7f2a0000000    10142f20     physics:dgMeshEffect.obj
 0002:00011f28       ??_C@_13DKOGBHCI@?$AAt?$AA?$AA@ 10142f28     physics:dgMeshEffect.obj
 0002:00011f2c       ??_C@_13NCEDCHNC@?$AAe?$AA?$AA@ 10142f2c     physics:dgMeshEffect.obj
 0002:00011f30       ??_C@_19KCAEJLPG@?$AAl?$AAa?$AAs?$AAt?$AA?$AA@ 10142f30     physics:dgMeshEffect.obj
 0002:00011f3c       ??_C@_1M@FJKBHDDD@?$AAb?$AAe?$AAg?$AAi?$AAn?$AA?$AA@ 10142f3c     physics:dgMeshEffect.obj
 0002:00011f48       ??_C@_1CA@JNPNHFAE@?$AAd?$AAi?$AAs?$AAt?$AA2?$AA0?$AA?5?$AA?$DM?$AA?5?$AAd?$AAi?$AAs?$AAt?$AA1?$AA0?$AA?$AA@ 10142f48     physics:dgMeshEffect.obj
 0002:00011f68       ??_C@_1DA@OCMPEEHG@?$AAt?$AAm?$AAp?$AA?9?$AA?$DO?$AAm?$AA_?$AAi?$AAn?$AAc?$AAi?$AAd?$AAe?$AAn?$AAt?$AAF?$AAa?$AAc?$AAe?$AA?5?$AA?$DO?$AA?5?$AA0?$AA?$AA@ 10142f68     physics:dgMeshEffect.obj
 0002:00011f98       ??_C@_1FO@BOCPEIMK@?$AAf?$AAi?$AAr?$AAs?$AAt?$AAE?$AAd?$AAg?$AAe?$AA?9?$AA?$DO?$AAm?$AA_?$AAn?$AAe?$AAx?$AAt?$AA?9?$AA?$DO?$AAm?$AA_?$AAn?$AAe?$AAx?$AAt?$AA?9?$AA?$DO?$AAm?$AA_?$AAn?$AAe?$AAx@ 10142f98     physics:dgMeshEffect.obj
 0002:00011ff8       ??_C@_1CK@IKDGJMBB@?$AAt?$AA?5?$AA?$DM?$AA?5?$AAd?$AAg?$AAF?$AAl?$AAo?$AAa?$AAt?$AA3?$AA2?$AA?5?$AA?$CI?$AA1?$AA?4?$AA0?$AAf?$AA?$CJ?$AA?$AA@ 10142ff8     physics:dgMeshEffect.obj
 0002:00012024       ??_C@_1CK@NBPDCNPL@?$AAt?$AA?5?$AA?$DO?$AA?5?$AAd?$AAg?$AAF?$AAl?$AAo?$AAa?$AAt?$AA3?$AA2?$AA?5?$AA?$CI?$AA0?$AA?4?$AA0?$AAf?$AA?$CJ?$AA?$AA@ 10143024     physics:dgMeshEffect.obj
 0002:00012050       __real@3e45798ecffc8220    10143050     physics:dgMeshEffect.obj
 0002:00012058       ??_C@_1BC@HAIGOLJN@?$AAl?$AAa?$AAs?$AAt?$AAE?$AAd?$AAg?$AAe?$AA?$AA@ 10143058     physics:dgMeshEffect.obj
 0002:0001206c       ??_C@_1BE@JIHKDJBO@?$AAf?$AAi?$AAr?$AAs?$AAt?$AAE?$AAd?$AAg?$AAe?$AA?$AA@ 1014306c     physics:dgMeshEffect.obj
 0002:00012080       ??_C@_1DE@JNIONNMJ@?$AAl?$AAe?$AAn?$AAg?$AAh?$AA2?$AA?5?$AA?$DO?$AA?5?$AAd?$AAg?$AAF?$AAl?$AAo?$AAa?$AAt?$AA3?$AA2?$AA?5?$AA?$CI?$AA0?$AA?4?$AA0?$AAf?$AA?$CJ?$AA?$AA@ 10143080     physics:dgMeshEffect.obj
 0002:000120b4       ??_7?$dgTree@HH@@6B@       101430b4     physics:dgMeshEffect.obj
 0002:000120b8       ??_7?$dgTree@VdgFlatClipEdgeAttr@@PAVdgEdge@@@@6B@ 101430b8     physics:dgMeshEffect.obj
 0002:000120bc       ??_7?$dgList@PAVdgMeshTreeCSGFace@@@@6B@ 101430bc     physics:dgMeshEffect.obj
 0002:000120c0       ??_7dgListNode@?$dgList@PAVdgMeshTreeCSGFace@@@@6B@ 101430c0     physics:dgMeshEffect.obj
 0002:000120c4       ??_C@_1CO@JAIBPHNL@?$AA?$CB?$AAF?$AAi?$AAn?$AAd?$AA?5?$AA?$CI?$AAn?$AAo?$AAd?$AAe?$AA?9?$AA?$DO?$AAG?$AAe?$AAt?$AAK?$AAe?$AAy?$AA?$CI?$AA?$CJ?$AA?$CJ?$AA?$AA@ 101430c4     physics:dgMeshEffect.obj
 0002:000120f4       ??_7dgTreeNode@?$dgTree@HH@@6B@ 101430f4     physics:dgMeshEffect.obj
 0002:000120f8       __real@451c4000            101430f8     physics:dgCollisionCompoundBreakable.obj
 0002:00012100       ??_7dgCollisionConvexIntance@dgCollisionCompoundBreakable@@6B@ 10143100     physics:dgCollisionCompoundBreakable.obj
 0002:00012180       ??_7dgVertexBuffer@dgCollisionCompoundBreakable@@6B@ 10143180     physics:dgCollisionCompoundBreakable.obj
 0002:00012184       ??_7dgMesh@dgCollisionCompoundBreakable@@6BdgRefCounter@@@ 10143184     physics:dgCollisionCompoundBreakable.obj
 0002:00012188       ??_7dgMesh@dgCollisionCompoundBreakable@@6B?$dgList@VdgSubMesh@dgCollisionCompoundBreakable@@@@@ 10143188     physics:dgCollisionCompoundBreakable.obj
 0002:0001218c       ??_7dgDebriGraph@dgCollisionCompoundBreakable@@6B@ 1014318c     physics:dgCollisionCompoundBreakable.obj
 0002:00012190       ??_C@_1HC@IPKKMPCH@?$AA?4?$AA?4?$AA?2?$AA?4?$AA?4?$AA?2?$AA?4?$AA?4?$AA?2?$AAs?$AAo?$AAu?$AAr?$AAc?$AAe?$AA?2?$AAp?$AAh?$AAy?$AAs?$AAi?$AAc?$AAs?$AA?2?$AAd?$AAg?$AAC?$AAo?$AAl?$AAl?$AAi?$AAs@ 10143190     physics:dgCollisionCompoundBreakable.obj
 0002:00012204       ??_C@_1DG@MAKNIFOD@?$AAt?$AAr?$AAe?$AAe?$AAN?$AAo?$AAd?$AAe?$AA?9?$AA?$DO?$AAm?$AA_?$AAt?$AAy?$AAp?$AAe?$AA?5?$AA?$DN?$AA?$DN?$AA?5?$AAm?$AA_?$AAn?$AAo?$AAd?$AAe?$AA?$AA@ 10143204     physics:dgCollisionCompoundBreakable.obj
 0002:0001223c       __real@358637bd            1014323c     physics:dgCollisionCompoundBreakable.obj
 0002:00012240       ??_7dgCollisionCompoundBreakable@@6B@ 10143240     physics:dgCollisionCompoundBreakable.obj
 0002:000122b0       ??_7dgIsland@dgCollisionCompoundBreakable@@6B@ 101432b0     physics:dgCollisionCompoundBreakable.obj
 0002:000122b4       ??_C@_1CK@LFDKLODI@?$AAm?$AAe?$AA?9?$AA?$DO?$AAm?$AA_?$AAt?$AAy?$AAp?$AAe?$AA?5?$AA?$DN?$AA?$DN?$AA?5?$AAm?$AA_?$AAn?$AAo?$AAd?$AAe?$AA?$AA@ 101432b4     physics:dgCollisionCompoundBreakable.obj
 0002:000122e0       ??_C@_1FG@DCPKOHF@?$AA?$CB?$AAi?$AAn?$AAf?$AAo?$AA?4?$AAm?$AA_?$AAn?$AAo?$AAd?$AAe?$AA?9?$AA?$DO?$AAG?$AAe?$AAt?$AAI?$AAn?$AAf?$AAo?$AA?$CI?$AA?$CJ?$AA?4?$AAm?$AA_?$AAn?$AAo?$AAd?$AAe?$AAD?$AAa@ 101432e0     physics:dgCollisionCompoundBreakable.obj
 0002:00012338       ??_C@_1DM@JFFHONCI@?$AAm?$AA_?$AAa?$AAr?$AAr?$AAa?$AAy?$AA?$FL?$AAi?$AAn?$AAd?$AAe?$AAx?$AA?$FN?$AA?5?$AA?$DN?$AA?$DN?$AA?5?$AAm?$AAe?$AA?9?$AA?$DO?$AAm?$AA_?$AAs?$AAh?$AAa?$AAp?$AAe?$AA?$AA@ 10143338     physics:dgCollisionCompoundBreakable.obj
 0002:00012378       ??_C@_1EG@CAEMDABG@?$AAm?$AA_?$AAa?$AAr?$AAr?$AAa?$AAy?$AA?$FL?$AAs?$AAt?$AAa?$AAc?$AAk?$AA?$FN?$AA?5?$AA?$DN?$AA?$DN?$AA?5?$AAn?$AAo?$AAd?$AAe?$AAI?$AAn?$AAf?$AAo?$AA?4?$AAm?$AA_?$AAs?$AAh?$AAa@ 10143378     physics:dgCollisionCompoundBreakable.obj
 0002:000123c0       ??_C@_1CO@CLNFCBIM@?$AAn?$AAo?$AAd?$AAe?$AA?9?$AA?$DO?$AAm?$AA_?$AAt?$AAy?$AAp?$AAe?$AA?5?$AA?$DN?$AA?$DN?$AA?5?$AAm?$AA_?$AAn?$AAo?$AAd?$AAe?$AA?$AA@ 101433c0     physics:dgCollisionCompoundBreakable.obj
 0002:000123f0       ??_C@_1HI@JJDBHAOJ@?$AAs?$AAt?$AAa?$AAc?$AAk?$AA?5?$AA?$DM?$AA?5?$AAd?$AAg?$AAI?$AAn?$AAt?$AA3?$AA2?$AA?5?$AA?$CI?$AAs?$AAi?$AAz?$AAe?$AAo?$AAf?$AA?5?$AA?$CI?$AAs?$AAt?$AAa?$AAc?$AAk?$AAP?$AAo@ 101433f0     physics:dgCollisionCompoundBreakable.obj
 0002:00012468       ??_C@_15PGKPEFOJ@?$AAm?$AAe?$AA?$AA@ 10143468     physics:dgCollisionCompoundBreakable.obj
 0002:00012470       ??_C@_1DM@MMHLBEDG@?$AAl?$AAe?$AAa?$AAd?$AAi?$AAn?$AAg?$AAI?$AAn?$AAd?$AAe?$AAx?$AA?5?$AA?$CB?$AA?$DN?$AA?5?$AAt?$AAr?$AAe?$AAa?$AAl?$AAi?$AAn?$AAg?$AAI?$AAn?$AAd?$AAe?$AAx?$AA?$AA@ 10143470     physics:dgCollisionCompoundBreakable.obj
 0002:000124b0       ??_C@_1IO@FALAEBM@?$AAs?$AAh?$AAa?$AAp?$AAe?$AA?9?$AA?$DO?$AAm?$AA_?$AAg?$AAr?$AAa?$AAp?$AAh?$AAN?$AAo?$AAd?$AAe?$AA?9?$AA?$DO?$AAG?$AAe?$AAt?$AAI?$AAn?$AAf?$AAo?$AA?$CI?$AA?$CJ?$AA?4?$AAG?$AAe@ 101434b0     physics:dgCollisionCompoundBreakable.obj
 0002:00012540       ??_C@_1FC@LKLJFPIM@?$AAn?$AAe?$AAw?$AAI?$AAs?$AAl?$AAa?$AAn?$AAd?$AAP?$AAi?$AAe?$AAc?$AAe?$AAs?$AA?$FL?$AAi?$AA?$FN?$AA?5?$AA?$CB?$AA?$DN?$AA?5?$AAn?$AAe?$AAw?$AAI?$AAs?$AAl?$AAa?$AAn?$AAd?$AAP@ 10143540     physics:dgCollisionCompoundBreakable.obj
 0002:00012598       ??_C@_1GO@NDAIHECE@?$AAn?$AAo?$AAd?$AAe?$AA?9?$AA?$DO?$AAG?$AAe?$AAt?$AAI?$AAn?$AAf?$AAo?$AA?$CI?$AA?$CJ?$AA?4?$AAm?$AA_?$AAn?$AAo?$AAd?$AAe?$AAD?$AAa?$AAt?$AAa?$AA?4?$AAm?$AA_?$AAc?$AAo?$AAm@ 10143598     physics:dgCollisionCompoundBreakable.obj
 0002:00012608       ??_C@_1MO@OLNCNALP@?$AAd?$AA?3?$AA?2?$AAp?$AAr?$AAo?$AAj?$AAe?$AAc?$AAt?$AAs?$AA?2?$AAw?$AAo?$AAr?$AAk?$AAs?$AAp?$AAa?$AAc?$AAe?$AA?2?$AAa?$AAr?$AAk?$AAa?$AAn?$AAo?$AAi?$AAd?$AA?2?$AAa@ 10143608     physics:dgCollisionCompoundBreakable.obj
 0002:000126d8       ??_7?$dgList@VdgSubMesh@dgCollisionCompoundBreakable@@@@6B@ 101436d8     physics:dgCollisionCompoundBreakable.obj
 0002:000126dc       ??_7?$dgGraph@VdgDebriNodeInfo@dgCollisionCompoundBreakable@@VdgSharedNodeMesh@2@@@6B@ 101436dc     physics:dgCollisionCompoundBreakable.obj
 0002:000126e0       ??_7?$dgList@V?$dgGraphNode@VdgDebriNodeInfo@dgCollisionCompoundBreakable@@VdgSharedNodeMesh@2@@@@@6B@ 101436e0     physics:dgCollisionCompoundBreakable.obj
 0002:000126e4       ??_7?$dgList@PAVdgListNode@?$dgList@V?$dgGraphNode@VdgDebriNodeInfo@dgCollisionCompoundBreakable@@VdgSharedNodeMesh@2@@@@@@@6B@ 101436e4     physics:dgCollisionCompoundBreakable.obj
 0002:000126e8       ??_7?$dgTree@PAVdgListNode@?$dgList@V?$dgGraphNode@VdgDebriNodeInfo@dgCollisionCompoundBreakable@@VdgSharedNodeMesh@2@@@@@PAV12@@@6B@ 101436e8     physics:dgCollisionCompoundBreakable.obj
 0002:000126ec       ??_7?$dgTree@HPAVdgListNode@?$dgList@V?$dgGraphNode@VdgDebriNodeInfo@dgCollisionCompoundBreakable@@VdgSharedNodeMesh@2@@@@@@@6B@ 101436ec     physics:dgCollisionCompoundBreakable.obj
 0002:000126f0       ??_7?$dgTree@VdgCompoundBreakableFilterData@dgCollisionCompoundBreakable@@PAVdgCollisionConvex@@@@6B@ 101436f0     physics:dgCollisionCompoundBreakable.obj
 0002:000126f4       ??_7dgListNode@?$dgList@VdgSubMesh@dgCollisionCompoundBreakable@@@@6B@ 101436f4     physics:dgCollisionCompoundBreakable.obj
 0002:000126f8       ??_7dgListNode@?$dgList@PAVdgListNode@?$dgList@V?$dgGraphNode@VdgDebriNodeInfo@dgCollisionCompoundBreakable@@VdgSharedNodeMesh@2@@@@@@@6B@ 101436f8     physics:dgCollisionCompoundBreakable.obj
 0002:000126fc       ??_7dgListNode@?$dgList@V?$dgGraphNode@VdgDebriNodeInfo@dgCollisionCompoundBreakable@@VdgSharedNodeMesh@2@@@@@6B@ 101436fc     physics:dgCollisionCompoundBreakable.obj
 0002:00012700       ??_7?$dgGraphNode@VdgDebriNodeInfo@dgCollisionCompoundBreakable@@VdgSharedNodeMesh@2@@@6B@ 10143700     physics:dgCollisionCompoundBreakable.obj
 0002:00012704       ??_7?$dgList@V?$dgGraphEdge@VdgDebriNodeInfo@dgCollisionCompoundBreakable@@VdgSharedNodeMesh@2@@@@@6B@ 10143704     physics:dgCollisionCompoundBreakable.obj
 0002:00012708       ??_7dgTreeNode@?$dgTree@PAVdgListNode@?$dgList@V?$dgGraphNode@VdgDebriNodeInfo@dgCollisionCompoundBreakable@@VdgSharedNodeMesh@2@@@@@PAV12@@@6B@ 10143708     physics:dgCollisionCompoundBreakable.obj
 0002:0001270c       ??_7dgListNode@?$dgList@V?$dgGraphEdge@VdgDebriNodeInfo@dgCollisionCompoundBreakable@@VdgSharedNodeMesh@2@@@@@6B@ 1014370c     physics:dgCollisionCompoundBreakable.obj
 0002:00012710       ??_7dgTreeNode@?$dgTree@HPAVdgListNode@?$dgList@V?$dgGraphNode@VdgDebriNodeInfo@dgCollisionCompoundBreakable@@VdgSharedNodeMesh@2@@@@@@@6B@ 10143710     physics:dgCollisionCompoundBreakable.obj
 0002:00012714       ??_7dgTreeNode@?$dgTree@VdgCompoundBreakableFilterData@dgCollisionCompoundBreakable@@PAVdgCollisionConvex@@@@6B@ 10143714     physics:dgCollisionCompoundBreakable.obj
 0002:00012718       ??_C@_1CA@IJCKNGFD@?$AAj?$AA?5?$AA?$DM?$AA?5?$AAm?$AA_?$AAf?$AAa?$AAc?$AAe?$AAC?$AAo?$AAu?$AAn?$AAt?$AA?$AA@ 10143718     physics:dgCollisionConvexHull.obj
 0002:00012738       ??_C@_1GE@JKHFOJJM@?$AA?4?$AA?4?$AA?2?$AA?4?$AA?4?$AA?2?$AA?4?$AA?4?$AA?2?$AAs?$AAo?$AAu?$AAr?$AAc?$AAe?$AA?2?$AAp?$AAh?$AAy?$AAs?$AAi?$AAc?$AAs?$AA?2?$AAd?$AAg?$AAC?$AAo?$AAl?$AAl?$AAi?$AAs@ 10143738     physics:dgCollisionConvexHull.obj
 0002:000127a0       ??_C@_1IM@NKCNENHK@?$AAp?$AAl?$AAa?$AAn?$AAe?$AAC?$AAo?$AAu?$AAn?$AAt?$AA?5?$AA?$DM?$AA?5?$AAd?$AAg?$AAI?$AAn?$AAt?$AA3?$AA2?$AA?5?$AA?$CI?$AAs?$AAi?$AAz?$AAe?$AAo?$AAf?$AA?5?$AA?$CI?$AAp?$AAl@ 101437a0     physics:dgCollisionConvexHull.obj
 0002:00012830       __real@3fef5c2900000000    10143830     physics:dgCollisionConvexHull.obj
 0002:00012838       ??_7dgCollisionConvexHull@@6B@ 10143838     physics:dgCollisionConvexHull.obj
 0002:000128b8       ??_C@_1CO@LEBDKPKA@?$AAx?$AA?5?$AA?$DO?$AA?5?$AA?9?$AAd?$AAg?$AAF?$AAl?$AAo?$AAa?$AAt?$AA6?$AA4?$AA?5?$AA?$CI?$AA0?$AA?4?$AA0?$AA1?$AAf?$AA?$CJ?$AA?$AA@ 101438b8     physics:dgCollisionConvexHull.obj
 0002:000128e8       __real@bf847ae140000000    101438e8     physics:dgCollisionConvexHull.obj
 0002:000128f0       ??_C@_1DC@NCLIPJLA@?$AAm?$AAa?$AAg?$AA?5?$AA?$DO?$AA?$DN?$AA?5?$AA?9?$AAd?$AAg?$AAF?$AAl?$AAo?$AAa?$AAt?$AA3?$AA2?$AA?5?$AA?$CI?$AA0?$AA?4?$AA1?$AAf?$AA?$CJ?$AA?$AA@ 101438f0     physics:dgCollisionConvexHull.obj
 0002:00012928       __real@bfb99999a0000000    10143928     physics:dgCollisionConvexHull.obj
 0002:00012930       ??_C@_1DE@GLBCNPDK@?$AA?$CG?$AA?$CI?$AA?$CK?$AAi?$AAt?$AAe?$AAr?$AA?$CJ?$AA?5?$AA?$CB?$AA?$DN?$AA?5?$AAe?$AAd?$AAg?$AAe?$AA0?$AA?9?$AA?$DO?$AAm?$AA_?$AAt?$AAw?$AAi?$AAn?$AA?$AA@ 10143930     physics:dgCollisionConvexHull.obj
 0002:00012964       ??_C@_1CE@PCGGEDGO@?$AA?$CG?$AA?$CI?$AA?$CK?$AAi?$AAt?$AAe?$AAr?$AA?$CJ?$AA?5?$AA?$CB?$AA?$DN?$AA?5?$AAe?$AAd?$AAg?$AAe?$AA0?$AA?$AA@ 10143964     physics:dgCollisionConvexHull.obj
 0002:00012988       ??_C@_1DM@MNNLPJO@?$AA?$CI?$AAe?$AA1?$AA?5?$AA?$CF?$AA?5?$AAe?$AA1?$AA?$CJ?$AA?5?$AA?$DO?$AA?$DN?$AA?5?$AAd?$AAg?$AAF?$AAl?$AAo?$AAa?$AAt?$AA6?$AA4?$AA?5?$AA?$CI?$AA0?$AA?4?$AA0?$AAf?$AA?$CJ?$AA?$AA@ 10143988     physics:dgCollisionConvexHull.obj
 0002:000129c4       ??_C@_1DM@GOIBDHNK@?$AA?$CI?$AAe?$AA0?$AA?5?$AA?$CF?$AA?5?$AAe?$AA0?$AA?$CJ?$AA?5?$AA?$DO?$AA?$DN?$AA?5?$AAd?$AAg?$AAF?$AAl?$AAo?$AAa?$AAt?$AA6?$AA4?$AA?5?$AA?$CI?$AA0?$AA?4?$AA0?$AAf?$AA?$CJ?$AA?$AA@ 101439c4     physics:dgCollisionConvexHull.obj
 0002:00012a00       __real@3fefff9720000000    10143a00     physics:dgCollisionConvexHull.obj
 0002:00012a08       ??_C@_1CO@ILFLODH@?$AA?$CI?$AAp?$AAt?$AAr?$AA?5?$AA?9?$AA?5?$AAm?$AA_?$AAs?$AAi?$AAm?$AAp?$AAl?$AAe?$AAx?$AA?$CJ?$AA?5?$AA?$DO?$AA?$DN?$AA?5?$AA0?$AA?$AA@ 10143a08     physics:dgCollisionConvexHull.obj
 0002:00012a38       ??_C@_1EO@OAHGNNKB@?$AAf?$AAi?$AAr?$AAs?$AAt?$AAF?$AAa?$AAc?$AAe?$AA?9?$AA?$DO?$AAm?$AA_?$AAt?$AAw?$AAi?$AAn?$AA?9?$AA?$DO?$AAm?$AA_?$AAn?$AAe?$AAx?$AAt?$AA?5?$AA?$CB?$AA?$DN?$AA?5?$AAf?$AAi?$AAr@ 10143a38     physics:dgCollisionConvexHull.obj
 0002:00012a88       ??_C@_1BG@FEJIFKCF@?$AAc?$AAa?$AAc?$AAh?$AAe?$AAO?$AAr?$AAd?$AAe?$AAr?$AA?$AA@ 10143a88     physics:dgCollisionConvexHull.obj
 0002:00012aa0       ??_C@_1FK@CJDHPPHC@?$AA?4?$AA?4?$AA?2?$AA?4?$AA?4?$AA?2?$AA?4?$AA?4?$AA?2?$AAs?$AAo?$AAu?$AAr?$AAc?$AAe?$AA?2?$AAp?$AAh?$AAy?$AAs?$AAi?$AAc?$AAs?$AA?2?$AAd?$AAg?$AAC?$AAo?$AAl?$AAl?$AAi?$AAs@ 10143aa0     physics:dgCollisionScene.obj
 0002:00012afc       ??_C@_1DK@CBGCPEJM@?$AAm?$AA_?$AAp?$AAa?$AAr?$AAe?$AAn?$AAt?$AA?9?$AA?$DO?$AAm?$AA_?$AAr?$AAi?$AAg?$AAh?$AAt?$AA?5?$AA?$DN?$AA?$DN?$AA?5?$AAs?$AAi?$AAb?$AAl?$AAi?$AAn?$AAg?$AA?$AA@ 10143afc     physics:dgCollisionScene.obj
 0002:00012b38       __real@3fd0000000000000    10143b38     physics:dgCollisionScene.obj
 0002:00012b40       __real@40800000            10143b40     physics:dgCollisionScene.obj
 0002:00012b48       ??_7dgCollisionScene@@6B@  10143b48     physics:dgCollisionScene.obj
 0002:00012bb8       __real@3fc0000000000000    10143bb8     physics:dgCollisionScene.obj
 0002:00012bc0       ??_C@_1CC@JPJCBFBE@?$AAp?$AA0?$AA?4?$AAm?$AA_?$AAz?$AA?5?$AA?$DM?$AA?$DN?$AA?5?$AAp?$AA1?$AA?4?$AAm?$AA_?$AAz?$AA?$AA@ 10143bc0     physics:dgCollisionScene.obj
 0002:00012be4       ??_C@_1CC@NFDJBDNC@?$AAp?$AA0?$AA?4?$AAm?$AA_?$AAy?$AA?5?$AA?$DM?$AA?$DN?$AA?5?$AAp?$AA1?$AA?4?$AAm?$AA_?$AAy?$AA?$AA@ 10143be4     physics:dgCollisionScene.obj
 0002:00012c08       ??_C@_1CC@OMKABBJA@?$AAp?$AA0?$AA?4?$AAm?$AA_?$AAx?$AA?5?$AA?$DM?$AA?$DN?$AA?5?$AAp?$AA1?$AA?4?$AAm?$AA_?$AAx?$AA?$AA@ 10143c08     physics:dgCollisionScene.obj
 0002:00012c2c       ??_C@_1BI@POEIDCP@?$AAm?$AAe?$AA?9?$AA?$DO?$AAm?$AA_?$AAr?$AAi?$AAg?$AAh?$AAt?$AA?$AA@ 10143c2c     physics:dgCollisionScene.obj
 0002:00012c48       ??_C@_1HA@NIODBDKA@?$AAs?$AAt?$AAa?$AAc?$AAk?$AA?5?$AA?$DM?$AA?5?$AAd?$AAg?$AAI?$AAn?$AAt?$AA3?$AA2?$AA?5?$AA?$CI?$AAs?$AAi?$AAz?$AAe?$AAo?$AAf?$AA?5?$AA?$CI?$AAs?$AAt?$AAa?$AAc?$AAk?$AAP?$AAo@ 10143c48     physics:dgCollisionScene.obj
 0002:00012cb8       ??_C@_1BG@IANMGBOI@?$AAm?$AAe?$AA?9?$AA?$DO?$AAm?$AA_?$AAl?$AAe?$AAf?$AAt?$AA?$AA@ 10143cb8     physics:dgCollisionScene.obj
 0002:00012cd0       ??_C@_1DE@KGNMGEBD@?$AAp?$AAa?$AAr?$AAa?$AAm?$AA?5?$AA?$DO?$AA?$DN?$AA?5?$AAd?$AAg?$AAF?$AAl?$AAo?$AAa?$AAt?$AA3?$AA2?$AA?5?$AA?$CI?$AA0?$AA?4?$AA0?$AAf?$AA?$CJ?$AA?$AA@ 10143cd0     physics:dgCollisionScene.obj
 0002:00012d04       ??_C@_1BK@GLABOBBL@?$AA?$CB?$AAm?$AAe?$AA?9?$AA?$DO?$AAm?$AA_?$AAr?$AAi?$AAg?$AAh?$AAt?$AA?$AA@ 10143d04     physics:dgCollisionScene.obj
 0002:00012d20       ??_C@_1EK@OFJDLJGN@?$AAm?$AA_?$AAw?$AAo?$AAr?$AAl?$AAd?$AA?5?$AA?$DN?$AA?$DN?$AA?5?$AAp?$AAa?$AAi?$AAr?$AA?9?$AA?$DO?$AAm?$AA_?$AAb?$AAo?$AAd?$AAy?$AA1?$AA?9?$AA?$DO?$AAG?$AAe?$AAt?$AAW?$AAo?$AAr@ 10143d20     physics:dgCollisionScene.obj
 0002:00012d70       ??_C@_1EM@LKHKLHCM@?$AAp?$AAa?$AAi?$AAr?$AA?9?$AA?$DO?$AAm?$AA_?$AAb?$AAo?$AAd?$AAy?$AA1?$AA?9?$AA?$DO?$AAG?$AAe?$AAt?$AAC?$AAo?$AAl?$AAl?$AAi?$AAs?$AAi?$AAo?$AAn?$AA?$CI?$AA?$CJ?$AA?5?$AA?$DN?$AA?$DN@ 10143d70     physics:dgCollisionScene.obj
 0002:00012dbc       ??_C@_1CM@CLDJBIOG@?$AA?$CB?$AAm?$AA_?$AAr?$AAo?$AAo?$AAt?$AAN?$AAo?$AAd?$AAe?$AA?9?$AA?$DO?$AAm?$AA_?$AAp?$AAa?$AAr?$AAe?$AAn?$AAt?$AA?$AA@ 10143dbc     physics:dgCollisionScene.obj
 0002:00012de8       ??_C@_1EI@FPBMMMMF@?$AAp?$AAa?$AAr?$AAe?$AAn?$AAt?$AA?9?$AA?$DO?$AAm?$AA_?$AAp?$AAa?$AAr?$AAe?$AAn?$AAt?$AA?9?$AA?$DO?$AAm?$AA_?$AAr?$AAi?$AAg?$AAh?$AAt?$AA?5?$AA?$DN?$AA?$DN?$AA?5?$AAp?$AAa?$AAr@ 10143de8     physics:dgCollisionScene.obj
 0002:00012e30       ??_C@_1BM@OKELOEDB@?$AAn?$AAo?$AAd?$AAe?$AA?9?$AA?$DO?$AAm?$AA_?$AAr?$AAi?$AAg?$AAh?$AAt?$AA?$AA@ 10143e30     physics:dgCollisionScene.obj
 0002:00012e4c       ??_C@_1BK@DDJFAEGD@?$AAn?$AAo?$AAd?$AAe?$AA?9?$AA?$DO?$AAm?$AA_?$AAl?$AAe?$AAf?$AAt?$AA?$AA@ 10143e4c     physics:dgCollisionScene.obj
 0002:00012e68       __real@4415af1d80000000    10143e68     physics:dgCollisionScene.obj
 0002:00012e70       ??_7?$dgList@PAVdgNode@dgCollisionScene@@@@6B@ 10143e70     physics:dgCollisionScene.obj
 0002:00012e74       ??_7?$dgList@PAVdgProxy@dgCollisionScene@@@@6B@ 10143e74     physics:dgCollisionScene.obj
 0002:00012e78       ??_C@_1EC@KCELAOKH@?$AA?$CI?$AAd?$AAg?$AAU?$AAn?$AAs?$AAi?$AAg?$AAn?$AAe?$AAd?$AA6?$AA4?$AA?$CI?$AAt?$AAh?$AAi?$AAs?$AA?$CJ?$AA?5?$AA?$CG?$AA?5?$AA0?$AAx?$AA0?$AAf?$AA?$CJ?$AA?5?$AA?$DN?$AA?$DN?$AA?5?$AA0@ 10143e78     physics:dgCollisionScene.obj
 0002:00012ebc       ??_7dgListNode@?$dgList@PAVdgProxy@dgCollisionScene@@@@6B@ 10143ebc     physics:dgCollisionScene.obj
 0002:00012ec0       ??_7dgListNode@?$dgList@PAVdgNode@dgCollisionScene@@@@6B@ 10143ec0     physics:dgCollisionScene.obj
 0002:00012ec8       ??_7dgCollisionConvexPolygon@dgCollisionMesh@@6B@ 10143ec8     physics:dgCollisionMesh.obj
 0002:00012f48       ??_C@_1FI@FDGGICOF@?$AA?4?$AA?4?$AA?2?$AA?4?$AA?4?$AA?2?$AA?4?$AA?4?$AA?2?$AAs?$AAo?$AAu?$AAr?$AAc?$AAe?$AA?2?$AAp?$AAh?$AAy?$AAs?$AAi?$AAc?$AAs?$AA?2?$AAd?$AAg?$AAC?$AAo?$AAl?$AAl?$AAi?$AAs@ 10143f48     physics:dgCollisionMesh.obj
 0002:00012fa0       ??_C@_1GA@GBBJHEKN@?$AAd?$AAg?$AAA?$AAb?$AAs?$AAf?$AA?5?$AA?$CI?$AAd?$AAi?$AAr?$AA?5?$AA?$CF?$AA?5?$AAd?$AAi?$AAr?$AA?5?$AA?9?$AA?5?$AA1?$AA?4?$AA0?$AAf?$AA?$CJ?$AA?5?$AA?$DM?$AA?5?$AAd?$AAg?$AAF?$AAl@ 10143fa0     physics:dgCollisionMesh.obj
 0002:00013000       ??_C@_1GA@KNLDHEDD@?$AAd?$AAg?$AAA?$AAb?$AAs?$AAf?$AA?5?$AA?$CI?$AAd?$AAi?$AAr?$AA?5?$AA?$CF?$AA?5?$AAd?$AAi?$AAr?$AA?5?$AA?9?$AA?5?$AA1?$AA?4?$AA0?$AAf?$AA?$CJ?$AA?5?$AA?$DM?$AA?5?$AAd?$AAg?$AAF?$AAl@ 10144000     physics:dgCollisionMesh.obj
 0002:00013060       ??_C@_1FK@DNMHDPEH@?$AA?$CI?$AA?$CI?$AAd?$AAg?$AAF?$AAl?$AAo?$AAa?$AAt?$AA3?$AA2?$AA?$CK?$AA?$CJ?$AA?$CG?$AAn?$AAo?$AAr?$AAm?$AAa?$AAl?$AA?$CJ?$AA?$FL?$AA3?$AA?$FN?$AA?5?$AA?$DN?$AA?$DN?$AA?5?$AAd?$AAg?$AAF?$AAl@ 10144060     physics:dgCollisionMesh.obj
 0002:000130c0       ??_C@_1EK@CMFBNAMH@?$AA?$CI?$AAn?$AAo?$AAr?$AAm?$AAa?$AAl?$AA?5?$AA?$CF?$AA?5?$AAn?$AAo?$AAr?$AAm?$AAa?$AAl?$AA?$CJ?$AA?5?$AA?$DO?$AA?5?$AAd?$AAg?$AAF?$AAl?$AAo?$AAa?$AAt?$AA3?$AA2?$AA?5?$AA?$CI?$AA0@ 101440c0     physics:dgCollisionMesh.obj
 0002:00013110       ??_C@_1IG@BIDCNCNF@?$AAm?$AA_?$AAc?$AAo?$AAu?$AAn?$AAt?$AA?5?$AA?$DM?$AA?5?$AAd?$AAg?$AAI?$AAn?$AAt?$AA3?$AA2?$AA?5?$AA?$CI?$AAs?$AAi?$AAz?$AAe?$AAo?$AAf?$AA?5?$AA?$CI?$AAm?$AA_?$AAl?$AAo?$AAc@ 10144110     physics:dgCollisionMesh.obj
 0002:00013198       ??_C@_1DM@LANHJPDD@?$AA?$CI?$AAa?$AAN?$AAo?$AAr?$AAm?$AAa?$AAl?$AA?5?$AA?$CF?$AA?5?$AAa?$AAN?$AAo?$AAr?$AAm?$AAa?$AAl?$AA?$CJ?$AA?5?$AA?$DO?$AA?5?$AA0?$AA?4?$AA9?$AA9?$AA9?$AA9?$AAf?$AA?$AA@ 10144198     physics:dgCollisionMesh.obj
 0002:000131d4       ??_C@_1DI@JCNAOFP@?$AA?$CI?$AAn?$AAo?$AAr?$AAm?$AAa?$AAl?$AA?5?$AA?$CF?$AA?5?$AAn?$AAo?$AAr?$AAm?$AAa?$AAl?$AA?$CJ?$AA?5?$AA?$DO?$AA?5?$AA0?$AA?4?$AA9?$AA9?$AA9?$AA9?$AAf?$AA?$AA@ 101441d4     physics:dgCollisionMesh.obj
 0002:0001320c       ??_C@_1CM@NGNHFLII@?$AAm?$AA_?$AAa?$AAd?$AAj?$AAa?$AAc?$AAe?$AAn?$AAt?$AAN?$AAo?$AAr?$AAm?$AAa?$AAl?$AAI?$AAn?$AAd?$AAe?$AAx?$AA?$AA@ 1014420c     physics:dgCollisionMesh.obj
 0002:00013238       __real@3feffe5ca0000000    10144238     physics:dgCollisionMesh.obj
 0002:00013240       ??_C@_1DI@NMIEEKHI@?$AAp?$AAt?$AAr?$AA?9?$AA?$DO?$AAm?$AA_?$AAi?$AAn?$AAc?$AAi?$AAd?$AAe?$AAn?$AAt?$AAN?$AAo?$AAr?$AAm?$AAa?$AAl?$AA?5?$AA?$DN?$AA?$DN?$AA?5?$AA?9?$AA1?$AA?$AA@ 10144240     physics:dgCollisionMesh.obj
 0002:00013278       ??_C@_1CC@NIBPIAGG@?$AAc?$AAo?$AAn?$AAe?$AAc?$AAt?$AAC?$AAo?$AAu?$AAn?$AAt?$AA?5?$AA?$DN?$AA?$DN?$AA?5?$AA2?$AA?$AA@ 10144278     physics:dgCollisionMesh.obj
 0002:000132a0       ??_C@_1FA@KJMPBPAN@?$AAp?$AAl?$AAa?$AAn?$AAe?$AA?4?$AAE?$AAv?$AAa?$AAl?$AAu?$AAe?$AA?$CI?$AAo?$AAr?$AAi?$AAg?$AAi?$AAn?$AA?$CJ?$AA?5?$AA?$DO?$AA?5?$AAd?$AAg?$AAF?$AAl?$AAo?$AAa?$AAt?$AA3?$AA2@ 101442a0     physics:dgCollisionMesh.obj
 0002:000132f0       ??_C@_1EE@FGPMPA@?$AA?$CI?$AAd?$AAi?$AAr?$AA?5?$AA?$CF?$AA?5?$AAd?$AAi?$AAr?$AA?$CJ?$AA?5?$AA?$DO?$AA?5?$AAd?$AAg?$AAF?$AAl?$AAo?$AAa?$AAt?$AA3?$AA2?$AA?5?$AA?$CI?$AA1?$AA?4?$AA0?$AAe?$AA?9?$AA8?$AAf@ 101442f0     physics:dgCollisionMesh.obj
 0002:00013334       ??_C@_1CM@PGOCNPKL@?$AAs?$AA?5?$AA?$DM?$AA?$DN?$AA?5?$AAd?$AAg?$AAF?$AAl?$AAo?$AAa?$AAt?$AA3?$AA2?$AA?5?$AA?$CI?$AA1?$AA?4?$AA0?$AAf?$AA?$CJ?$AA?$AA@ 10144334     physics:dgCollisionMesh.obj
